ARM GAS  /tmp/cch2Dr4w.s 			page 1


   1              		.cpu cortex-m7
   2              		.eabi_attribute 28, 1
   3              		.eabi_attribute 20, 1
   4              		.eabi_attribute 21, 1
   5              		.eabi_attribute 23, 3
   6              		.eabi_attribute 24, 1
   7              		.eabi_attribute 25, 1
   8              		.eabi_attribute 26, 1
   9              		.eabi_attribute 30, 4
  10              		.eabi_attribute 34, 1
  11              		.eabi_attribute 18, 4
  12              		.file	"EchoBridgeWithUSB.cpp"
  13              		.text
  14              	.Ltext0:
  15              		.cfi_sections	.debug_frame
  16              		.section	.text._ZN5daisy3LedD2Ev,"axG",%progbits,_ZN5daisy3LedD5Ev,comdat
  17              		.align	1
  18              		.weak	_ZN5daisy3LedD2Ev
  19              		.arch armv7e-m
  20              		.syntax unified
  21              		.thumb
  22              		.thumb_func
  23              		.fpu fpv5-d16
  25              	_ZN5daisy3LedD2Ev:
  26              	.LVL0:
  27              	.LFB3971:
  28              		.file 1 "/home/ubuntu/DaisyExamples/libDaisy/src/hid/led.h"
   1:/home/ubuntu/DaisyExamples/libDaisy/src/hid/led.h **** 
   2:/home/ubuntu/DaisyExamples/libDaisy/src/hid/led.h **** #pragma once
   3:/home/ubuntu/DaisyExamples/libDaisy/src/hid/led.h **** #ifndef DSY_LED_H
   4:/home/ubuntu/DaisyExamples/libDaisy/src/hid/led.h **** #define DSY_LED_H
   5:/home/ubuntu/DaisyExamples/libDaisy/src/hid/led.h **** #include "daisy_core.h"
   6:/home/ubuntu/DaisyExamples/libDaisy/src/hid/led.h **** #include "per/gpio.h"
   7:/home/ubuntu/DaisyExamples/libDaisy/src/hid/led.h **** 
   8:/home/ubuntu/DaisyExamples/libDaisy/src/hid/led.h **** /* TODO - Get this set up to work with the dev_leddriver stuff as well
   9:/home/ubuntu/DaisyExamples/libDaisy/src/hid/led.h **** - Setup Hardware PWM for pins that have it
  10:/home/ubuntu/DaisyExamples/libDaisy/src/hid/led.h **** */
  11:/home/ubuntu/DaisyExamples/libDaisy/src/hid/led.h **** 
  12:/home/ubuntu/DaisyExamples/libDaisy/src/hid/led.h **** namespace daisy
  13:/home/ubuntu/DaisyExamples/libDaisy/src/hid/led.h **** {
  14:/home/ubuntu/DaisyExamples/libDaisy/src/hid/led.h **** /**
  15:/home/ubuntu/DaisyExamples/libDaisy/src/hid/led.h ****     @brief LED Class providing simple Software PWM ability, etc \n 
  16:/home/ubuntu/DaisyExamples/libDaisy/src/hid/led.h ****     Eventually this will work with hardware PWM, and external LED Driver devices as well.
  17:/home/ubuntu/DaisyExamples/libDaisy/src/hid/led.h ****     @author shensley
  18:/home/ubuntu/DaisyExamples/libDaisy/src/hid/led.h ****     @date March 2020
  19:/home/ubuntu/DaisyExamples/libDaisy/src/hid/led.h ****     @ingroup feedback
  20:/home/ubuntu/DaisyExamples/libDaisy/src/hid/led.h **** */
  21:/home/ubuntu/DaisyExamples/libDaisy/src/hid/led.h **** class Led
  22:/home/ubuntu/DaisyExamples/libDaisy/src/hid/led.h **** {
  23:/home/ubuntu/DaisyExamples/libDaisy/src/hid/led.h ****   public:
  24:/home/ubuntu/DaisyExamples/libDaisy/src/hid/led.h ****     Led() {}
  25:/home/ubuntu/DaisyExamples/libDaisy/src/hid/led.h ****     ~Led() {}
  29              		.loc 1 25 5 view -0
  30              		.cfi_startproc
  31              		@ args = 0, pretend = 0, frame = 0
  32              		@ frame_needed = 0, uses_anonymous_args = 0
  33              		@ link register save eliminated.
ARM GAS  /tmp/cch2Dr4w.s 			page 2


  34              		.loc 1 25 13 is_stmt 0 view .LVU1
  35 0000 7047     		bx	lr
  36              		.cfi_endproc
  37              	.LFE3971:
  39              		.weak	_ZN5daisy3LedD1Ev
  40              		.thumb_set _ZN5daisy3LedD1Ev,_ZN5daisy3LedD2Ev
  41              		.section	.text._Z11HandleKnob1f,"ax",%progbits
  42              		.align	1
  43              		.global	_Z11HandleKnob1f
  44              		.syntax unified
  45              		.thumb
  46              		.thumb_func
  47              		.fpu fpv5-d16
  49              	_Z11HandleKnob1f:
  50              	.LVL1:
  51              	.LFB5524:
  52              		.file 2 "EchoBridgeWithUSB.cpp"
   1:EchoBridgeWithUSB.cpp **** #include "daisysp.h"
   2:EchoBridgeWithUSB.cpp **** #include "hothouse.h"
   3:EchoBridgeWithUSB.cpp **** #include "IRLoader.h"
   4:EchoBridgeWithUSB.cpp **** #include "shy_fft.h"  // Include the ShyFFT library
   5:EchoBridgeWithUSB.cpp **** #include <string.h>
   6:EchoBridgeWithUSB.cpp **** 
   7:EchoBridgeWithUSB.cpp **** using clevelandmusicco::Hothouse;
   8:EchoBridgeWithUSB.cpp **** using daisy::AudioHandle;
   9:EchoBridgeWithUSB.cpp **** using daisy::Led;
  10:EchoBridgeWithUSB.cpp **** using daisy::SaiHandle;
  11:EchoBridgeWithUSB.cpp **** using daisy::System;
  12:EchoBridgeWithUSB.cpp **** 
  13:EchoBridgeWithUSB.cpp **** // Hothouse hardware
  14:EchoBridgeWithUSB.cpp **** Hothouse hw;
  15:EchoBridgeWithUSB.cpp **** 
  16:EchoBridgeWithUSB.cpp **** // USB/IR loading
  17:EchoBridgeWithUSB.cpp **** IRLoader irLoader;
  18:EchoBridgeWithUSB.cpp **** 
  19:EchoBridgeWithUSB.cpp **** // LEDs - Hothouse pedal only has two LEDs
  20:EchoBridgeWithUSB.cpp **** Led led1;  // LED 1 - Used for freeze status and temporarily for IR loading
  21:EchoBridgeWithUSB.cpp **** Led led2;  // LED 2 - Used for bypass status
  22:EchoBridgeWithUSB.cpp **** 
  23:EchoBridgeWithUSB.cpp **** // State variables
  24:EchoBridgeWithUSB.cpp **** bool bypass = true;
  25:EchoBridgeWithUSB.cpp **** bool freeze = false;
  26:EchoBridgeWithUSB.cpp **** bool usbMounted = false;
  27:EchoBridgeWithUSB.cpp **** bool irLoaded = false;
  28:EchoBridgeWithUSB.cpp **** bool isStereoInput = false; // Flag for stereo detection
  29:EchoBridgeWithUSB.cpp **** 
  30:EchoBridgeWithUSB.cpp **** // Define FFT sizes
  31:EchoBridgeWithUSB.cpp **** static const size_t EARLY_FFT_SIZE = 64;     // Small FFT for early reflections (low latency)
  32:EchoBridgeWithUSB.cpp **** static const size_t LATE_FFT_SIZE = 1024;    // Larger FFT for late reflections (efficiency)
  33:EchoBridgeWithUSB.cpp **** static const size_t MAX_PREDELAY_SAMPLES = 24000; // 500ms at 48kHz
  34:EchoBridgeWithUSB.cpp **** 
  35:EchoBridgeWithUSB.cpp **** // Global SDRAM buffers for late partition
  36:EchoBridgeWithUSB.cpp **** DSY_SDRAM_BSS float g_lateInputBuffer[LATE_FFT_SIZE];
  37:EchoBridgeWithUSB.cpp **** DSY_SDRAM_BSS float g_lateInputBufferRight[LATE_FFT_SIZE];
  38:EchoBridgeWithUSB.cpp **** DSY_SDRAM_BSS float g_lateOutputBuffer[LATE_FFT_SIZE * 2];
  39:EchoBridgeWithUSB.cpp **** DSY_SDRAM_BSS float g_lateOutputBufferRight[LATE_FFT_SIZE * 2];
  40:EchoBridgeWithUSB.cpp **** DSY_SDRAM_BSS float g_lateTimeIn[LATE_FFT_SIZE];
ARM GAS  /tmp/cch2Dr4w.s 			page 3


  41:EchoBridgeWithUSB.cpp **** DSY_SDRAM_BSS float g_lateTimeOut[LATE_FFT_SIZE];
  42:EchoBridgeWithUSB.cpp **** DSY_SDRAM_BSS float g_lateFreqReal[LATE_FFT_SIZE];
  43:EchoBridgeWithUSB.cpp **** DSY_SDRAM_BSS float g_lateFreqImag[LATE_FFT_SIZE];
  44:EchoBridgeWithUSB.cpp **** DSY_SDRAM_BSS float g_lateIrFreqReal[LATE_FFT_SIZE];
  45:EchoBridgeWithUSB.cpp **** DSY_SDRAM_BSS float g_lateIrFreqImag[LATE_FFT_SIZE];
  46:EchoBridgeWithUSB.cpp **** DSY_SDRAM_BSS float g_lateIrFreqRealRight[LATE_FFT_SIZE];
  47:EchoBridgeWithUSB.cpp **** DSY_SDRAM_BSS float g_lateIrFreqImagRight[LATE_FFT_SIZE];
  48:EchoBridgeWithUSB.cpp **** 
  49:EchoBridgeWithUSB.cpp **** // Global SDRAM buffers for predelay
  50:EchoBridgeWithUSB.cpp **** DSY_SDRAM_BSS float g_predelayBuffer[MAX_PREDELAY_SAMPLES];
  51:EchoBridgeWithUSB.cpp **** DSY_SDRAM_BSS float g_predelayBufferRight[MAX_PREDELAY_SAMPLES];
  52:EchoBridgeWithUSB.cpp **** 
  53:EchoBridgeWithUSB.cpp **** // Partitioned Convolution implementation
  54:EchoBridgeWithUSB.cpp **** class PartitionedConvolutionReverb {
  55:EchoBridgeWithUSB.cpp **** private:
  56:EchoBridgeWithUSB.cpp ****     // IR parameters
  57:EchoBridgeWithUSB.cpp ****     float* irBuffer;        // Left/mono IR
  58:EchoBridgeWithUSB.cpp ****     float* irBufferRight;   // Right IR for true stereo
  59:EchoBridgeWithUSB.cpp ****     size_t irLength;
  60:EchoBridgeWithUSB.cpp ****     
  61:EchoBridgeWithUSB.cpp ****     // FFT objects for early and late partitions
  62:EchoBridgeWithUSB.cpp ****     ShyFFT<float, EARLY_FFT_SIZE> earlyFft;
  63:EchoBridgeWithUSB.cpp ****     ShyFFT<float, LATE_FFT_SIZE> lateFft;
  64:EchoBridgeWithUSB.cpp ****     
  65:EchoBridgeWithUSB.cpp ****     // Early partition buffers - small enough to keep in internal memory
  66:EchoBridgeWithUSB.cpp ****     float earlyTimeIn[EARLY_FFT_SIZE];
  67:EchoBridgeWithUSB.cpp ****     float earlyTimeOut[EARLY_FFT_SIZE];
  68:EchoBridgeWithUSB.cpp ****     float earlyFreqReal[EARLY_FFT_SIZE];
  69:EchoBridgeWithUSB.cpp ****     float earlyFreqImag[EARLY_FFT_SIZE];
  70:EchoBridgeWithUSB.cpp ****     float earlyFreqRealRight[EARLY_FFT_SIZE];
  71:EchoBridgeWithUSB.cpp ****     float earlyFreqImagRight[EARLY_FFT_SIZE];
  72:EchoBridgeWithUSB.cpp ****     
  73:EchoBridgeWithUSB.cpp ****     // IR frequency domain for early partition
  74:EchoBridgeWithUSB.cpp ****     float earlyIrFreqReal[EARLY_FFT_SIZE];
  75:EchoBridgeWithUSB.cpp ****     float earlyIrFreqImag[EARLY_FFT_SIZE];
  76:EchoBridgeWithUSB.cpp ****     float earlyIrFreqRealRight[EARLY_FFT_SIZE];
  77:EchoBridgeWithUSB.cpp ****     float earlyIrFreqImagRight[EARLY_FFT_SIZE];
  78:EchoBridgeWithUSB.cpp ****     
  79:EchoBridgeWithUSB.cpp ****     // Input/output buffers for early partition
  80:EchoBridgeWithUSB.cpp ****     float earlyInputBuffer[EARLY_FFT_SIZE];
  81:EchoBridgeWithUSB.cpp ****     float earlyInputBufferRight[EARLY_FFT_SIZE];
  82:EchoBridgeWithUSB.cpp ****     float earlyOutputBuffer[EARLY_FFT_SIZE * 2];
  83:EchoBridgeWithUSB.cpp ****     float earlyOutputBufferRight[EARLY_FFT_SIZE * 2];
  84:EchoBridgeWithUSB.cpp ****     size_t earlyInputBufferPos;
  85:EchoBridgeWithUSB.cpp ****     
  86:EchoBridgeWithUSB.cpp ****     // Late partition buffers - using global SDRAM buffers
  87:EchoBridgeWithUSB.cpp ****     size_t lateInputBufferPos;
  88:EchoBridgeWithUSB.cpp ****     
  89:EchoBridgeWithUSB.cpp ****     // Predelay buffer - using global SDRAM buffers
  90:EchoBridgeWithUSB.cpp ****     size_t predelayBufferPos;
  91:EchoBridgeWithUSB.cpp ****     size_t predelayInSamples;
  92:EchoBridgeWithUSB.cpp ****     
  93:EchoBridgeWithUSB.cpp ****     // Parameters
  94:EchoBridgeWithUSB.cpp ****     float dryWet;           // Dry/wet mix (0.0 - 1.0)
  95:EchoBridgeWithUSB.cpp ****     float predelayMs;       // Predelay in milliseconds
  96:EchoBridgeWithUSB.cpp ****     float irLengthFactor;   // IR length factor (0.0 - 1.0)
  97:EchoBridgeWithUSB.cpp ****     float lowCutFreq;       // Low cut frequency
ARM GAS  /tmp/cch2Dr4w.s 			page 4


  98:EchoBridgeWithUSB.cpp ****     float highCutFreq;      // High cut frequency
  99:EchoBridgeWithUSB.cpp ****     float stereoWidth;      // Stereo width (0.0 - 2.0)
 100:EchoBridgeWithUSB.cpp ****     float sampleRate;       // Sample rate
 101:EchoBridgeWithUSB.cpp ****     bool trueStereoIR;      // True if using separate L/R IRs
 102:EchoBridgeWithUSB.cpp ****     
 103:EchoBridgeWithUSB.cpp ****     // Filters
 104:EchoBridgeWithUSB.cpp ****     daisysp::Svf lowCutFilterL;
 105:EchoBridgeWithUSB.cpp ****     daisysp::Svf highCutFilterL;
 106:EchoBridgeWithUSB.cpp ****     daisysp::Svf lowCutFilterR;
 107:EchoBridgeWithUSB.cpp ****     daisysp::Svf highCutFilterR;
 108:EchoBridgeWithUSB.cpp ****     
 109:EchoBridgeWithUSB.cpp ****     // Helper function to update IR in frequency domain
 110:EchoBridgeWithUSB.cpp ****     bool UpdateIRFrequencyDomain() {
 111:EchoBridgeWithUSB.cpp ****         // Clear the frequency domain buffers
 112:EchoBridgeWithUSB.cpp ****         memset(earlyIrFreqReal, 0, EARLY_FFT_SIZE * sizeof(float));
 113:EchoBridgeWithUSB.cpp ****         memset(earlyIrFreqImag, 0, EARLY_FFT_SIZE * sizeof(float));
 114:EchoBridgeWithUSB.cpp ****         memset(earlyIrFreqRealRight, 0, EARLY_FFT_SIZE * sizeof(float));
 115:EchoBridgeWithUSB.cpp ****         memset(earlyIrFreqImagRight, 0, EARLY_FFT_SIZE * sizeof(float));
 116:EchoBridgeWithUSB.cpp ****         
 117:EchoBridgeWithUSB.cpp ****         memset(g_lateIrFreqReal, 0, LATE_FFT_SIZE * sizeof(float));
 118:EchoBridgeWithUSB.cpp ****         memset(g_lateIrFreqImag, 0, LATE_FFT_SIZE * sizeof(float));
 119:EchoBridgeWithUSB.cpp ****         memset(g_lateIrFreqRealRight, 0, LATE_FFT_SIZE * sizeof(float));
 120:EchoBridgeWithUSB.cpp ****         memset(g_lateIrFreqImagRight, 0, LATE_FFT_SIZE * sizeof(float));
 121:EchoBridgeWithUSB.cpp ****         
 122:EchoBridgeWithUSB.cpp ****         // Apply IR length factor
 123:EchoBridgeWithUSB.cpp ****         size_t effectiveIrLength = (size_t)(irLength * irLengthFactor);
 124:EchoBridgeWithUSB.cpp ****         if (effectiveIrLength > irLength) effectiveIrLength = irLength;
 125:EchoBridgeWithUSB.cpp ****         
 126:EchoBridgeWithUSB.cpp ****         // Prepare early partition (first EARLY_FFT_SIZE samples of IR)
 127:EchoBridgeWithUSB.cpp ****         float earlyIrPadded[EARLY_FFT_SIZE];
 128:EchoBridgeWithUSB.cpp ****         float earlyIrPaddedRight[EARLY_FFT_SIZE];
 129:EchoBridgeWithUSB.cpp ****         
 130:EchoBridgeWithUSB.cpp ****         memset(earlyIrPadded, 0, EARLY_FFT_SIZE * sizeof(float));
 131:EchoBridgeWithUSB.cpp ****         memset(earlyIrPaddedRight, 0, EARLY_FFT_SIZE * sizeof(float));
 132:EchoBridgeWithUSB.cpp ****         
 133:EchoBridgeWithUSB.cpp ****         // Copy early part of IR (up to EARLY_FFT_SIZE samples)
 134:EchoBridgeWithUSB.cpp ****         size_t earlyLength = (effectiveIrLength < EARLY_FFT_SIZE) ? effectiveIrLength : EARLY_FFT_S
 135:EchoBridgeWithUSB.cpp ****         memcpy(earlyIrPadded, irBuffer, earlyLength * sizeof(float));
 136:EchoBridgeWithUSB.cpp ****         
 137:EchoBridgeWithUSB.cpp ****         if (trueStereoIR) {
 138:EchoBridgeWithUSB.cpp ****             memcpy(earlyIrPaddedRight, irBufferRight, earlyLength * sizeof(float));
 139:EchoBridgeWithUSB.cpp ****         } else {
 140:EchoBridgeWithUSB.cpp ****             memcpy(earlyIrPaddedRight, irBuffer, earlyLength * sizeof(float));
 141:EchoBridgeWithUSB.cpp ****         }
 142:EchoBridgeWithUSB.cpp ****         
 143:EchoBridgeWithUSB.cpp ****         // Transform early IR to frequency domain
 144:EchoBridgeWithUSB.cpp ****         earlyFft.Direct(earlyIrPadded, earlyTimeOut);
 145:EchoBridgeWithUSB.cpp ****         for (size_t i = 0; i < EARLY_FFT_SIZE; i++) {
 146:EchoBridgeWithUSB.cpp ****             earlyIrFreqReal[i] = earlyTimeOut[i];
 147:EchoBridgeWithUSB.cpp ****             earlyIrFreqImag[i] = 0.0f;
 148:EchoBridgeWithUSB.cpp ****         }
 149:EchoBridgeWithUSB.cpp ****         
 150:EchoBridgeWithUSB.cpp ****         earlyFft.Direct(earlyIrPaddedRight, earlyTimeOut);
 151:EchoBridgeWithUSB.cpp ****         for (size_t i = 0; i < EARLY_FFT_SIZE; i++) {
 152:EchoBridgeWithUSB.cpp ****             earlyIrFreqRealRight[i] = earlyTimeOut[i];
 153:EchoBridgeWithUSB.cpp ****             earlyIrFreqImagRight[i] = 0.0f;
 154:EchoBridgeWithUSB.cpp ****         }
ARM GAS  /tmp/cch2Dr4w.s 			page 5


 155:EchoBridgeWithUSB.cpp ****         
 156:EchoBridgeWithUSB.cpp ****         // Prepare late partition (remaining IR samples)
 157:EchoBridgeWithUSB.cpp ****         if (effectiveIrLength > EARLY_FFT_SIZE) {
 158:EchoBridgeWithUSB.cpp ****             float lateIrPadded[LATE_FFT_SIZE];
 159:EchoBridgeWithUSB.cpp ****             float lateIrPaddedRight[LATE_FFT_SIZE];
 160:EchoBridgeWithUSB.cpp ****             
 161:EchoBridgeWithUSB.cpp ****             memset(lateIrPadded, 0, LATE_FFT_SIZE * sizeof(float));
 162:EchoBridgeWithUSB.cpp ****             memset(lateIrPaddedRight, 0, LATE_FFT_SIZE * sizeof(float));
 163:EchoBridgeWithUSB.cpp ****             
 164:EchoBridgeWithUSB.cpp ****             // Copy late part of IR (from EARLY_FFT_SIZE to end)
 165:EchoBridgeWithUSB.cpp ****             size_t lateLength = effectiveIrLength - EARLY_FFT_SIZE;
 166:EchoBridgeWithUSB.cpp ****             if (lateLength > LATE_FFT_SIZE) lateLength = LATE_FFT_SIZE;
 167:EchoBridgeWithUSB.cpp ****             
 168:EchoBridgeWithUSB.cpp ****             memcpy(lateIrPadded, irBuffer + EARLY_FFT_SIZE, lateLength * sizeof(float));
 169:EchoBridgeWithUSB.cpp ****             
 170:EchoBridgeWithUSB.cpp ****             if (trueStereoIR) {
 171:EchoBridgeWithUSB.cpp ****                 memcpy(lateIrPaddedRight, irBufferRight + EARLY_FFT_SIZE, lateLength * sizeof(float
 172:EchoBridgeWithUSB.cpp ****             } else {
 173:EchoBridgeWithUSB.cpp ****                 memcpy(lateIrPaddedRight, irBuffer + EARLY_FFT_SIZE, lateLength * sizeof(float));
 174:EchoBridgeWithUSB.cpp ****             }
 175:EchoBridgeWithUSB.cpp ****             
 176:EchoBridgeWithUSB.cpp ****             // Transform late IR to frequency domain
 177:EchoBridgeWithUSB.cpp ****             lateFft.Direct(lateIrPadded, g_lateTimeOut);
 178:EchoBridgeWithUSB.cpp ****             for (size_t i = 0; i < LATE_FFT_SIZE; i++) {
 179:EchoBridgeWithUSB.cpp ****                 g_lateIrFreqReal[i] = g_lateTimeOut[i];
 180:EchoBridgeWithUSB.cpp ****                 g_lateIrFreqImag[i] = 0.0f;
 181:EchoBridgeWithUSB.cpp ****             }
 182:EchoBridgeWithUSB.cpp ****             
 183:EchoBridgeWithUSB.cpp ****             lateFft.Direct(lateIrPaddedRight, g_lateTimeOut);
 184:EchoBridgeWithUSB.cpp ****             for (size_t i = 0; i < LATE_FFT_SIZE; i++) {
 185:EchoBridgeWithUSB.cpp ****                 g_lateIrFreqRealRight[i] = g_lateTimeOut[i];
 186:EchoBridgeWithUSB.cpp ****                 g_lateIrFreqImagRight[i] = 0.0f;
 187:EchoBridgeWithUSB.cpp ****             }
 188:EchoBridgeWithUSB.cpp ****         }
 189:EchoBridgeWithUSB.cpp ****         
 190:EchoBridgeWithUSB.cpp ****         return true;
 191:EchoBridgeWithUSB.cpp ****     }
 192:EchoBridgeWithUSB.cpp ****     
 193:EchoBridgeWithUSB.cpp **** public:
 194:EchoBridgeWithUSB.cpp ****     PartitionedConvolutionReverb() : 
 195:EchoBridgeWithUSB.cpp ****         irBuffer(nullptr),
 196:EchoBridgeWithUSB.cpp ****         irBufferRight(nullptr),
 197:EchoBridgeWithUSB.cpp ****         irLength(0),
 198:EchoBridgeWithUSB.cpp ****         earlyInputBufferPos(0),
 199:EchoBridgeWithUSB.cpp ****         lateInputBufferPos(0),
 200:EchoBridgeWithUSB.cpp ****         predelayBufferPos(0),
 201:EchoBridgeWithUSB.cpp ****         predelayInSamples(0),
 202:EchoBridgeWithUSB.cpp ****         dryWet(0.5f),
 203:EchoBridgeWithUSB.cpp ****         predelayMs(0.0f),
 204:EchoBridgeWithUSB.cpp ****         irLengthFactor(1.0f),
 205:EchoBridgeWithUSB.cpp ****         lowCutFreq(100.0f),
 206:EchoBridgeWithUSB.cpp ****         highCutFreq(10000.0f),
 207:EchoBridgeWithUSB.cpp ****         stereoWidth(1.0f),
 208:EchoBridgeWithUSB.cpp ****         sampleRate(48000.0f),
 209:EchoBridgeWithUSB.cpp ****         trueStereoIR(false)
 210:EchoBridgeWithUSB.cpp ****     {
 211:EchoBridgeWithUSB.cpp ****         // Initialize FFTs
ARM GAS  /tmp/cch2Dr4w.s 			page 6


 212:EchoBridgeWithUSB.cpp ****         earlyFft.Init();
 213:EchoBridgeWithUSB.cpp ****         lateFft.Init();
 214:EchoBridgeWithUSB.cpp ****     }
 215:EchoBridgeWithUSB.cpp ****     
 216:EchoBridgeWithUSB.cpp ****     ~PartitionedConvolutionReverb() {
 217:EchoBridgeWithUSB.cpp ****         // Free IR buffers
 218:EchoBridgeWithUSB.cpp ****         if (irBuffer) {
 219:EchoBridgeWithUSB.cpp ****             delete[] irBuffer;
 220:EchoBridgeWithUSB.cpp ****             irBuffer = nullptr;
 221:EchoBridgeWithUSB.cpp ****         }
 222:EchoBridgeWithUSB.cpp ****         
 223:EchoBridgeWithUSB.cpp ****         if (irBufferRight) {
 224:EchoBridgeWithUSB.cpp ****             delete[] irBufferRight;
 225:EchoBridgeWithUSB.cpp ****             irBufferRight = nullptr;
 226:EchoBridgeWithUSB.cpp ****         }
 227:EchoBridgeWithUSB.cpp ****     }
 228:EchoBridgeWithUSB.cpp ****     
 229:EchoBridgeWithUSB.cpp ****     // Initialize with sample rate
 230:EchoBridgeWithUSB.cpp ****     void Init(float sample_rate) {
 231:EchoBridgeWithUSB.cpp ****         sampleRate = sample_rate;
 232:EchoBridgeWithUSB.cpp ****         
 233:EchoBridgeWithUSB.cpp ****         // Initialize FFTs
 234:EchoBridgeWithUSB.cpp ****         earlyFft.Init();
 235:EchoBridgeWithUSB.cpp ****         lateFft.Init();
 236:EchoBridgeWithUSB.cpp ****         
 237:EchoBridgeWithUSB.cpp ****         // Clear buffers - must be done after hardware initialization for SDRAM buffers
 238:EchoBridgeWithUSB.cpp ****         memset(earlyInputBuffer, 0, sizeof(earlyInputBuffer));
 239:EchoBridgeWithUSB.cpp ****         memset(earlyInputBufferRight, 0, sizeof(earlyInputBufferRight));
 240:EchoBridgeWithUSB.cpp ****         memset(earlyOutputBuffer, 0, sizeof(earlyOutputBuffer));
 241:EchoBridgeWithUSB.cpp ****         memset(earlyOutputBufferRight, 0, sizeof(earlyOutputBufferRight));
 242:EchoBridgeWithUSB.cpp ****         
 243:EchoBridgeWithUSB.cpp ****         memset(g_lateInputBuffer, 0, sizeof(g_lateInputBuffer));
 244:EchoBridgeWithUSB.cpp ****         memset(g_lateInputBufferRight, 0, sizeof(g_lateInputBufferRight));
 245:EchoBridgeWithUSB.cpp ****         memset(g_lateOutputBuffer, 0, sizeof(g_lateOutputBuffer));
 246:EchoBridgeWithUSB.cpp ****         memset(g_lateOutputBufferRight, 0, sizeof(g_lateOutputBufferRight));
 247:EchoBridgeWithUSB.cpp ****         
 248:EchoBridgeWithUSB.cpp ****         memset(g_predelayBuffer, 0, sizeof(g_predelayBuffer));
 249:EchoBridgeWithUSB.cpp ****         memset(g_predelayBufferRight, 0, sizeof(g_predelayBufferRight));
 250:EchoBridgeWithUSB.cpp ****         
 251:EchoBridgeWithUSB.cpp ****         // Initialize filters with sample rate
 252:EchoBridgeWithUSB.cpp ****         lowCutFilterL.Init(sampleRate);
 253:EchoBridgeWithUSB.cpp ****         highCutFilterL.Init(sampleRate);
 254:EchoBridgeWithUSB.cpp ****         lowCutFilterR.Init(sampleRate);
 255:EchoBridgeWithUSB.cpp ****         highCutFilterR.Init(sampleRate);
 256:EchoBridgeWithUSB.cpp ****         
 257:EchoBridgeWithUSB.cpp ****         // Update filter parameters
 258:EchoBridgeWithUSB.cpp ****         UpdateFilters();
 259:EchoBridgeWithUSB.cpp ****     }
 260:EchoBridgeWithUSB.cpp ****     
 261:EchoBridgeWithUSB.cpp ****     // Load IR from buffer - now using external SDRAM for IR storage
 262:EchoBridgeWithUSB.cpp ****     bool LoadIR(float* buffer, size_t length) {
 263:EchoBridgeWithUSB.cpp ****         // Check if length is valid
 264:EchoBridgeWithUSB.cpp ****         if (length == 0 || length > MAX_IR_LENGTH) {
 265:EchoBridgeWithUSB.cpp ****             return false;
 266:EchoBridgeWithUSB.cpp ****         }
 267:EchoBridgeWithUSB.cpp ****         
 268:EchoBridgeWithUSB.cpp ****         // Free old buffer if it exists
ARM GAS  /tmp/cch2Dr4w.s 			page 7


 269:EchoBridgeWithUSB.cpp ****         if (irBuffer) {
 270:EchoBridgeWithUSB.cpp ****             delete[] irBuffer;
 271:EchoBridgeWithUSB.cpp ****         }
 272:EchoBridgeWithUSB.cpp ****         
 273:EchoBridgeWithUSB.cpp ****         // Allocate new buffer in SDRAM
 274:EchoBridgeWithUSB.cpp ****         irBuffer = new float[length];
 275:EchoBridgeWithUSB.cpp ****         if (!irBuffer) {
 276:EchoBridgeWithUSB.cpp ****             return false;
 277:EchoBridgeWithUSB.cpp ****         }
 278:EchoBridgeWithUSB.cpp ****         
 279:EchoBridgeWithUSB.cpp ****         // Copy data
 280:EchoBridgeWithUSB.cpp ****         memcpy(irBuffer, buffer, length * sizeof(float));
 281:EchoBridgeWithUSB.cpp ****         irLength = length;
 282:EchoBridgeWithUSB.cpp ****         
 283:EchoBridgeWithUSB.cpp ****         // Not true stereo
 284:EchoBridgeWithUSB.cpp ****         trueStereoIR = false;
 285:EchoBridgeWithUSB.cpp ****         
 286:EchoBridgeWithUSB.cpp ****         // Update frequency domain representation
 287:EchoBridgeWithUSB.cpp ****         return UpdateIRFrequencyDomain();
 288:EchoBridgeWithUSB.cpp ****     }
 289:EchoBridgeWithUSB.cpp ****     
 290:EchoBridgeWithUSB.cpp ****     // Load stereo IR from buffers - now using external SDRAM for IR storage
 291:EchoBridgeWithUSB.cpp ****     bool LoadStereoIR(float* bufferL, float* bufferR, size_t length) {
 292:EchoBridgeWithUSB.cpp ****         // Check if length is valid
 293:EchoBridgeWithUSB.cpp ****         if (length == 0 || length > MAX_IR_LENGTH) {
 294:EchoBridgeWithUSB.cpp ****             return false;
 295:EchoBridgeWithUSB.cpp ****         }
 296:EchoBridgeWithUSB.cpp ****         
 297:EchoBridgeWithUSB.cpp ****         // Free old buffers if they exist
 298:EchoBridgeWithUSB.cpp ****         if (irBuffer) {
 299:EchoBridgeWithUSB.cpp ****             delete[] irBuffer;
 300:EchoBridgeWithUSB.cpp ****         }
 301:EchoBridgeWithUSB.cpp ****         
 302:EchoBridgeWithUSB.cpp ****         if (irBufferRight) {
 303:EchoBridgeWithUSB.cpp ****             delete[] irBufferRight;
 304:EchoBridgeWithUSB.cpp ****         }
 305:EchoBridgeWithUSB.cpp ****         
 306:EchoBridgeWithUSB.cpp ****         // Allocate new buffers in SDRAM
 307:EchoBridgeWithUSB.cpp ****         irBuffer = new float[length];
 308:EchoBridgeWithUSB.cpp ****         irBufferRight = new float[length];
 309:EchoBridgeWithUSB.cpp ****         
 310:EchoBridgeWithUSB.cpp ****         if (!irBuffer || !irBufferRight) {
 311:EchoBridgeWithUSB.cpp ****             if (irBuffer) {
 312:EchoBridgeWithUSB.cpp ****                 delete[] irBuffer;
 313:EchoBridgeWithUSB.cpp ****                 irBuffer = nullptr;
 314:EchoBridgeWithUSB.cpp ****             }
 315:EchoBridgeWithUSB.cpp ****             
 316:EchoBridgeWithUSB.cpp ****             if (irBufferRight) {
 317:EchoBridgeWithUSB.cpp ****                 delete[] irBufferRight;
 318:EchoBridgeWithUSB.cpp ****                 irBufferRight = nullptr;
 319:EchoBridgeWithUSB.cpp ****             }
 320:EchoBridgeWithUSB.cpp ****             
 321:EchoBridgeWithUSB.cpp ****             return false;
 322:EchoBridgeWithUSB.cpp ****         }
 323:EchoBridgeWithUSB.cpp ****         
 324:EchoBridgeWithUSB.cpp ****         // Copy data
 325:EchoBridgeWithUSB.cpp ****         memcpy(irBuffer, bufferL, length * sizeof(float));
ARM GAS  /tmp/cch2Dr4w.s 			page 8


 326:EchoBridgeWithUSB.cpp ****         memcpy(irBufferRight, bufferR, length * sizeof(float));
 327:EchoBridgeWithUSB.cpp ****         irLength = length;
 328:EchoBridgeWithUSB.cpp ****         
 329:EchoBridgeWithUSB.cpp ****         // True stereo
 330:EchoBridgeWithUSB.cpp ****         trueStereoIR = true;
 331:EchoBridgeWithUSB.cpp ****         
 332:EchoBridgeWithUSB.cpp ****         // Update frequency domain representation
 333:EchoBridgeWithUSB.cpp ****         return UpdateIRFrequencyDomain();
 334:EchoBridgeWithUSB.cpp ****     }
 335:EchoBridgeWithUSB.cpp ****     
 336:EchoBridgeWithUSB.cpp ****     // Set dry/wet mix
 337:EchoBridgeWithUSB.cpp ****     void SetDryWet(float value) {
 338:EchoBridgeWithUSB.cpp ****         dryWet = value;
 339:EchoBridgeWithUSB.cpp ****     }
 340:EchoBridgeWithUSB.cpp ****     
 341:EchoBridgeWithUSB.cpp ****     // Set predelay in milliseconds
 342:EchoBridgeWithUSB.cpp ****     void SetPredelay(float ms) {
 343:EchoBridgeWithUSB.cpp ****         predelayMs = ms;
 344:EchoBridgeWithUSB.cpp ****         predelayInSamples = (size_t)(predelayMs * sampleRate / 1000.0f);
 345:EchoBridgeWithUSB.cpp ****         if (predelayInSamples >= MAX_PREDELAY_SAMPLES) {
 346:EchoBridgeWithUSB.cpp ****             predelayInSamples = MAX_PREDELAY_SAMPLES - 1;
 347:EchoBridgeWithUSB.cpp ****         }
 348:EchoBridgeWithUSB.cpp ****     }
 349:EchoBridgeWithUSB.cpp ****     
 350:EchoBridgeWithUSB.cpp ****     // Set IR length factor
 351:EchoBridgeWithUSB.cpp ****     void SetIRLengthFactor(float factor) {
 352:EchoBridgeWithUSB.cpp ****         if (factor != irLengthFactor) {
 353:EchoBridgeWithUSB.cpp ****             irLengthFactor = factor;
 354:EchoBridgeWithUSB.cpp ****             UpdateIRFrequencyDomain();
 355:EchoBridgeWithUSB.cpp ****         }
 356:EchoBridgeWithUSB.cpp ****     }
 357:EchoBridgeWithUSB.cpp ****     
 358:EchoBridgeWithUSB.cpp ****     // Set low cut frequency
 359:EchoBridgeWithUSB.cpp ****     void SetLowCut(float freq) {
 360:EchoBridgeWithUSB.cpp ****         lowCutFreq = freq;
 361:EchoBridgeWithUSB.cpp ****         UpdateFilters();
 362:EchoBridgeWithUSB.cpp ****     }
 363:EchoBridgeWithUSB.cpp ****     
 364:EchoBridgeWithUSB.cpp ****     // Set high cut frequency
 365:EchoBridgeWithUSB.cpp ****     void SetHighCut(float freq) {
 366:EchoBridgeWithUSB.cpp ****         highCutFreq = freq;
 367:EchoBridgeWithUSB.cpp ****         UpdateFilters();
 368:EchoBridgeWithUSB.cpp ****     }
 369:EchoBridgeWithUSB.cpp ****     
 370:EchoBridgeWithUSB.cpp ****     // Set stereo width
 371:EchoBridgeWithUSB.cpp ****     void SetStereoWidth(float width) {
 372:EchoBridgeWithUSB.cpp ****         stereoWidth = width;
 373:EchoBridgeWithUSB.cpp ****     }
 374:EchoBridgeWithUSB.cpp ****     
 375:EchoBridgeWithUSB.cpp ****     // Update filter parameters
 376:EchoBridgeWithUSB.cpp ****     void UpdateFilters() {
 377:EchoBridgeWithUSB.cpp ****         // Low cut filter (high pass)
 378:EchoBridgeWithUSB.cpp ****         lowCutFilterL.SetFreq(lowCutFreq);
 379:EchoBridgeWithUSB.cpp ****         lowCutFilterL.SetRes(0.707f);
 380:EchoBridgeWithUSB.cpp ****         lowCutFilterL.SetDrive(1.0f);
 381:EchoBridgeWithUSB.cpp ****         
 382:EchoBridgeWithUSB.cpp ****         highCutFilterL.SetFreq(highCutFreq);
ARM GAS  /tmp/cch2Dr4w.s 			page 9


 383:EchoBridgeWithUSB.cpp ****         highCutFilterL.SetRes(0.707f);
 384:EchoBridgeWithUSB.cpp ****         highCutFilterL.SetDrive(1.0f);
 385:EchoBridgeWithUSB.cpp ****         
 386:EchoBridgeWithUSB.cpp ****         lowCutFilterR.SetFreq(lowCutFreq);
 387:EchoBridgeWithUSB.cpp ****         lowCutFilterR.SetRes(0.707f);
 388:EchoBridgeWithUSB.cpp ****         lowCutFilterR.SetDrive(1.0f);
 389:EchoBridgeWithUSB.cpp ****         
 390:EchoBridgeWithUSB.cpp ****         highCutFilterR.SetFreq(highCutFreq);
 391:EchoBridgeWithUSB.cpp ****         highCutFilterR.SetRes(0.707f);
 392:EchoBridgeWithUSB.cpp ****         highCutFilterR.SetDrive(1.0f);
 393:EchoBridgeWithUSB.cpp ****     }
 394:EchoBridgeWithUSB.cpp ****     
 395:EchoBridgeWithUSB.cpp ****     // Process a single sample
 396:EchoBridgeWithUSB.cpp ****     void Process(float inL, float inR, float* outL, float* outR) {
 397:EchoBridgeWithUSB.cpp ****         // If no IR is loaded, pass through
 398:EchoBridgeWithUSB.cpp ****         if (!irBuffer) {
 399:EchoBridgeWithUSB.cpp ****             *outL = inL;
 400:EchoBridgeWithUSB.cpp ****             *outR = inR;
 401:EchoBridgeWithUSB.cpp ****             return;
 402:EchoBridgeWithUSB.cpp ****         }
 403:EchoBridgeWithUSB.cpp ****         
 404:EchoBridgeWithUSB.cpp ****         // Store input in predelay buffer
 405:EchoBridgeWithUSB.cpp ****         g_predelayBuffer[predelayBufferPos] = inL;
 406:EchoBridgeWithUSB.cpp ****         g_predelayBufferRight[predelayBufferPos] = inR;
 407:EchoBridgeWithUSB.cpp ****         
 408:EchoBridgeWithUSB.cpp ****         // Get delayed input
 409:EchoBridgeWithUSB.cpp ****         size_t delayedPos = (predelayBufferPos + MAX_PREDELAY_SAMPLES - predelayInSamples) % MAX_PR
 410:EchoBridgeWithUSB.cpp ****         float delayedL = g_predelayBuffer[delayedPos];
 411:EchoBridgeWithUSB.cpp ****         float delayedR = g_predelayBufferRight[delayedPos];
 412:EchoBridgeWithUSB.cpp ****         
 413:EchoBridgeWithUSB.cpp ****         // Advance predelay buffer position
 414:EchoBridgeWithUSB.cpp ****         predelayBufferPos = (predelayBufferPos + 1) % MAX_PREDELAY_SAMPLES;
 415:EchoBridgeWithUSB.cpp ****         
 416:EchoBridgeWithUSB.cpp ****         // Store input in early and late buffers
 417:EchoBridgeWithUSB.cpp ****         earlyInputBuffer[earlyInputBufferPos] = delayedL;
 418:EchoBridgeWithUSB.cpp ****         earlyInputBufferRight[earlyInputBufferPos] = delayedR;
 419:EchoBridgeWithUSB.cpp ****         
 420:EchoBridgeWithUSB.cpp ****         g_lateInputBuffer[lateInputBufferPos] = delayedL;
 421:EchoBridgeWithUSB.cpp ****         g_lateInputBufferRight[lateInputBufferPos] = delayedR;
 422:EchoBridgeWithUSB.cpp ****         
 423:EchoBridgeWithUSB.cpp ****         // Process early partition (low latency)
 424:EchoBridgeWithUSB.cpp ****         earlyInputBufferPos++;
 425:EchoBridgeWithUSB.cpp ****         if (earlyInputBufferPos >= EARLY_FFT_SIZE) {
 426:EchoBridgeWithUSB.cpp ****             // Reset input buffer position
 427:EchoBridgeWithUSB.cpp ****             earlyInputBufferPos = 0;
 428:EchoBridgeWithUSB.cpp ****             
 429:EchoBridgeWithUSB.cpp ****             // Process left channel
 430:EchoBridgeWithUSB.cpp ****             memcpy(earlyTimeIn, earlyInputBuffer, EARLY_FFT_SIZE * sizeof(float));
 431:EchoBridgeWithUSB.cpp ****             earlyFft.Direct(earlyTimeIn, earlyTimeOut);
 432:EchoBridgeWithUSB.cpp ****             
 433:EchoBridgeWithUSB.cpp ****             for (size_t i = 0; i < EARLY_FFT_SIZE; i++) {
 434:EchoBridgeWithUSB.cpp ****                 earlyFreqReal[i] = earlyTimeOut[i];
 435:EchoBridgeWithUSB.cpp ****                 earlyFreqImag[i] = 0.0f;
 436:EchoBridgeWithUSB.cpp ****             }
 437:EchoBridgeWithUSB.cpp ****             
 438:EchoBridgeWithUSB.cpp ****             // Complex multiplication with IR
 439:EchoBridgeWithUSB.cpp ****             for (size_t i = 0; i < EARLY_FFT_SIZE; i++) {
ARM GAS  /tmp/cch2Dr4w.s 			page 10


 440:EchoBridgeWithUSB.cpp ****                 float a = earlyFreqReal[i];
 441:EchoBridgeWithUSB.cpp ****                 float b = earlyFreqImag[i];
 442:EchoBridgeWithUSB.cpp ****                 float c = earlyIrFreqReal[i];
 443:EchoBridgeWithUSB.cpp ****                 float d = earlyIrFreqImag[i];
 444:EchoBridgeWithUSB.cpp ****                 
 445:EchoBridgeWithUSB.cpp ****                 earlyFreqReal[i] = a*c - b*d;
 446:EchoBridgeWithUSB.cpp ****                 earlyFreqImag[i] = a*d + b*c;
 447:EchoBridgeWithUSB.cpp ****             }
 448:EchoBridgeWithUSB.cpp ****             
 449:EchoBridgeWithUSB.cpp ****             // Transform back to time domain
 450:EchoBridgeWithUSB.cpp ****             earlyFft.Inverse(earlyFreqReal, earlyFreqImag, EARLY_FFT_SIZE);
 451:EchoBridgeWithUSB.cpp ****             
 452:EchoBridgeWithUSB.cpp ****             // Process right channel
 453:EchoBridgeWithUSB.cpp ****             memcpy(earlyTimeIn, earlyInputBufferRight, EARLY_FFT_SIZE * sizeof(float));
 454:EchoBridgeWithUSB.cpp ****             earlyFft.Direct(earlyTimeIn, earlyTimeOut);
 455:EchoBridgeWithUSB.cpp ****             
 456:EchoBridgeWithUSB.cpp ****             for (size_t i = 0; i < EARLY_FFT_SIZE; i++) {
 457:EchoBridgeWithUSB.cpp ****                 earlyFreqReal[i] = earlyTimeOut[i];
 458:EchoBridgeWithUSB.cpp ****                 earlyFreqImag[i] = 0.0f;
 459:EchoBridgeWithUSB.cpp ****             }
 460:EchoBridgeWithUSB.cpp ****             
 461:EchoBridgeWithUSB.cpp ****             // Complex multiplication with IR
 462:EchoBridgeWithUSB.cpp ****             for (size_t i = 0; i < EARLY_FFT_SIZE; i++) {
 463:EchoBridgeWithUSB.cpp ****                 float a = earlyFreqReal[i];
 464:EchoBridgeWithUSB.cpp ****                 float b = earlyFreqImag[i];
 465:EchoBridgeWithUSB.cpp ****                 float c = earlyIrFreqRealRight[i];
 466:EchoBridgeWithUSB.cpp ****                 float d = earlyIrFreqImagRight[i];
 467:EchoBridgeWithUSB.cpp ****                 
 468:EchoBridgeWithUSB.cpp ****                 earlyFreqReal[i] = a*c - b*d;
 469:EchoBridgeWithUSB.cpp ****                 earlyFreqImag[i] = a*d + b*c;
 470:EchoBridgeWithUSB.cpp ****             }
 471:EchoBridgeWithUSB.cpp ****             
 472:EchoBridgeWithUSB.cpp ****             // Transform back to time domain
 473:EchoBridgeWithUSB.cpp ****             earlyFft.Inverse(earlyFreqReal, earlyFreqImag, EARLY_FFT_SIZE);
 474:EchoBridgeWithUSB.cpp ****             
 475:EchoBridgeWithUSB.cpp ****             // Overlap-add
 476:EchoBridgeWithUSB.cpp ****             for (size_t i = 0; i < EARLY_FFT_SIZE; i++) {
 477:EchoBridgeWithUSB.cpp ****                 earlyOutputBuffer[i] = earlyOutputBuffer[i + EARLY_FFT_SIZE] + earlyFreqReal[i];
 478:EchoBridgeWithUSB.cpp ****                 earlyOutputBufferRight[i] = earlyOutputBufferRight[i + EARLY_FFT_SIZE] + earlyFreqR
 479:EchoBridgeWithUSB.cpp ****             }
 480:EchoBridgeWithUSB.cpp ****             
 481:EchoBridgeWithUSB.cpp ****             // Clear the second half of the output buffer
 482:EchoBridgeWithUSB.cpp ****             memset(earlyOutputBuffer + EARLY_FFT_SIZE, 0, EARLY_FFT_SIZE * sizeof(float));
 483:EchoBridgeWithUSB.cpp ****             memset(earlyOutputBufferRight + EARLY_FFT_SIZE, 0, EARLY_FFT_SIZE * sizeof(float));
 484:EchoBridgeWithUSB.cpp ****         }
 485:EchoBridgeWithUSB.cpp ****         
 486:EchoBridgeWithUSB.cpp ****         // Process late partition (efficiency)
 487:EchoBridgeWithUSB.cpp ****         lateInputBufferPos++;
 488:EchoBridgeWithUSB.cpp ****         if (lateInputBufferPos >= LATE_FFT_SIZE) {
 489:EchoBridgeWithUSB.cpp ****             // Reset input buffer position
 490:EchoBridgeWithUSB.cpp ****             lateInputBufferPos = 0;
 491:EchoBridgeWithUSB.cpp ****             
 492:EchoBridgeWithUSB.cpp ****             // Process left channel
 493:EchoBridgeWithUSB.cpp ****             memcpy(g_lateTimeIn, g_lateInputBuffer, LATE_FFT_SIZE * sizeof(float));
 494:EchoBridgeWithUSB.cpp ****             lateFft.Direct(g_lateTimeIn, g_lateTimeOut);
 495:EchoBridgeWithUSB.cpp ****             
 496:EchoBridgeWithUSB.cpp ****             for (size_t i = 0; i < LATE_FFT_SIZE; i++) {
ARM GAS  /tmp/cch2Dr4w.s 			page 11


 497:EchoBridgeWithUSB.cpp ****                 g_lateFreqReal[i] = g_lateTimeOut[i];
 498:EchoBridgeWithUSB.cpp ****                 g_lateFreqImag[i] = 0.0f;
 499:EchoBridgeWithUSB.cpp ****             }
 500:EchoBridgeWithUSB.cpp ****             
 501:EchoBridgeWithUSB.cpp ****             // Complex multiplication with IR
 502:EchoBridgeWithUSB.cpp ****             for (size_t i = 0; i < LATE_FFT_SIZE; i++) {
 503:EchoBridgeWithUSB.cpp ****                 float a = g_lateFreqReal[i];
 504:EchoBridgeWithUSB.cpp ****                 float b = g_lateFreqImag[i];
 505:EchoBridgeWithUSB.cpp ****                 float c = g_lateIrFreqReal[i];
 506:EchoBridgeWithUSB.cpp ****                 float d = g_lateIrFreqImag[i];
 507:EchoBridgeWithUSB.cpp ****                 
 508:EchoBridgeWithUSB.cpp ****                 g_lateFreqReal[i] = a*c - b*d;
 509:EchoBridgeWithUSB.cpp ****                 g_lateFreqImag[i] = a*d + b*c;
 510:EchoBridgeWithUSB.cpp ****             }
 511:EchoBridgeWithUSB.cpp ****             
 512:EchoBridgeWithUSB.cpp ****             // Transform back to time domain
 513:EchoBridgeWithUSB.cpp ****             lateFft.Inverse(g_lateFreqReal, g_lateFreqImag, LATE_FFT_SIZE);
 514:EchoBridgeWithUSB.cpp ****             
 515:EchoBridgeWithUSB.cpp ****             // Process right channel
 516:EchoBridgeWithUSB.cpp ****             memcpy(g_lateTimeIn, g_lateInputBufferRight, LATE_FFT_SIZE * sizeof(float));
 517:EchoBridgeWithUSB.cpp ****             lateFft.Direct(g_lateTimeIn, g_lateTimeOut);
 518:EchoBridgeWithUSB.cpp ****             
 519:EchoBridgeWithUSB.cpp ****             for (size_t i = 0; i < LATE_FFT_SIZE; i++) {
 520:EchoBridgeWithUSB.cpp ****                 g_lateFreqReal[i] = g_lateTimeOut[i];
 521:EchoBridgeWithUSB.cpp ****                 g_lateFreqImag[i] = 0.0f;
 522:EchoBridgeWithUSB.cpp ****             }
 523:EchoBridgeWithUSB.cpp ****             
 524:EchoBridgeWithUSB.cpp ****             // Complex multiplication with IR
 525:EchoBridgeWithUSB.cpp ****             for (size_t i = 0; i < LATE_FFT_SIZE; i++) {
 526:EchoBridgeWithUSB.cpp ****                 float a = g_lateFreqReal[i];
 527:EchoBridgeWithUSB.cpp ****                 float b = g_lateFreqImag[i];
 528:EchoBridgeWithUSB.cpp ****                 float c = g_lateIrFreqRealRight[i];
 529:EchoBridgeWithUSB.cpp ****                 float d = g_lateIrFreqImagRight[i];
 530:EchoBridgeWithUSB.cpp ****                 
 531:EchoBridgeWithUSB.cpp ****                 g_lateFreqReal[i] = a*c - b*d;
 532:EchoBridgeWithUSB.cpp ****                 g_lateFreqImag[i] = a*d + b*c;
 533:EchoBridgeWithUSB.cpp ****             }
 534:EchoBridgeWithUSB.cpp ****             
 535:EchoBridgeWithUSB.cpp ****             // Transform back to time domain
 536:EchoBridgeWithUSB.cpp ****             lateFft.Inverse(g_lateFreqReal, g_lateFreqImag, LATE_FFT_SIZE);
 537:EchoBridgeWithUSB.cpp ****             
 538:EchoBridgeWithUSB.cpp ****             // Overlap-add
 539:EchoBridgeWithUSB.cpp ****             for (size_t i = 0; i < LATE_FFT_SIZE; i++) {
 540:EchoBridgeWithUSB.cpp ****                 g_lateOutputBuffer[i] = g_lateOutputBuffer[i + LATE_FFT_SIZE] + g_lateFreqReal[i];
 541:EchoBridgeWithUSB.cpp ****                 g_lateOutputBufferRight[i] = g_lateOutputBufferRight[i + LATE_FFT_SIZE] + g_lateFre
 542:EchoBridgeWithUSB.cpp ****             }
 543:EchoBridgeWithUSB.cpp ****             
 544:EchoBridgeWithUSB.cpp ****             // Clear the second half of the output buffer
 545:EchoBridgeWithUSB.cpp ****             memset(g_lateOutputBuffer + LATE_FFT_SIZE, 0, LATE_FFT_SIZE * sizeof(float));
 546:EchoBridgeWithUSB.cpp ****             memset(g_lateOutputBufferRight + LATE_FFT_SIZE, 0, LATE_FFT_SIZE * sizeof(float));
 547:EchoBridgeWithUSB.cpp ****         }
 548:EchoBridgeWithUSB.cpp ****         
 549:EchoBridgeWithUSB.cpp ****         // Get output from early and late partitions
 550:EchoBridgeWithUSB.cpp ****         float wetL = earlyOutputBuffer[0] + g_lateOutputBuffer[0];
 551:EchoBridgeWithUSB.cpp ****         float wetR = earlyOutputBufferRight[0] + g_lateOutputBufferRight[0];
 552:EchoBridgeWithUSB.cpp ****         
 553:EchoBridgeWithUSB.cpp ****         // Apply filters
ARM GAS  /tmp/cch2Dr4w.s 			page 12


 554:EchoBridgeWithUSB.cpp ****         lowCutFilterL.Process(wetL);
 555:EchoBridgeWithUSB.cpp ****         float filteredL = lowCutFilterL.High();
 556:EchoBridgeWithUSB.cpp ****         highCutFilterL.Process(filteredL);
 557:EchoBridgeWithUSB.cpp ****         filteredL = highCutFilterL.Low();
 558:EchoBridgeWithUSB.cpp ****         
 559:EchoBridgeWithUSB.cpp ****         lowCutFilterR.Process(wetR);
 560:EchoBridgeWithUSB.cpp ****         float filteredR = lowCutFilterR.High();
 561:EchoBridgeWithUSB.cpp ****         highCutFilterR.Process(filteredR);
 562:EchoBridgeWithUSB.cpp ****         filteredR = highCutFilterR.Low();
 563:EchoBridgeWithUSB.cpp ****         
 564:EchoBridgeWithUSB.cpp ****         // Apply stereo width
 565:EchoBridgeWithUSB.cpp ****         if (stereoWidth != 1.0f) {
 566:EchoBridgeWithUSB.cpp ****             float mid = (filteredL + filteredR) * 0.5f;
 567:EchoBridgeWithUSB.cpp ****             float side = (filteredL - filteredR) * 0.5f * stereoWidth;
 568:EchoBridgeWithUSB.cpp ****             filteredL = mid + side;
 569:EchoBridgeWithUSB.cpp ****             filteredR = mid - side;
 570:EchoBridgeWithUSB.cpp ****         }
 571:EchoBridgeWithUSB.cpp ****         
 572:EchoBridgeWithUSB.cpp ****         // Mix dry and wet signals
 573:EchoBridgeWithUSB.cpp ****         *outL = inL * (1.0f - dryWet) + filteredL * dryWet;
 574:EchoBridgeWithUSB.cpp ****         *outR = inR * (1.0f - dryWet) + filteredR * dryWet;
 575:EchoBridgeWithUSB.cpp ****         
 576:EchoBridgeWithUSB.cpp ****         // Shift output buffers
 577:EchoBridgeWithUSB.cpp ****         for (size_t i = 0; i < EARLY_FFT_SIZE - 1; i++) {
 578:EchoBridgeWithUSB.cpp ****             earlyOutputBuffer[i] = earlyOutputBuffer[i + 1];
 579:EchoBridgeWithUSB.cpp ****             earlyOutputBufferRight[i] = earlyOutputBufferRight[i + 1];
 580:EchoBridgeWithUSB.cpp ****         }
 581:EchoBridgeWithUSB.cpp ****         
 582:EchoBridgeWithUSB.cpp ****         for (size_t i = 0; i < LATE_FFT_SIZE - 1; i++) {
 583:EchoBridgeWithUSB.cpp ****             g_lateOutputBuffer[i] = g_lateOutputBuffer[i + 1];
 584:EchoBridgeWithUSB.cpp ****             g_lateOutputBufferRight[i] = g_lateOutputBufferRight[i + 1];
 585:EchoBridgeWithUSB.cpp ****         }
 586:EchoBridgeWithUSB.cpp ****     }
 587:EchoBridgeWithUSB.cpp **** };
 588:EchoBridgeWithUSB.cpp **** 
 589:EchoBridgeWithUSB.cpp **** // Create the reverb processor
 590:EchoBridgeWithUSB.cpp **** PartitionedConvolutionReverb reverb;
 591:EchoBridgeWithUSB.cpp **** 
 592:EchoBridgeWithUSB.cpp **** // Audio callback
 593:EchoBridgeWithUSB.cpp **** void AudioCallback(AudioHandle::InputBuffer in, AudioHandle::OutputBuffer out, size_t size) {
 594:EchoBridgeWithUSB.cpp ****     // Process each sample
 595:EchoBridgeWithUSB.cpp ****     for (size_t i = 0; i < size; i++) {
 596:EchoBridgeWithUSB.cpp ****         // Get input samples
 597:EchoBridgeWithUSB.cpp ****         float inL = in[0][i];
 598:EchoBridgeWithUSB.cpp ****         float inR = in[1][i];
 599:EchoBridgeWithUSB.cpp ****         
 600:EchoBridgeWithUSB.cpp ****         // Detect stereo input
 601:EchoBridgeWithUSB.cpp ****         if (!isStereoInput && fabs(inL - inR) > 0.01f) {
 602:EchoBridgeWithUSB.cpp ****             isStereoInput = true;
 603:EchoBridgeWithUSB.cpp ****             // No LED indicator for stereo mode in Hothouse pedal (only 2 LEDs available)
 604:EchoBridgeWithUSB.cpp ****         }
 605:EchoBridgeWithUSB.cpp ****         
 606:EchoBridgeWithUSB.cpp ****         // Process
 607:EchoBridgeWithUSB.cpp ****         float outL, outR;
 608:EchoBridgeWithUSB.cpp ****         
 609:EchoBridgeWithUSB.cpp ****         if (bypass) {
 610:EchoBridgeWithUSB.cpp ****             // Bypass mode
ARM GAS  /tmp/cch2Dr4w.s 			page 13


 611:EchoBridgeWithUSB.cpp ****             outL = inL;
 612:EchoBridgeWithUSB.cpp ****             outR = inR;
 613:EchoBridgeWithUSB.cpp ****         } else if (freeze) {
 614:EchoBridgeWithUSB.cpp ****             // Freeze mode - only output reverb tail
 615:EchoBridgeWithUSB.cpp ****             reverb.Process(0.0f, 0.0f, &outL, &outR);
 616:EchoBridgeWithUSB.cpp ****         } else {
 617:EchoBridgeWithUSB.cpp ****             // Normal mode
 618:EchoBridgeWithUSB.cpp ****             reverb.Process(inL, inR, &outL, &outR);
 619:EchoBridgeWithUSB.cpp ****         }
 620:EchoBridgeWithUSB.cpp ****         
 621:EchoBridgeWithUSB.cpp ****         // Output
 622:EchoBridgeWithUSB.cpp ****         out[0][i] = outL;
 623:EchoBridgeWithUSB.cpp ****         out[1][i] = outR;
 624:EchoBridgeWithUSB.cpp ****     }
 625:EchoBridgeWithUSB.cpp **** }
 626:EchoBridgeWithUSB.cpp **** 
 627:EchoBridgeWithUSB.cpp **** // Handle footswitch 1 (freeze) - SWAPPED from original implementation
 628:EchoBridgeWithUSB.cpp **** void HandleFootswitch1(bool pressed) {
 629:EchoBridgeWithUSB.cpp ****     if (pressed) {
 630:EchoBridgeWithUSB.cpp ****         freeze = !freeze;
 631:EchoBridgeWithUSB.cpp ****         led1.Set(freeze ? 1.0f : 0.0f);
 632:EchoBridgeWithUSB.cpp ****     }
 633:EchoBridgeWithUSB.cpp **** }
 634:EchoBridgeWithUSB.cpp **** 
 635:EchoBridgeWithUSB.cpp **** // Handle footswitch 2 (bypass) - SWAPPED from original implementation
 636:EchoBridgeWithUSB.cpp **** void HandleFootswitch2(bool pressed) {
 637:EchoBridgeWithUSB.cpp ****     if (pressed) {
 638:EchoBridgeWithUSB.cpp ****         bypass = !bypass;
 639:EchoBridgeWithUSB.cpp ****         led2.Set(bypass ? 0.0f : 1.0f);
 640:EchoBridgeWithUSB.cpp ****     }
 641:EchoBridgeWithUSB.cpp **** }
 642:EchoBridgeWithUSB.cpp **** 
 643:EchoBridgeWithUSB.cpp **** // Handle footswitch 2 long press (reset parameters) - SWAPPED from original implementation
 644:EchoBridgeWithUSB.cpp **** void HandleFootswitch2LongPress() {
 645:EchoBridgeWithUSB.cpp ****     // Reset parameters
 646:EchoBridgeWithUSB.cpp ****     reverb.SetDryWet(0.5f);
 647:EchoBridgeWithUSB.cpp ****     reverb.SetPredelay(0.0f);
 648:EchoBridgeWithUSB.cpp ****     reverb.SetIRLengthFactor(1.0f);
 649:EchoBridgeWithUSB.cpp ****     reverb.SetLowCut(100.0f);
 650:EchoBridgeWithUSB.cpp ****     reverb.SetHighCut(10000.0f);
 651:EchoBridgeWithUSB.cpp ****     reverb.SetStereoWidth(1.0f);
 652:EchoBridgeWithUSB.cpp **** }
 653:EchoBridgeWithUSB.cpp **** 
 654:EchoBridgeWithUSB.cpp **** // Handle footswitch 1 long press (load IR from USB) - SWAPPED from original implementation
 655:EchoBridgeWithUSB.cpp **** void HandleFootswitch1LongPress() {
 656:EchoBridgeWithUSB.cpp ****     // Set LED1 to blink during IR loading (temporary indicator)
 657:EchoBridgeWithUSB.cpp ****     led1.Set(1.0f);
 658:EchoBridgeWithUSB.cpp ****     
 659:EchoBridgeWithUSB.cpp ****     // Try to load IR from USB
 660:EchoBridgeWithUSB.cpp ****     if (irLoader.LoadIR()) {
 661:EchoBridgeWithUSB.cpp ****         irLoaded = true;
 662:EchoBridgeWithUSB.cpp ****         
 663:EchoBridgeWithUSB.cpp ****         // Blink LED1 rapidly a few times to indicate success
 664:EchoBridgeWithUSB.cpp ****         for (int i = 0; i < 5; i++) {
 665:EchoBridgeWithUSB.cpp ****             led1.Set(0.0f);
 666:EchoBridgeWithUSB.cpp ****             System::Delay(50);
 667:EchoBridgeWithUSB.cpp ****             led1.Set(1.0f);
ARM GAS  /tmp/cch2Dr4w.s 			page 14


 668:EchoBridgeWithUSB.cpp ****             System::Delay(50);
 669:EchoBridgeWithUSB.cpp ****         }
 670:EchoBridgeWithUSB.cpp ****     } else {
 671:EchoBridgeWithUSB.cpp ****         irLoaded = false;
 672:EchoBridgeWithUSB.cpp ****         
 673:EchoBridgeWithUSB.cpp ****         // Blink LED1 slowly a few times to indicate failure
 674:EchoBridgeWithUSB.cpp ****         for (int i = 0; i < 3; i++) {
 675:EchoBridgeWithUSB.cpp ****             led1.Set(0.0f);
 676:EchoBridgeWithUSB.cpp ****             System::Delay(200);
 677:EchoBridgeWithUSB.cpp ****             led1.Set(1.0f);
 678:EchoBridgeWithUSB.cpp ****             System::Delay(200);
 679:EchoBridgeWithUSB.cpp ****         }
 680:EchoBridgeWithUSB.cpp ****     }
 681:EchoBridgeWithUSB.cpp ****     
 682:EchoBridgeWithUSB.cpp ****     // Return LED1 to showing freeze status
 683:EchoBridgeWithUSB.cpp ****     led1.Set(freeze ? 1.0f : 0.0f);
 684:EchoBridgeWithUSB.cpp **** }
 685:EchoBridgeWithUSB.cpp **** 
 686:EchoBridgeWithUSB.cpp **** // Handle knob 1 (dry/wet)
 687:EchoBridgeWithUSB.cpp **** void HandleKnob1(float value) {
  53              		.loc 2 687 31 is_stmt 1 view -0
  54              		.cfi_startproc
  55              		@ args = 0, pretend = 0, frame = 0
  56              		@ frame_needed = 0, uses_anonymous_args = 0
  57              		@ link register save eliminated.
 688:EchoBridgeWithUSB.cpp ****     reverb.SetDryWet(value);
  58              		.loc 2 688 5 view .LVU3
  59              	.LBB271:
  60              	.LBI271:
 337:EchoBridgeWithUSB.cpp ****         dryWet = value;
  61              		.loc 2 337 10 view .LVU4
  62              	.LBB272:
 338:EchoBridgeWithUSB.cpp ****     }
  63              		.loc 2 338 9 view .LVU5
 338:EchoBridgeWithUSB.cpp ****     }
  64              		.loc 2 338 16 is_stmt 0 view .LVU6
  65 0000 014B     		ldr	r3, .L3
  66 0002 83ED870A 		vstr.32	s0, [r3, #540]
  67              	.LVL2:
 338:EchoBridgeWithUSB.cpp ****     }
  68              		.loc 2 338 16 view .LVU7
  69              	.LBE272:
  70              	.LBE271:
 689:EchoBridgeWithUSB.cpp **** }
  71              		.loc 2 689 1 view .LVU8
  72 0006 7047     		bx	lr
  73              	.L4:
  74              		.align	2
  75              	.L3:
  76 0008 00300000 		.word	reverb+12288
  77              		.cfi_endproc
  78              	.LFE5524:
  80              		.section	.text._Z11HandleKnob2f,"ax",%progbits
  81              		.align	1
  82              		.global	_Z11HandleKnob2f
  83              		.syntax unified
  84              		.thumb
ARM GAS  /tmp/cch2Dr4w.s 			page 15


  85              		.thumb_func
  86              		.fpu fpv5-d16
  88              	_Z11HandleKnob2f:
  89              	.LVL3:
  90              	.LFB5525:
 690:EchoBridgeWithUSB.cpp **** 
 691:EchoBridgeWithUSB.cpp **** // Handle knob 2 (predelay)
 692:EchoBridgeWithUSB.cpp **** void HandleKnob2(float value) {
  91              		.loc 2 692 31 is_stmt 1 view -0
  92              		.cfi_startproc
  93              		@ args = 0, pretend = 0, frame = 0
  94              		@ frame_needed = 0, uses_anonymous_args = 0
  95              		@ link register save eliminated.
 693:EchoBridgeWithUSB.cpp ****     // Map 0-1 to 0-500ms
 694:EchoBridgeWithUSB.cpp ****     float predelayMs = value * 500.0f;
  96              		.loc 2 694 5 view .LVU10
  97              		.loc 2 694 11 is_stmt 0 view .LVU11
  98 0000 DFED0D7A 		vldr.32	s15, .L8
  99              	.LBB275:
 100              	.LBB276:
 344:EchoBridgeWithUSB.cpp ****         if (predelayInSamples >= MAX_PREDELAY_SAMPLES) {
 101              		.loc 2 344 27 view .LVU12
 102 0004 45F6BF52 		movw	r2, #23999
 343:EchoBridgeWithUSB.cpp ****         predelayInSamples = (size_t)(predelayMs * sampleRate / 1000.0f);
 103              		.loc 2 343 20 view .LVU13
 104 0008 0C4B     		ldr	r3, .L8+4
 105              	.LBE276:
 106              	.LBE275:
 107              		.loc 2 694 11 view .LVU14
 108 000a 20EE270A 		vmul.f32	s0, s0, s15
 109              	.LVL4:
 695:EchoBridgeWithUSB.cpp ****     reverb.SetPredelay(predelayMs);
 110              		.loc 2 695 5 is_stmt 1 view .LVU15
 111              	.LBB278:
 112              	.LBI275:
 342:EchoBridgeWithUSB.cpp ****         predelayMs = ms;
 113              		.loc 2 342 10 view .LVU16
 114              	.LBB277:
 343:EchoBridgeWithUSB.cpp ****         predelayInSamples = (size_t)(predelayMs * sampleRate / 1000.0f);
 115              		.loc 2 343 9 view .LVU17
 344:EchoBridgeWithUSB.cpp ****         if (predelayInSamples >= MAX_PREDELAY_SAMPLES) {
 116              		.loc 2 344 62 is_stmt 0 view .LVU18
 117 000e 9FED0C7A 		vldr.32	s14, .L8+8
 344:EchoBridgeWithUSB.cpp ****         if (predelayInSamples >= MAX_PREDELAY_SAMPLES) {
 118              		.loc 2 344 49 view .LVU19
 119 0012 D3ED8D7A 		vldr.32	s15, [r3, #564]
 343:EchoBridgeWithUSB.cpp ****         predelayInSamples = (size_t)(predelayMs * sampleRate / 1000.0f);
 120              		.loc 2 343 20 view .LVU20
 121 0016 83ED880A 		vstr.32	s0, [r3, #544]
 344:EchoBridgeWithUSB.cpp ****         if (predelayInSamples >= MAX_PREDELAY_SAMPLES) {
 122              		.loc 2 344 9 is_stmt 1 view .LVU21
 344:EchoBridgeWithUSB.cpp ****         if (predelayInSamples >= MAX_PREDELAY_SAMPLES) {
 123              		.loc 2 344 49 is_stmt 0 view .LVU22
 124 001a 20EE270A 		vmul.f32	s0, s0, s15
 125              	.LVL5:
 344:EchoBridgeWithUSB.cpp ****         if (predelayInSamples >= MAX_PREDELAY_SAMPLES) {
 126              		.loc 2 344 62 view .LVU23
ARM GAS  /tmp/cch2Dr4w.s 			page 16


 127 001e C0EE077A 		vdiv.f32	s15, s0, s14
 344:EchoBridgeWithUSB.cpp ****         if (predelayInSamples >= MAX_PREDELAY_SAMPLES) {
 128              		.loc 2 344 29 view .LVU24
 129 0022 FCEEE77A 		vcvt.u32.f32	s15, s15
 345:EchoBridgeWithUSB.cpp ****             predelayInSamples = MAX_PREDELAY_SAMPLES - 1;
 130              		.loc 2 345 9 is_stmt 1 view .LVU25
 344:EchoBridgeWithUSB.cpp ****         if (predelayInSamples >= MAX_PREDELAY_SAMPLES) {
 131              		.loc 2 344 27 is_stmt 0 view .LVU26
 132 0026 17EE901A 		vmov	r1, s15	@ int
 133 002a 9142     		cmp	r1, r2
 134 002c 94BF     		ite	ls
 135 002e C3F81812 		strls	r1, [r3, #536]
 136 0032 C3F81822 		strhi	r2, [r3, #536]
 137              	.LBE277:
 138              	.LBE278:
 696:EchoBridgeWithUSB.cpp **** }
 139              		.loc 2 696 1 view .LVU27
 140 0036 7047     		bx	lr
 141              	.L9:
 142              		.align	2
 143              	.L8:
 144 0038 0000FA43 		.word	1140457472
 145 003c 00300000 		.word	reverb+12288
 146 0040 00007A44 		.word	1148846080
 147              		.cfi_endproc
 148              	.LFE5525:
 150              		.section	.text._Z11HandleKnob5f,"ax",%progbits
 151              		.align	1
 152              		.global	_Z11HandleKnob5f
 153              		.syntax unified
 154              		.thumb
 155              		.thumb_func
 156              		.fpu fpv5-d16
 158              	_Z11HandleKnob5f:
 159              	.LVL6:
 160              	.LFB5528:
 697:EchoBridgeWithUSB.cpp **** 
 698:EchoBridgeWithUSB.cpp **** // Handle knob 3 (IR length)
 699:EchoBridgeWithUSB.cpp **** void HandleKnob3(float value) {
 700:EchoBridgeWithUSB.cpp ****     reverb.SetIRLengthFactor(value);
 701:EchoBridgeWithUSB.cpp **** }
 702:EchoBridgeWithUSB.cpp **** 
 703:EchoBridgeWithUSB.cpp **** // Handle knob 4 (filter)
 704:EchoBridgeWithUSB.cpp **** void HandleKnob4(float value) {
 705:EchoBridgeWithUSB.cpp ****     if (value < 0.5f) {
 706:EchoBridgeWithUSB.cpp ****         // First half: low cut (20Hz - 1000Hz)
 707:EchoBridgeWithUSB.cpp ****         float lowCutFreq = 20.0f + value * 2.0f * 980.0f;
 708:EchoBridgeWithUSB.cpp ****         reverb.SetLowCut(lowCutFreq);
 709:EchoBridgeWithUSB.cpp ****         reverb.SetHighCut(20000.0f);
 710:EchoBridgeWithUSB.cpp ****     } else {
 711:EchoBridgeWithUSB.cpp ****         // Second half: high cut (20000Hz - 1000Hz)
 712:EchoBridgeWithUSB.cpp ****         float highCutFreq = 20000.0f - (value - 0.5f) * 2.0f * 19000.0f;
 713:EchoBridgeWithUSB.cpp ****         reverb.SetLowCut(20.0f);
 714:EchoBridgeWithUSB.cpp ****         reverb.SetHighCut(highCutFreq);
 715:EchoBridgeWithUSB.cpp ****     }
 716:EchoBridgeWithUSB.cpp **** }
 717:EchoBridgeWithUSB.cpp **** 
ARM GAS  /tmp/cch2Dr4w.s 			page 17


 718:EchoBridgeWithUSB.cpp **** // Handle knob 5 (stereo width)
 719:EchoBridgeWithUSB.cpp **** void HandleKnob5(float value) {
 161              		.loc 2 719 31 is_stmt 1 view -0
 162              		.cfi_startproc
 163              		@ args = 0, pretend = 0, frame = 0
 164              		@ frame_needed = 0, uses_anonymous_args = 0
 165              		@ link register save eliminated.
 720:EchoBridgeWithUSB.cpp ****     // Map 0-1 to 0-2
 721:EchoBridgeWithUSB.cpp ****     float stereoWidth = value * 2.0f;
 166              		.loc 2 721 5 view .LVU29
 722:EchoBridgeWithUSB.cpp ****     reverb.SetStereoWidth(stereoWidth);
 167              		.loc 2 722 5 view .LVU30
 168              	.LBB279:
 169              	.LBI279:
 371:EchoBridgeWithUSB.cpp ****         stereoWidth = width;
 170              		.loc 2 371 10 view .LVU31
 171              	.LBB280:
 372:EchoBridgeWithUSB.cpp ****     }
 172              		.loc 2 372 9 view .LVU32
 173              	.LBE280:
 174              	.LBE279:
 721:EchoBridgeWithUSB.cpp ****     reverb.SetStereoWidth(stereoWidth);
 175              		.loc 2 721 11 is_stmt 0 view .LVU33
 176 0000 30EE000A 		vadd.f32	s0, s0, s0
 177              	.LVL7:
 178              	.LBB282:
 179              	.LBB281:
 372:EchoBridgeWithUSB.cpp ****     }
 180              		.loc 2 372 21 view .LVU34
 181 0004 014B     		ldr	r3, .L11
 182 0006 83ED8C0A 		vstr.32	s0, [r3, #560]
 183              	.LVL8:
 372:EchoBridgeWithUSB.cpp ****     }
 184              		.loc 2 372 21 view .LVU35
 185              	.LBE281:
 186              	.LBE282:
 723:EchoBridgeWithUSB.cpp **** }
 187              		.loc 2 723 1 view .LVU36
 188 000a 7047     		bx	lr
 189              	.L12:
 190              		.align	2
 191              	.L11:
 192 000c 00300000 		.word	reverb+12288
 193              		.cfi_endproc
 194              	.LFE5528:
 196              		.section	.text._Z11HandleKnob6f,"ax",%progbits
 197              		.align	1
 198              		.global	_Z11HandleKnob6f
 199              		.syntax unified
 200              		.thumb
 201              		.thumb_func
 202              		.fpu fpv5-d16
 204              	_Z11HandleKnob6f:
 205              	.LVL9:
 206              	.LFB5529:
 724:EchoBridgeWithUSB.cpp **** 
 725:EchoBridgeWithUSB.cpp **** // Handle knob 6 (custom parameter)
ARM GAS  /tmp/cch2Dr4w.s 			page 18


 726:EchoBridgeWithUSB.cpp **** void HandleKnob6(float value) {
 207              		.loc 2 726 31 is_stmt 1 view -0
 208              		.cfi_startproc
 209              		@ args = 0, pretend = 0, frame = 0
 210              		@ frame_needed = 0, uses_anonymous_args = 0
 211              		@ link register save eliminated.
 727:EchoBridgeWithUSB.cpp ****     // Custom parameter - not used yet
 728:EchoBridgeWithUSB.cpp **** }
 212              		.loc 2 728 1 is_stmt 0 view .LVU38
 213 0000 7047     		bx	lr
 214              		.cfi_endproc
 215              	.LFE5529:
 217              		.section	.text._ZN16clevelandmusicco8HothouseD2Ev,"axG",%progbits,_ZN16clevelandmusicco8HothouseD5
 218              		.align	1
 219              		.weak	_ZN16clevelandmusicco8HothouseD2Ev
 220              		.syntax unified
 221              		.thumb
 222              		.thumb_func
 223              		.fpu fpv5-d16
 225              	_ZN16clevelandmusicco8HothouseD2Ev:
 226              	.LVL10:
 227              	.LFB6140:
 228              		.file 3 "hothouse.h"
   1:hothouse.h    **** #pragma once
   2:hothouse.h    **** 
   3:hothouse.h    **** #include "daisy_seed.h"
   4:hothouse.h    **** #include "dev/oled_ssd130x.h"
   5:hothouse.h    **** #include "hid/encoder.h"
   6:hothouse.h    **** #include "hid/switch.h"
   7:hothouse.h    **** 
   8:hothouse.h    **** namespace clevelandmusicco {
   9:hothouse.h    **** 
  10:hothouse.h    **** class Hothouse {
 229              		.loc 3 10 7 is_stmt 1 view -0
 230              		.cfi_startproc
 231              		@ args = 0, pretend = 0, frame = 0
 232              		@ frame_needed = 0, uses_anonymous_args = 0
 233              		@ link register save eliminated.
 234              	.LBB283:
 235              	.LBI283:
 236              		.file 4 "/home/ubuntu/DaisyExamples/libDaisy/src/daisy_seed.h"
   1:/home/ubuntu/DaisyExamples/libDaisy/src/daisy_seed.h **** #pragma once
   2:/home/ubuntu/DaisyExamples/libDaisy/src/daisy_seed.h **** #ifndef DSY_SEED_H
   3:/home/ubuntu/DaisyExamples/libDaisy/src/daisy_seed.h **** #define DSY_SEED_H
   4:/home/ubuntu/DaisyExamples/libDaisy/src/daisy_seed.h **** 
   5:/home/ubuntu/DaisyExamples/libDaisy/src/daisy_seed.h **** #include "daisy.h"
   6:/home/ubuntu/DaisyExamples/libDaisy/src/daisy_seed.h **** 
   7:/home/ubuntu/DaisyExamples/libDaisy/src/daisy_seed.h **** //Uncomment this out if you're still using the rev2 hardware
   8:/home/ubuntu/DaisyExamples/libDaisy/src/daisy_seed.h **** //#define SEED_REV2
   9:/home/ubuntu/DaisyExamples/libDaisy/src/daisy_seed.h **** 
  10:/home/ubuntu/DaisyExamples/libDaisy/src/daisy_seed.h **** namespace daisy
  11:/home/ubuntu/DaisyExamples/libDaisy/src/daisy_seed.h **** {
  12:/home/ubuntu/DaisyExamples/libDaisy/src/daisy_seed.h **** /**
  13:/home/ubuntu/DaisyExamples/libDaisy/src/daisy_seed.h ****    @brief This is the higher-level interface for the Daisy board. \n 
  14:/home/ubuntu/DaisyExamples/libDaisy/src/daisy_seed.h ****     All basic peripheral configuration/initialization is setup here. \n
  15:/home/ubuntu/DaisyExamples/libDaisy/src/daisy_seed.h **** 
  16:/home/ubuntu/DaisyExamples/libDaisy/src/daisy_seed.h ****    @ingroup boards
ARM GAS  /tmp/cch2Dr4w.s 			page 19


  17:/home/ubuntu/DaisyExamples/libDaisy/src/daisy_seed.h **** */
  18:/home/ubuntu/DaisyExamples/libDaisy/src/daisy_seed.h **** class DaisySeed
  19:/home/ubuntu/DaisyExamples/libDaisy/src/daisy_seed.h **** {
  20:/home/ubuntu/DaisyExamples/libDaisy/src/daisy_seed.h ****   public:
  21:/home/ubuntu/DaisyExamples/libDaisy/src/daisy_seed.h ****     DaisySeed() {}
  22:/home/ubuntu/DaisyExamples/libDaisy/src/daisy_seed.h ****     ~DaisySeed() {}
 237              		.loc 4 22 5 view .LVU40
 238              	.LBB284:
 239              	.LBI284:
 240              		.file 5 "/home/ubuntu/DaisyExamples/libDaisy/src/sys/system.h"
   1:/home/ubuntu/DaisyExamples/libDaisy/src/sys/system.h **** #ifndef DSY_SYSTEM_H
   2:/home/ubuntu/DaisyExamples/libDaisy/src/sys/system.h **** #define DSY_SYSTEM_H
   3:/home/ubuntu/DaisyExamples/libDaisy/src/sys/system.h **** 
   4:/home/ubuntu/DaisyExamples/libDaisy/src/sys/system.h **** #ifndef UNIT_TEST // for unit tests, a dummy implementation is provided below
   5:/home/ubuntu/DaisyExamples/libDaisy/src/sys/system.h **** 
   6:/home/ubuntu/DaisyExamples/libDaisy/src/sys/system.h **** #include <cstdint>
   7:/home/ubuntu/DaisyExamples/libDaisy/src/sys/system.h **** #include "per/tim.h"
   8:/home/ubuntu/DaisyExamples/libDaisy/src/sys/system.h **** 
   9:/home/ubuntu/DaisyExamples/libDaisy/src/sys/system.h **** namespace daisy
  10:/home/ubuntu/DaisyExamples/libDaisy/src/sys/system.h **** {
  11:/home/ubuntu/DaisyExamples/libDaisy/src/sys/system.h **** /** A handle for interacting with the Core System.
  12:/home/ubuntu/DaisyExamples/libDaisy/src/sys/system.h ****  ** This includes the Clock tree, MPU, global DMA initialization,
  13:/home/ubuntu/DaisyExamples/libDaisy/src/sys/system.h ****  ** cache handling, and any other necessary global initiailzation
  14:/home/ubuntu/DaisyExamples/libDaisy/src/sys/system.h ****  **
  15:/home/ubuntu/DaisyExamples/libDaisy/src/sys/system.h ****  ** @author shensley
  16:/home/ubuntu/DaisyExamples/libDaisy/src/sys/system.h ****  ** @ingroup system
  17:/home/ubuntu/DaisyExamples/libDaisy/src/sys/system.h ****  */
  18:/home/ubuntu/DaisyExamples/libDaisy/src/sys/system.h **** class System
  19:/home/ubuntu/DaisyExamples/libDaisy/src/sys/system.h **** {
  20:/home/ubuntu/DaisyExamples/libDaisy/src/sys/system.h ****   public:
  21:/home/ubuntu/DaisyExamples/libDaisy/src/sys/system.h ****     /** Contains settings for initializing the System */
  22:/home/ubuntu/DaisyExamples/libDaisy/src/sys/system.h ****     struct Config
  23:/home/ubuntu/DaisyExamples/libDaisy/src/sys/system.h ****     {
  24:/home/ubuntu/DaisyExamples/libDaisy/src/sys/system.h ****         /** Specifies the system clock frequency that feeds APB/AHB clocks, etc. */
  25:/home/ubuntu/DaisyExamples/libDaisy/src/sys/system.h ****         enum class SysClkFreq
  26:/home/ubuntu/DaisyExamples/libDaisy/src/sys/system.h ****         {
  27:/home/ubuntu/DaisyExamples/libDaisy/src/sys/system.h ****             FREQ_400MHZ,
  28:/home/ubuntu/DaisyExamples/libDaisy/src/sys/system.h ****             FREQ_480MHZ,
  29:/home/ubuntu/DaisyExamples/libDaisy/src/sys/system.h ****         };
  30:/home/ubuntu/DaisyExamples/libDaisy/src/sys/system.h **** 
  31:/home/ubuntu/DaisyExamples/libDaisy/src/sys/system.h ****         /** Method to call on the struct to set to defaults
  32:/home/ubuntu/DaisyExamples/libDaisy/src/sys/system.h ****          ** CPU Freq set to 400MHz
  33:/home/ubuntu/DaisyExamples/libDaisy/src/sys/system.h ****          ** Cache Enabled
  34:/home/ubuntu/DaisyExamples/libDaisy/src/sys/system.h ****          ** */
  35:/home/ubuntu/DaisyExamples/libDaisy/src/sys/system.h ****         void Defaults()
  36:/home/ubuntu/DaisyExamples/libDaisy/src/sys/system.h ****         {
  37:/home/ubuntu/DaisyExamples/libDaisy/src/sys/system.h ****             cpu_freq    = SysClkFreq::FREQ_400MHZ;
  38:/home/ubuntu/DaisyExamples/libDaisy/src/sys/system.h ****             use_dcache  = true;
  39:/home/ubuntu/DaisyExamples/libDaisy/src/sys/system.h ****             use_icache  = true;
  40:/home/ubuntu/DaisyExamples/libDaisy/src/sys/system.h ****             skip_clocks = false;
  41:/home/ubuntu/DaisyExamples/libDaisy/src/sys/system.h ****         }
  42:/home/ubuntu/DaisyExamples/libDaisy/src/sys/system.h **** 
  43:/home/ubuntu/DaisyExamples/libDaisy/src/sys/system.h ****         /** Method to call on the struct to set to boost mode:
  44:/home/ubuntu/DaisyExamples/libDaisy/src/sys/system.h ****          ** CPU Freq set to 480MHz
  45:/home/ubuntu/DaisyExamples/libDaisy/src/sys/system.h ****          ** Cache Enabled
  46:/home/ubuntu/DaisyExamples/libDaisy/src/sys/system.h ****          ** */
  47:/home/ubuntu/DaisyExamples/libDaisy/src/sys/system.h ****         void Boost()
ARM GAS  /tmp/cch2Dr4w.s 			page 20


  48:/home/ubuntu/DaisyExamples/libDaisy/src/sys/system.h ****         {
  49:/home/ubuntu/DaisyExamples/libDaisy/src/sys/system.h ****             cpu_freq    = SysClkFreq::FREQ_480MHZ;
  50:/home/ubuntu/DaisyExamples/libDaisy/src/sys/system.h ****             use_dcache  = true;
  51:/home/ubuntu/DaisyExamples/libDaisy/src/sys/system.h ****             use_icache  = true;
  52:/home/ubuntu/DaisyExamples/libDaisy/src/sys/system.h ****             skip_clocks = false;
  53:/home/ubuntu/DaisyExamples/libDaisy/src/sys/system.h ****         }
  54:/home/ubuntu/DaisyExamples/libDaisy/src/sys/system.h **** 
  55:/home/ubuntu/DaisyExamples/libDaisy/src/sys/system.h ****         SysClkFreq cpu_freq;
  56:/home/ubuntu/DaisyExamples/libDaisy/src/sys/system.h ****         bool       use_dcache;
  57:/home/ubuntu/DaisyExamples/libDaisy/src/sys/system.h ****         bool       use_icache;
  58:/home/ubuntu/DaisyExamples/libDaisy/src/sys/system.h ****         bool       skip_clocks;
  59:/home/ubuntu/DaisyExamples/libDaisy/src/sys/system.h ****     };
  60:/home/ubuntu/DaisyExamples/libDaisy/src/sys/system.h **** 
  61:/home/ubuntu/DaisyExamples/libDaisy/src/sys/system.h ****     /** Describes the different regions of memory available to the Daisy */
  62:/home/ubuntu/DaisyExamples/libDaisy/src/sys/system.h ****     enum MemoryRegion
  63:/home/ubuntu/DaisyExamples/libDaisy/src/sys/system.h ****     {
  64:/home/ubuntu/DaisyExamples/libDaisy/src/sys/system.h ****         INTERNAL_FLASH = 0,
  65:/home/ubuntu/DaisyExamples/libDaisy/src/sys/system.h ****         ITCMRAM,
  66:/home/ubuntu/DaisyExamples/libDaisy/src/sys/system.h ****         DTCMRAM,
  67:/home/ubuntu/DaisyExamples/libDaisy/src/sys/system.h ****         SRAM_D1,
  68:/home/ubuntu/DaisyExamples/libDaisy/src/sys/system.h ****         SRAM_D2,
  69:/home/ubuntu/DaisyExamples/libDaisy/src/sys/system.h ****         SRAM_D3,
  70:/home/ubuntu/DaisyExamples/libDaisy/src/sys/system.h ****         SDRAM,
  71:/home/ubuntu/DaisyExamples/libDaisy/src/sys/system.h ****         QSPI,
  72:/home/ubuntu/DaisyExamples/libDaisy/src/sys/system.h ****         INVALID_ADDRESS,
  73:/home/ubuntu/DaisyExamples/libDaisy/src/sys/system.h ****     };
  74:/home/ubuntu/DaisyExamples/libDaisy/src/sys/system.h **** 
  75:/home/ubuntu/DaisyExamples/libDaisy/src/sys/system.h ****     /** Bootloader struct for controlling bootloading parameters */
  76:/home/ubuntu/DaisyExamples/libDaisy/src/sys/system.h ****     struct BootInfo
  77:/home/ubuntu/DaisyExamples/libDaisy/src/sys/system.h ****     {
  78:/home/ubuntu/DaisyExamples/libDaisy/src/sys/system.h ****         enum class Type : uint32_t
  79:/home/ubuntu/DaisyExamples/libDaisy/src/sys/system.h ****         {
  80:/home/ubuntu/DaisyExamples/libDaisy/src/sys/system.h ****             INVALID      = 0x00000000,
  81:/home/ubuntu/DaisyExamples/libDaisy/src/sys/system.h ****             JUMP         = 0xDEADBEEF,
  82:/home/ubuntu/DaisyExamples/libDaisy/src/sys/system.h ****             SKIP_TIMEOUT = 0x5AFEB007,
  83:/home/ubuntu/DaisyExamples/libDaisy/src/sys/system.h ****             INF_TIMEOUT  = 0xB0074EFA,
  84:/home/ubuntu/DaisyExamples/libDaisy/src/sys/system.h ****         } status;
  85:/home/ubuntu/DaisyExamples/libDaisy/src/sys/system.h ****         uint32_t data;
  86:/home/ubuntu/DaisyExamples/libDaisy/src/sys/system.h ****         enum class Version : uint32_t
  87:/home/ubuntu/DaisyExamples/libDaisy/src/sys/system.h ****         {
  88:/home/ubuntu/DaisyExamples/libDaisy/src/sys/system.h ****             LT_v6_0 = 0, // Less than v6.0
  89:/home/ubuntu/DaisyExamples/libDaisy/src/sys/system.h ****             NONE,        // No bootloader present
  90:/home/ubuntu/DaisyExamples/libDaisy/src/sys/system.h ****             v6_0,        // v6.0
  91:/home/ubuntu/DaisyExamples/libDaisy/src/sys/system.h ****             v6_1,        // v6.1 or greater
  92:/home/ubuntu/DaisyExamples/libDaisy/src/sys/system.h ****             LAST
  93:/home/ubuntu/DaisyExamples/libDaisy/src/sys/system.h ****         } version;
  94:/home/ubuntu/DaisyExamples/libDaisy/src/sys/system.h ****     };
  95:/home/ubuntu/DaisyExamples/libDaisy/src/sys/system.h **** 
  96:/home/ubuntu/DaisyExamples/libDaisy/src/sys/system.h ****     System() {}
  97:/home/ubuntu/DaisyExamples/libDaisy/src/sys/system.h ****     ~System() {}
 241              		.loc 5 97 5 view .LVU41
 242              		.loc 5 97 5 is_stmt 0 view .LVU42
 243              	.LBE284:
 244              	.LBB285:
 245              	.LBI285:
 246              		.file 6 "/home/ubuntu/DaisyExamples/libDaisy/src/hid/usb.h"
   1:/home/ubuntu/DaisyExamples/libDaisy/src/hid/usb.h **** #pragma once
ARM GAS  /tmp/cch2Dr4w.s 			page 21


   2:/home/ubuntu/DaisyExamples/libDaisy/src/hid/usb.h **** #ifndef DSY_HID_USB_H
   3:/home/ubuntu/DaisyExamples/libDaisy/src/hid/usb.h **** #define DSY_HID_USB_H
   4:/home/ubuntu/DaisyExamples/libDaisy/src/hid/usb.h **** #include <stdint.h>
   5:/home/ubuntu/DaisyExamples/libDaisy/src/hid/usb.h **** #include <stdlib.h>
   6:/home/ubuntu/DaisyExamples/libDaisy/src/hid/usb.h **** 
   7:/home/ubuntu/DaisyExamples/libDaisy/src/hid/usb.h **** namespace daisy
   8:/home/ubuntu/DaisyExamples/libDaisy/src/hid/usb.h **** /** @addtogroup human_interface
   9:/home/ubuntu/DaisyExamples/libDaisy/src/hid/usb.h ****     @{
  10:/home/ubuntu/DaisyExamples/libDaisy/src/hid/usb.h **** */
  11:/home/ubuntu/DaisyExamples/libDaisy/src/hid/usb.h **** 
  12:/home/ubuntu/DaisyExamples/libDaisy/src/hid/usb.h **** {
  13:/home/ubuntu/DaisyExamples/libDaisy/src/hid/usb.h **** /** 
  14:/home/ubuntu/DaisyExamples/libDaisy/src/hid/usb.h ****     @brief Interface for initializing and using the USB Peripherals on the daisy
  15:/home/ubuntu/DaisyExamples/libDaisy/src/hid/usb.h ****     @author Stephen Hensley
  16:/home/ubuntu/DaisyExamples/libDaisy/src/hid/usb.h ****     @date December 2019
  17:/home/ubuntu/DaisyExamples/libDaisy/src/hid/usb.h **** */
  18:/home/ubuntu/DaisyExamples/libDaisy/src/hid/usb.h **** class UsbHandle
  19:/home/ubuntu/DaisyExamples/libDaisy/src/hid/usb.h **** {
  20:/home/ubuntu/DaisyExamples/libDaisy/src/hid/usb.h ****   public:
  21:/home/ubuntu/DaisyExamples/libDaisy/src/hid/usb.h ****     /** Return values for USBHandle Functions */
  22:/home/ubuntu/DaisyExamples/libDaisy/src/hid/usb.h ****     enum class Result
  23:/home/ubuntu/DaisyExamples/libDaisy/src/hid/usb.h ****     {
  24:/home/ubuntu/DaisyExamples/libDaisy/src/hid/usb.h ****         OK,
  25:/home/ubuntu/DaisyExamples/libDaisy/src/hid/usb.h ****         ERR,
  26:/home/ubuntu/DaisyExamples/libDaisy/src/hid/usb.h ****     };
  27:/home/ubuntu/DaisyExamples/libDaisy/src/hid/usb.h **** 
  28:/home/ubuntu/DaisyExamples/libDaisy/src/hid/usb.h ****     /** Specified which of the two USB Peripherals to initialize. */
  29:/home/ubuntu/DaisyExamples/libDaisy/src/hid/usb.h ****     enum UsbPeriph
  30:/home/ubuntu/DaisyExamples/libDaisy/src/hid/usb.h ****     {
  31:/home/ubuntu/DaisyExamples/libDaisy/src/hid/usb.h ****         FS_INTERNAL, /**< Internal pin */
  32:/home/ubuntu/DaisyExamples/libDaisy/src/hid/usb.h ****         FS_EXTERNAL, /**< FS External D+ pin is Pin 38 (GPIO32). FS External D- pin is Pin 37 (GPIO
  33:/home/ubuntu/DaisyExamples/libDaisy/src/hid/usb.h ****         FS_BOTH,     /**< Both */
  34:/home/ubuntu/DaisyExamples/libDaisy/src/hid/usb.h ****     };
  35:/home/ubuntu/DaisyExamples/libDaisy/src/hid/usb.h **** 
  36:/home/ubuntu/DaisyExamples/libDaisy/src/hid/usb.h **** 
  37:/home/ubuntu/DaisyExamples/libDaisy/src/hid/usb.h ****     /** Function called upon reception of a buffer */
  38:/home/ubuntu/DaisyExamples/libDaisy/src/hid/usb.h ****     typedef void (*ReceiveCallback)(uint8_t* buff, uint32_t* len);
  39:/home/ubuntu/DaisyExamples/libDaisy/src/hid/usb.h **** 
  40:/home/ubuntu/DaisyExamples/libDaisy/src/hid/usb.h ****     UsbHandle() {}
  41:/home/ubuntu/DaisyExamples/libDaisy/src/hid/usb.h **** 
  42:/home/ubuntu/DaisyExamples/libDaisy/src/hid/usb.h ****     ~UsbHandle() {}
 247              		.loc 6 42 5 is_stmt 1 view .LVU43
 248              		.loc 6 42 5 is_stmt 0 view .LVU44
 249              	.LBE285:
 250              	.LBB286:
 251              	.LBI286:
 252              		.file 7 "/home/ubuntu/DaisyExamples/libDaisy/src/per/adc.h"
   1:/home/ubuntu/DaisyExamples/libDaisy/src/per/adc.h **** #pragma once
   2:/home/ubuntu/DaisyExamples/libDaisy/src/per/adc.h **** #ifndef DSY_ADC_H
   3:/home/ubuntu/DaisyExamples/libDaisy/src/per/adc.h **** #define DSY_ADC_H /**< Macro */
   4:/home/ubuntu/DaisyExamples/libDaisy/src/per/adc.h **** #include <stdint.h>
   5:/home/ubuntu/DaisyExamples/libDaisy/src/per/adc.h **** #include <stdlib.h>
   6:/home/ubuntu/DaisyExamples/libDaisy/src/per/adc.h **** #include "daisy_core.h"
   7:/home/ubuntu/DaisyExamples/libDaisy/src/per/adc.h **** #include "per/gpio.h"
   8:/home/ubuntu/DaisyExamples/libDaisy/src/per/adc.h **** 
   9:/home/ubuntu/DaisyExamples/libDaisy/src/per/adc.h **** #define DSY_ADC_MAX_CHANNELS 16 /**< Maximum number of ADC channels */
  10:/home/ubuntu/DaisyExamples/libDaisy/src/per/adc.h **** 
ARM GAS  /tmp/cch2Dr4w.s 			page 22


  11:/home/ubuntu/DaisyExamples/libDaisy/src/per/adc.h **** namespace daisy
  12:/home/ubuntu/DaisyExamples/libDaisy/src/per/adc.h **** {
  13:/home/ubuntu/DaisyExamples/libDaisy/src/per/adc.h **** /** @addtogroup per_analog
  14:/home/ubuntu/DaisyExamples/libDaisy/src/per/adc.h ****     @{
  15:/home/ubuntu/DaisyExamples/libDaisy/src/per/adc.h **** */
  16:/home/ubuntu/DaisyExamples/libDaisy/src/per/adc.h **** 
  17:/home/ubuntu/DaisyExamples/libDaisy/src/per/adc.h **** /* While there may not be many configuration options here,
  18:/home/ubuntu/DaisyExamples/libDaisy/src/per/adc.h **** using a struct like this allows us to add more configuration
  19:/home/ubuntu/DaisyExamples/libDaisy/src/per/adc.h **** later without breaking existing functionality.
  20:/home/ubuntu/DaisyExamples/libDaisy/src/per/adc.h **** */
  21:/home/ubuntu/DaisyExamples/libDaisy/src/per/adc.h **** 
  22:/home/ubuntu/DaisyExamples/libDaisy/src/per/adc.h **** /** @brief   Configuration Structure for an ADC Channel 
  23:/home/ubuntu/DaisyExamples/libDaisy/src/per/adc.h ****  *  @details This can be used to configure a a single input, 
  24:/home/ubuntu/DaisyExamples/libDaisy/src/per/adc.h ****  *           or a multiplexed input, allowing up to 8 inputs on 
  25:/home/ubuntu/DaisyExamples/libDaisy/src/per/adc.h ****  *           one channel.
  26:/home/ubuntu/DaisyExamples/libDaisy/src/per/adc.h ****  *  @note    Sharing data lines to multiple muxes _is_ possible, but
  27:/home/ubuntu/DaisyExamples/libDaisy/src/per/adc.h ****  *           each channel sharing data lines must be set to the maximum
  28:/home/ubuntu/DaisyExamples/libDaisy/src/per/adc.h ****  *           number of channels, even if some multiplexers have fewer
  29:/home/ubuntu/DaisyExamples/libDaisy/src/per/adc.h ****  *           inputs connected.
  30:/home/ubuntu/DaisyExamples/libDaisy/src/per/adc.h **** */
  31:/home/ubuntu/DaisyExamples/libDaisy/src/per/adc.h **** struct AdcChannelConfig
  32:/home/ubuntu/DaisyExamples/libDaisy/src/per/adc.h **** {
  33:/home/ubuntu/DaisyExamples/libDaisy/src/per/adc.h ****     /** Which pin to use for multiplexing */
  34:/home/ubuntu/DaisyExamples/libDaisy/src/per/adc.h ****     enum MuxPin
  35:/home/ubuntu/DaisyExamples/libDaisy/src/per/adc.h ****     {
  36:/home/ubuntu/DaisyExamples/libDaisy/src/per/adc.h ****         MUX_SEL_0,    /**< & */
  37:/home/ubuntu/DaisyExamples/libDaisy/src/per/adc.h ****         MUX_SEL_1,    /**< & */
  38:/home/ubuntu/DaisyExamples/libDaisy/src/per/adc.h ****         MUX_SEL_2,    /**< & */
  39:/home/ubuntu/DaisyExamples/libDaisy/src/per/adc.h ****         MUX_SEL_LAST, /**< & */
  40:/home/ubuntu/DaisyExamples/libDaisy/src/per/adc.h ****     };
  41:/home/ubuntu/DaisyExamples/libDaisy/src/per/adc.h **** 
  42:/home/ubuntu/DaisyExamples/libDaisy/src/per/adc.h ****     /** \brief per channel conversion speed added to fixed time based on bitdepth, etc. */
  43:/home/ubuntu/DaisyExamples/libDaisy/src/per/adc.h ****     enum ConversionSpeed
  44:/home/ubuntu/DaisyExamples/libDaisy/src/per/adc.h ****     {
  45:/home/ubuntu/DaisyExamples/libDaisy/src/per/adc.h ****         SPEED_1CYCLES_5,
  46:/home/ubuntu/DaisyExamples/libDaisy/src/per/adc.h ****         SPEED_2CYCLES_5,
  47:/home/ubuntu/DaisyExamples/libDaisy/src/per/adc.h ****         SPEED_8CYCLES_5,
  48:/home/ubuntu/DaisyExamples/libDaisy/src/per/adc.h ****         SPEED_16CYCLES_5,
  49:/home/ubuntu/DaisyExamples/libDaisy/src/per/adc.h ****         SPEED_32CYCLES_5,
  50:/home/ubuntu/DaisyExamples/libDaisy/src/per/adc.h ****         SPEED_64CYCLES_5,
  51:/home/ubuntu/DaisyExamples/libDaisy/src/per/adc.h ****         SPEED_387CYCLES_5,
  52:/home/ubuntu/DaisyExamples/libDaisy/src/per/adc.h ****         SPEED_810CYCLES_5,
  53:/home/ubuntu/DaisyExamples/libDaisy/src/per/adc.h ****     };
  54:/home/ubuntu/DaisyExamples/libDaisy/src/per/adc.h **** 
  55:/home/ubuntu/DaisyExamples/libDaisy/src/per/adc.h ****     /** Initializes a single ADC pin as an ADC. 
  56:/home/ubuntu/DaisyExamples/libDaisy/src/per/adc.h ****     \param pin Pin to init.
  57:/home/ubuntu/DaisyExamples/libDaisy/src/per/adc.h ****     \param speed conversion speed for this pin defaults to 8.5 cycles
  58:/home/ubuntu/DaisyExamples/libDaisy/src/per/adc.h ****      */
  59:/home/ubuntu/DaisyExamples/libDaisy/src/per/adc.h ****     void InitSingle(dsy_gpio_pin pin, ConversionSpeed speed = SPEED_8CYCLES_5);
  60:/home/ubuntu/DaisyExamples/libDaisy/src/per/adc.h **** 
  61:/home/ubuntu/DaisyExamples/libDaisy/src/per/adc.h ****     /** 
  62:/home/ubuntu/DaisyExamples/libDaisy/src/per/adc.h ****     Initializes a single ADC pin as a Multiplexed ADC.
  63:/home/ubuntu/DaisyExamples/libDaisy/src/per/adc.h ****     Requires a CD405X Multiplexer connected to the pin.
  64:/home/ubuntu/DaisyExamples/libDaisy/src/per/adc.h ****     You only need to supply the mux pins that are required,
  65:/home/ubuntu/DaisyExamples/libDaisy/src/per/adc.h ****     e.g. a 4052 mux would only require mux_0 and mux_1.
  66:/home/ubuntu/DaisyExamples/libDaisy/src/per/adc.h ****     Internal Callbacks handle the pin addressing.
  67:/home/ubuntu/DaisyExamples/libDaisy/src/per/adc.h ****     \param adc_pin &
ARM GAS  /tmp/cch2Dr4w.s 			page 23


  68:/home/ubuntu/DaisyExamples/libDaisy/src/per/adc.h ****     \param mux_channels must be 1-8
  69:/home/ubuntu/DaisyExamples/libDaisy/src/per/adc.h ****     \param mux_0 First mux pin
  70:/home/ubuntu/DaisyExamples/libDaisy/src/per/adc.h ****     \param mux_1 Second mux pin
  71:/home/ubuntu/DaisyExamples/libDaisy/src/per/adc.h ****     \param mux_2 Third mux pin
  72:/home/ubuntu/DaisyExamples/libDaisy/src/per/adc.h ****     \param speed conversion speed for this pin defaults to 8.5 cycles
  73:/home/ubuntu/DaisyExamples/libDaisy/src/per/adc.h ****     */
  74:/home/ubuntu/DaisyExamples/libDaisy/src/per/adc.h ****     void InitMux(dsy_gpio_pin    adc_pin,
  75:/home/ubuntu/DaisyExamples/libDaisy/src/per/adc.h ****                  size_t          mux_channels,
  76:/home/ubuntu/DaisyExamples/libDaisy/src/per/adc.h ****                  dsy_gpio_pin    mux_0,
  77:/home/ubuntu/DaisyExamples/libDaisy/src/per/adc.h ****                  dsy_gpio_pin    mux_1 = {DSY_GPIOX, 0},
  78:/home/ubuntu/DaisyExamples/libDaisy/src/per/adc.h ****                  dsy_gpio_pin    mux_2 = {DSY_GPIOX, 0},
  79:/home/ubuntu/DaisyExamples/libDaisy/src/per/adc.h ****                  ConversionSpeed speed = SPEED_8CYCLES_5);
  80:/home/ubuntu/DaisyExamples/libDaisy/src/per/adc.h **** 
  81:/home/ubuntu/DaisyExamples/libDaisy/src/per/adc.h ****     dsy_gpio        pin_;                   /**< & */
  82:/home/ubuntu/DaisyExamples/libDaisy/src/per/adc.h ****     dsy_gpio        mux_pin_[MUX_SEL_LAST]; /**< & */
  83:/home/ubuntu/DaisyExamples/libDaisy/src/per/adc.h ****     uint8_t         mux_channels_;          /**< & */
  84:/home/ubuntu/DaisyExamples/libDaisy/src/per/adc.h ****     ConversionSpeed speed_;
  85:/home/ubuntu/DaisyExamples/libDaisy/src/per/adc.h **** };
  86:/home/ubuntu/DaisyExamples/libDaisy/src/per/adc.h **** 
  87:/home/ubuntu/DaisyExamples/libDaisy/src/per/adc.h **** /**
  88:/home/ubuntu/DaisyExamples/libDaisy/src/per/adc.h ****    @brief Handler for analog to digital conversion
  89:/home/ubuntu/DaisyExamples/libDaisy/src/per/adc.h **** */
  90:/home/ubuntu/DaisyExamples/libDaisy/src/per/adc.h **** class AdcHandle
  91:/home/ubuntu/DaisyExamples/libDaisy/src/per/adc.h **** {
  92:/home/ubuntu/DaisyExamples/libDaisy/src/per/adc.h ****   public:
  93:/home/ubuntu/DaisyExamples/libDaisy/src/per/adc.h ****     /** Supported oversampling amounts */
  94:/home/ubuntu/DaisyExamples/libDaisy/src/per/adc.h ****     enum OverSampling
  95:/home/ubuntu/DaisyExamples/libDaisy/src/per/adc.h ****     {
  96:/home/ubuntu/DaisyExamples/libDaisy/src/per/adc.h ****         OVS_NONE, /**< & */
  97:/home/ubuntu/DaisyExamples/libDaisy/src/per/adc.h ****         OVS_4,    /**< & */
  98:/home/ubuntu/DaisyExamples/libDaisy/src/per/adc.h ****         OVS_8,    /**< & */
  99:/home/ubuntu/DaisyExamples/libDaisy/src/per/adc.h ****         OVS_16,   /**< & */
 100:/home/ubuntu/DaisyExamples/libDaisy/src/per/adc.h ****         OVS_32,   /**< & */
 101:/home/ubuntu/DaisyExamples/libDaisy/src/per/adc.h ****         OVS_64,   /**< & */
 102:/home/ubuntu/DaisyExamples/libDaisy/src/per/adc.h ****         OVS_128,  /**< & */
 103:/home/ubuntu/DaisyExamples/libDaisy/src/per/adc.h ****         OVS_256,  /**< & */
 104:/home/ubuntu/DaisyExamples/libDaisy/src/per/adc.h ****         OVS_512,  /**< & */
 105:/home/ubuntu/DaisyExamples/libDaisy/src/per/adc.h ****         OVS_1024, /**< & */
 106:/home/ubuntu/DaisyExamples/libDaisy/src/per/adc.h ****         OVS_LAST, /**< & */
 107:/home/ubuntu/DaisyExamples/libDaisy/src/per/adc.h ****     };
 108:/home/ubuntu/DaisyExamples/libDaisy/src/per/adc.h **** 
 109:/home/ubuntu/DaisyExamples/libDaisy/src/per/adc.h ****     AdcHandle() {}
 110:/home/ubuntu/DaisyExamples/libDaisy/src/per/adc.h ****     ~AdcHandle() {}
 253              		.loc 7 110 5 is_stmt 1 view .LVU45
 254              		.loc 7 110 5 is_stmt 0 view .LVU46
 255              	.LBE286:
 256              	.LBB287:
 257              	.LBI287:
 258              		.file 8 "/home/ubuntu/DaisyExamples/libDaisy/src/hid/audio.h"
   1:/home/ubuntu/DaisyExamples/libDaisy/src/hid/audio.h **** #ifndef DSY_AUDIO_H
   2:/home/ubuntu/DaisyExamples/libDaisy/src/hid/audio.h **** #define DSY_AUDIO_H /**< & */
   3:/home/ubuntu/DaisyExamples/libDaisy/src/hid/audio.h **** 
   4:/home/ubuntu/DaisyExamples/libDaisy/src/hid/audio.h **** #include "per/sai.h"
   5:/home/ubuntu/DaisyExamples/libDaisy/src/hid/audio.h **** 
   6:/home/ubuntu/DaisyExamples/libDaisy/src/hid/audio.h **** namespace daisy
   7:/home/ubuntu/DaisyExamples/libDaisy/src/hid/audio.h **** {
   8:/home/ubuntu/DaisyExamples/libDaisy/src/hid/audio.h **** /** @brief Audio Engine Handle
ARM GAS  /tmp/cch2Dr4w.s 			page 24


   9:/home/ubuntu/DaisyExamples/libDaisy/src/hid/audio.h ****  *  @ingroup audio 
  10:/home/ubuntu/DaisyExamples/libDaisy/src/hid/audio.h ****  *  @details This class allows for higher level access to an audio engine.
  11:/home/ubuntu/DaisyExamples/libDaisy/src/hid/audio.h ****  *           If you're using a SOM like the DaisySeed or DaisyPatchSM (or any 
  12:/home/ubuntu/DaisyExamples/libDaisy/src/hid/audio.h ****  *            board that includes one of those objects) then the intialization
  13:/home/ubuntu/DaisyExamples/libDaisy/src/hid/audio.h ****  *            is already taken  care of.
  14:/home/ubuntu/DaisyExamples/libDaisy/src/hid/audio.h ****  *           If you're setting up your own custom hardware, or need to make changes
  15:/home/ubuntu/DaisyExamples/libDaisy/src/hid/audio.h ****  *           you will have to take the following steps:
  16:/home/ubuntu/DaisyExamples/libDaisy/src/hid/audio.h ****  *             1. Create and Initialize an SaiHandle or two depending on your requirements
  17:/home/ubuntu/DaisyExamples/libDaisy/src/hid/audio.h ****  *             2. Initialize the Audio Handle with the desired settings and the Initialized SaiHand
  18:/home/ubuntu/DaisyExamples/libDaisy/src/hid/audio.h ****  *             3. If the connected codec requires special configuration or initialization, do so
  19:/home/ubuntu/DaisyExamples/libDaisy/src/hid/audio.h ****  *             4. Write a callback method using either the AudioCallback or the InterleavingAudioCa
  20:/home/ubuntu/DaisyExamples/libDaisy/src/hid/audio.h ****  *             5. Start the Audio using one of the StartAudio function
  21:/home/ubuntu/DaisyExamples/libDaisy/src/hid/audio.h ****  */
  22:/home/ubuntu/DaisyExamples/libDaisy/src/hid/audio.h **** class AudioHandle
  23:/home/ubuntu/DaisyExamples/libDaisy/src/hid/audio.h **** {
  24:/home/ubuntu/DaisyExamples/libDaisy/src/hid/audio.h ****   public:
  25:/home/ubuntu/DaisyExamples/libDaisy/src/hid/audio.h ****     /** Manually configurable details about the Audio Engine */
  26:/home/ubuntu/DaisyExamples/libDaisy/src/hid/audio.h ****     /** TODO: Figure out how to get samplerate in here. */
  27:/home/ubuntu/DaisyExamples/libDaisy/src/hid/audio.h ****     struct Config
  28:/home/ubuntu/DaisyExamples/libDaisy/src/hid/audio.h ****     {
  29:/home/ubuntu/DaisyExamples/libDaisy/src/hid/audio.h ****         /** number of samples to process per callback */
  30:/home/ubuntu/DaisyExamples/libDaisy/src/hid/audio.h ****         size_t blocksize;
  31:/home/ubuntu/DaisyExamples/libDaisy/src/hid/audio.h **** 
  32:/home/ubuntu/DaisyExamples/libDaisy/src/hid/audio.h ****         /**< Sample rate of audio */
  33:/home/ubuntu/DaisyExamples/libDaisy/src/hid/audio.h ****         SaiHandle::Config::SampleRate samplerate;
  34:/home/ubuntu/DaisyExamples/libDaisy/src/hid/audio.h **** 
  35:/home/ubuntu/DaisyExamples/libDaisy/src/hid/audio.h ****         /** factor for adjustment before and after callback for hardware that may have extra headro
  36:/home/ubuntu/DaisyExamples/libDaisy/src/hid/audio.h ****         float postgain;
  37:/home/ubuntu/DaisyExamples/libDaisy/src/hid/audio.h **** 
  38:/home/ubuntu/DaisyExamples/libDaisy/src/hid/audio.h ****         /** factor for additional one-sided compensation to audio path for hardware that may
  39:/home/ubuntu/DaisyExamples/libDaisy/src/hid/audio.h ****          *  have unequal input/output ranges
  40:/home/ubuntu/DaisyExamples/libDaisy/src/hid/audio.h ****          */
  41:/home/ubuntu/DaisyExamples/libDaisy/src/hid/audio.h ****         float output_compensation;
  42:/home/ubuntu/DaisyExamples/libDaisy/src/hid/audio.h **** 
  43:/home/ubuntu/DaisyExamples/libDaisy/src/hid/audio.h ****         /** Sets default values for config struct */
  44:/home/ubuntu/DaisyExamples/libDaisy/src/hid/audio.h ****         Config()
  45:/home/ubuntu/DaisyExamples/libDaisy/src/hid/audio.h ****         : blocksize(48),
  46:/home/ubuntu/DaisyExamples/libDaisy/src/hid/audio.h ****           samplerate(SaiHandle::Config::SampleRate::SAI_48KHZ),
  47:/home/ubuntu/DaisyExamples/libDaisy/src/hid/audio.h ****           postgain(1.f),
  48:/home/ubuntu/DaisyExamples/libDaisy/src/hid/audio.h ****           output_compensation(1.f)
  49:/home/ubuntu/DaisyExamples/libDaisy/src/hid/audio.h ****         {
  50:/home/ubuntu/DaisyExamples/libDaisy/src/hid/audio.h ****         }
  51:/home/ubuntu/DaisyExamples/libDaisy/src/hid/audio.h ****     };
  52:/home/ubuntu/DaisyExamples/libDaisy/src/hid/audio.h **** 
  53:/home/ubuntu/DaisyExamples/libDaisy/src/hid/audio.h ****     enum class Result
  54:/home/ubuntu/DaisyExamples/libDaisy/src/hid/audio.h ****     {
  55:/home/ubuntu/DaisyExamples/libDaisy/src/hid/audio.h ****         OK,
  56:/home/ubuntu/DaisyExamples/libDaisy/src/hid/audio.h ****         ERR,
  57:/home/ubuntu/DaisyExamples/libDaisy/src/hid/audio.h ****     };
  58:/home/ubuntu/DaisyExamples/libDaisy/src/hid/audio.h **** 
  59:/home/ubuntu/DaisyExamples/libDaisy/src/hid/audio.h ****     /** Non-Interleaving input buffer
  60:/home/ubuntu/DaisyExamples/libDaisy/src/hid/audio.h ****      * Buffer arranged by float[chn][sample] 
  61:/home/ubuntu/DaisyExamples/libDaisy/src/hid/audio.h ****      * const so that the user can't modify the input
  62:/home/ubuntu/DaisyExamples/libDaisy/src/hid/audio.h ****      */
  63:/home/ubuntu/DaisyExamples/libDaisy/src/hid/audio.h ****     typedef const float* const* InputBuffer;
  64:/home/ubuntu/DaisyExamples/libDaisy/src/hid/audio.h **** 
  65:/home/ubuntu/DaisyExamples/libDaisy/src/hid/audio.h ****     /** Non-Interleaving output buffer
ARM GAS  /tmp/cch2Dr4w.s 			page 25


  66:/home/ubuntu/DaisyExamples/libDaisy/src/hid/audio.h ****      * Arranged by float[chn][sample] 
  67:/home/ubuntu/DaisyExamples/libDaisy/src/hid/audio.h ****      */
  68:/home/ubuntu/DaisyExamples/libDaisy/src/hid/audio.h ****     typedef float** OutputBuffer;
  69:/home/ubuntu/DaisyExamples/libDaisy/src/hid/audio.h **** 
  70:/home/ubuntu/DaisyExamples/libDaisy/src/hid/audio.h ****     /** Type for a Non-Interleaving audio callback 
  71:/home/ubuntu/DaisyExamples/libDaisy/src/hid/audio.h ****      * Non-Interleaving audio callbacks in daisy will be of this type
  72:/home/ubuntu/DaisyExamples/libDaisy/src/hid/audio.h ****      */
  73:/home/ubuntu/DaisyExamples/libDaisy/src/hid/audio.h ****     typedef void (*AudioCallback)(InputBuffer  in,
  74:/home/ubuntu/DaisyExamples/libDaisy/src/hid/audio.h ****                                   OutputBuffer out,
  75:/home/ubuntu/DaisyExamples/libDaisy/src/hid/audio.h ****                                   size_t       size);
  76:/home/ubuntu/DaisyExamples/libDaisy/src/hid/audio.h **** 
  77:/home/ubuntu/DaisyExamples/libDaisy/src/hid/audio.h ****     /** Interleaving Input buffer
  78:/home/ubuntu/DaisyExamples/libDaisy/src/hid/audio.h ****      ** audio is prepared as { L0, R0, L1, R1, . . . LN, RN }]
  79:/home/ubuntu/DaisyExamples/libDaisy/src/hid/audio.h ****      ** this is const, as the user shouldn't modify it
  80:/home/ubuntu/DaisyExamples/libDaisy/src/hid/audio.h ****     */
  81:/home/ubuntu/DaisyExamples/libDaisy/src/hid/audio.h ****     typedef const float* InterleavingInputBuffer;
  82:/home/ubuntu/DaisyExamples/libDaisy/src/hid/audio.h **** 
  83:/home/ubuntu/DaisyExamples/libDaisy/src/hid/audio.h ****     /** Interleaving Output buffer 
  84:/home/ubuntu/DaisyExamples/libDaisy/src/hid/audio.h ****      ** audio is prepared as { L0, R0, L1, R1, . . . LN, RN }
  85:/home/ubuntu/DaisyExamples/libDaisy/src/hid/audio.h ****     */
  86:/home/ubuntu/DaisyExamples/libDaisy/src/hid/audio.h ****     typedef float* InterleavingOutputBuffer;
  87:/home/ubuntu/DaisyExamples/libDaisy/src/hid/audio.h **** 
  88:/home/ubuntu/DaisyExamples/libDaisy/src/hid/audio.h ****     /** Interleaving Audio Callback 
  89:/home/ubuntu/DaisyExamples/libDaisy/src/hid/audio.h ****      * Interleaving audio callbacks in daisy must be of this type
  90:/home/ubuntu/DaisyExamples/libDaisy/src/hid/audio.h ****      */
  91:/home/ubuntu/DaisyExamples/libDaisy/src/hid/audio.h ****     typedef void (*InterleavingAudioCallback)(InterleavingInputBuffer  in,
  92:/home/ubuntu/DaisyExamples/libDaisy/src/hid/audio.h ****                                               InterleavingOutputBuffer out,
  93:/home/ubuntu/DaisyExamples/libDaisy/src/hid/audio.h ****                                               size_t                   size);
  94:/home/ubuntu/DaisyExamples/libDaisy/src/hid/audio.h **** 
  95:/home/ubuntu/DaisyExamples/libDaisy/src/hid/audio.h ****     AudioHandle() : pimpl_(nullptr) {}
  96:/home/ubuntu/DaisyExamples/libDaisy/src/hid/audio.h ****     ~AudioHandle() {}
 259              		.loc 8 96 5 is_stmt 1 view .LVU47
 260              		.loc 8 96 5 is_stmt 0 view .LVU48
 261              	.LBE287:
 262              	.LBE283:
 263              		.loc 3 10 7 view .LVU49
 264 0000 7047     		bx	lr
 265              		.cfi_endproc
 266              	.LFE6140:
 268              		.weak	_ZN16clevelandmusicco8HothouseD1Ev
 269              		.thumb_set _ZN16clevelandmusicco8HothouseD1Ev,_ZN16clevelandmusicco8HothouseD2Ev
 270              		.section	.text._ZN28PartitionedConvolutionReverbD2Ev,"axG",%progbits,_ZN28PartitionedConvolutionRe
 271              		.align	1
 272              		.weak	_ZN28PartitionedConvolutionReverbD2Ev
 273              		.syntax unified
 274              		.thumb
 275              		.thumb_func
 276              		.fpu fpv5-d16
 278              	_ZN28PartitionedConvolutionReverbD2Ev:
 279              	.LVL11:
 280              	.LFB5506:
 216:EchoBridgeWithUSB.cpp ****         // Free IR buffers
 281              		.loc 2 216 5 is_stmt 1 view -0
 282              		.cfi_startproc
 283              		@ args = 0, pretend = 0, frame = 0
 284              		@ frame_needed = 0, uses_anonymous_args = 0
 285              	.LBB288:
ARM GAS  /tmp/cch2Dr4w.s 			page 26


 218:EchoBridgeWithUSB.cpp ****             delete[] irBuffer;
 286              		.loc 2 218 9 view .LVU51
 287              	.LBE288:
 216:EchoBridgeWithUSB.cpp ****         // Free IR buffers
 288              		.loc 2 216 5 is_stmt 0 view .LVU52
 289 0000 10B5     		push	{r4, lr}
 290              		.cfi_def_cfa_offset 8
 291              		.cfi_offset 4, -8
 292              		.cfi_offset 14, -4
 216:EchoBridgeWithUSB.cpp ****         // Free IR buffers
 293              		.loc 2 216 5 view .LVU53
 294 0002 0446     		mov	r4, r0
 295              	.LBB293:
 218:EchoBridgeWithUSB.cpp ****             delete[] irBuffer;
 296              		.loc 2 218 13 view .LVU54
 297 0004 0068     		ldr	r0, [r0]
 298              	.LVL12:
 218:EchoBridgeWithUSB.cpp ****             delete[] irBuffer;
 299              		.loc 2 218 9 view .LVU55
 300 0006 18B1     		cbz	r0, .L16
 219:EchoBridgeWithUSB.cpp ****             irBuffer = nullptr;
 301              		.loc 2 219 13 is_stmt 1 discriminator 1 view .LVU56
 219:EchoBridgeWithUSB.cpp ****             irBuffer = nullptr;
 302              		.loc 2 219 22 is_stmt 0 discriminator 1 view .LVU57
 303 0008 FFF7FEFF 		bl	_ZdaPv
 304              	.LVL13:
 220:EchoBridgeWithUSB.cpp ****         }
 305              		.loc 2 220 13 is_stmt 1 discriminator 1 view .LVU58
 220:EchoBridgeWithUSB.cpp ****         }
 306              		.loc 2 220 22 is_stmt 0 discriminator 1 view .LVU59
 307 000c 0023     		movs	r3, #0
 308 000e 2360     		str	r3, [r4]
 309              	.L16:
 223:EchoBridgeWithUSB.cpp ****             delete[] irBufferRight;
 310              		.loc 2 223 9 is_stmt 1 view .LVU60
 223:EchoBridgeWithUSB.cpp ****             delete[] irBufferRight;
 311              		.loc 2 223 13 is_stmt 0 view .LVU61
 312 0010 6068     		ldr	r0, [r4, #4]
 223:EchoBridgeWithUSB.cpp ****             delete[] irBufferRight;
 313              		.loc 2 223 9 view .LVU62
 314 0012 08B1     		cbz	r0, .L17
 224:EchoBridgeWithUSB.cpp ****             irBufferRight = nullptr;
 315              		.loc 2 224 13 is_stmt 1 discriminator 1 view .LVU63
 224:EchoBridgeWithUSB.cpp ****             irBufferRight = nullptr;
 316              		.loc 2 224 22 is_stmt 0 discriminator 1 view .LVU64
 317 0014 FFF7FEFF 		bl	_ZdaPv
 318              	.LVL14:
 225:EchoBridgeWithUSB.cpp ****         }
 319              		.loc 2 225 13 is_stmt 1 discriminator 1 view .LVU65
 320              	.L17:
 321              	.LBB289:
 322              	.LBI289:
 323              		.file 9 "/home/ubuntu/DaisyExamples/DaisySP/Source/Filters/svf.h"
   1:/home/ubuntu/DaisyExamples/DaisySP/Source/Filters/svf.h **** /*
   2:/home/ubuntu/DaisyExamples/DaisySP/Source/Filters/svf.h **** Copyright (c) 2020 Electrosmith, Corp
   3:/home/ubuntu/DaisyExamples/DaisySP/Source/Filters/svf.h **** 
   4:/home/ubuntu/DaisyExamples/DaisySP/Source/Filters/svf.h **** Use of this source code is governed by an MIT-style
ARM GAS  /tmp/cch2Dr4w.s 			page 27


   5:/home/ubuntu/DaisyExamples/DaisySP/Source/Filters/svf.h **** license that can be found in the LICENSE file or at
   6:/home/ubuntu/DaisyExamples/DaisySP/Source/Filters/svf.h **** https://opensource.org/licenses/MIT.
   7:/home/ubuntu/DaisyExamples/DaisySP/Source/Filters/svf.h **** */
   8:/home/ubuntu/DaisyExamples/DaisySP/Source/Filters/svf.h **** 
   9:/home/ubuntu/DaisyExamples/DaisySP/Source/Filters/svf.h **** #pragma once
  10:/home/ubuntu/DaisyExamples/DaisySP/Source/Filters/svf.h **** #ifndef DSY_SVF_H
  11:/home/ubuntu/DaisyExamples/DaisySP/Source/Filters/svf.h **** #define DSY_SVF_H
  12:/home/ubuntu/DaisyExamples/DaisySP/Source/Filters/svf.h **** 
  13:/home/ubuntu/DaisyExamples/DaisySP/Source/Filters/svf.h **** namespace daisysp
  14:/home/ubuntu/DaisyExamples/DaisySP/Source/Filters/svf.h **** {
  15:/home/ubuntu/DaisyExamples/DaisySP/Source/Filters/svf.h **** /**      Double Sampled, Stable State Variable Filter
  16:/home/ubuntu/DaisyExamples/DaisySP/Source/Filters/svf.h **** 
  17:/home/ubuntu/DaisyExamples/DaisySP/Source/Filters/svf.h **** Credit to Andrew Simper from musicdsp.org
  18:/home/ubuntu/DaisyExamples/DaisySP/Source/Filters/svf.h **** 
  19:/home/ubuntu/DaisyExamples/DaisySP/Source/Filters/svf.h **** This is his "State Variable Filter (Double Sampled, Stable)"
  20:/home/ubuntu/DaisyExamples/DaisySP/Source/Filters/svf.h **** 
  21:/home/ubuntu/DaisyExamples/DaisySP/Source/Filters/svf.h **** Additional thanks to Laurent de Soras for stability limit, and 
  22:/home/ubuntu/DaisyExamples/DaisySP/Source/Filters/svf.h **** Stefan Diedrichsen for the correct notch output
  23:/home/ubuntu/DaisyExamples/DaisySP/Source/Filters/svf.h **** 
  24:/home/ubuntu/DaisyExamples/DaisySP/Source/Filters/svf.h **** Ported by: Stephen Hensley
  25:/home/ubuntu/DaisyExamples/DaisySP/Source/Filters/svf.h **** */
  26:/home/ubuntu/DaisyExamples/DaisySP/Source/Filters/svf.h **** class Svf
  27:/home/ubuntu/DaisyExamples/DaisySP/Source/Filters/svf.h **** {
  28:/home/ubuntu/DaisyExamples/DaisySP/Source/Filters/svf.h ****   public:
  29:/home/ubuntu/DaisyExamples/DaisySP/Source/Filters/svf.h ****     Svf() {}
  30:/home/ubuntu/DaisyExamples/DaisySP/Source/Filters/svf.h ****     ~Svf() {}
 324              		.loc 9 30 5 view .LVU66
 325              		.loc 9 30 5 is_stmt 0 view .LVU67
 326              	.LBE289:
 327              	.LBB290:
 328              	.LBI290:
 329              		.loc 9 30 5 is_stmt 1 view .LVU68
 330              		.loc 9 30 5 is_stmt 0 view .LVU69
 331              	.LBE290:
 332              	.LBB291:
 333              	.LBI291:
 334              		.loc 9 30 5 is_stmt 1 view .LVU70
 335              		.loc 9 30 5 is_stmt 0 view .LVU71
 336              	.LBE291:
 337              	.LBB292:
 338              	.LBI292:
 339              		.loc 9 30 5 is_stmt 1 view .LVU72
 340              		.loc 9 30 5 is_stmt 0 view .LVU73
 341              	.LBE292:
 342              	.LBE293:
 227:EchoBridgeWithUSB.cpp ****     
 343              		.loc 2 227 5 view .LVU74
 344 0018 2046     		mov	r0, r4
 345 001a 10BD     		pop	{r4, pc}
 227:EchoBridgeWithUSB.cpp ****     
 346              		.loc 2 227 5 view .LVU75
 347              		.cfi_endproc
 348              	.LFE5506:
 350              		.weak	_ZN28PartitionedConvolutionReverbD1Ev
 351              		.thumb_set _ZN28PartitionedConvolutionReverbD1Ev,_ZN28PartitionedConvolutionReverbD2Ev
 352              		.section	.text._Z17HandleFootswitch1b,"ax",%progbits
 353              		.align	1
ARM GAS  /tmp/cch2Dr4w.s 			page 28


 354              		.global	_Z17HandleFootswitch1b
 355              		.syntax unified
 356              		.thumb
 357              		.thumb_func
 358              		.fpu fpv5-d16
 360              	_Z17HandleFootswitch1b:
 361              	.LVL15:
 362              	.LFB5520:
 628:EchoBridgeWithUSB.cpp ****     if (pressed) {
 363              		.loc 2 628 38 is_stmt 1 view -0
 364              		.cfi_startproc
 365              		@ args = 0, pretend = 0, frame = 0
 366              		@ frame_needed = 0, uses_anonymous_args = 0
 367              		@ link register save eliminated.
 629:EchoBridgeWithUSB.cpp ****         freeze = !freeze;
 368              		.loc 2 629 5 view .LVU77
 369 0000 70B1     		cbz	r0, .L24
 370              	.LBB296:
 371              	.LBI296:
 628:EchoBridgeWithUSB.cpp ****     if (pressed) {
 372              		.loc 2 628 6 view .LVU78
 373              	.LVL16:
 374              	.LBB297:
 630:EchoBridgeWithUSB.cpp ****         led1.Set(freeze ? 1.0f : 0.0f);
 375              		.loc 2 630 9 view .LVU79
 630:EchoBridgeWithUSB.cpp ****         led1.Set(freeze ? 1.0f : 0.0f);
 376              		.loc 2 630 18 is_stmt 0 view .LVU80
 377 0002 084A     		ldr	r2, .L28
 631:EchoBridgeWithUSB.cpp ****     }
 378              		.loc 2 631 17 view .LVU81
 379 0004 B7EE000A 		vmov.f32	s0, #1.0e+0
 380 0008 DFED077A 		vldr.32	s15, .L28+4
 630:EchoBridgeWithUSB.cpp ****         led1.Set(freeze ? 1.0f : 0.0f);
 381              		.loc 2 630 18 view .LVU82
 382 000c 1378     		ldrb	r3, [r2]	@ zero_extendqisi2
 631:EchoBridgeWithUSB.cpp ****     }
 383              		.loc 2 631 17 view .LVU83
 384 000e 0748     		ldr	r0, .L28+8
 385              	.LVL17:
 630:EchoBridgeWithUSB.cpp ****         led1.Set(freeze ? 1.0f : 0.0f);
 386              		.loc 2 630 18 view .LVU84
 387 0010 83F00103 		eor	r3, r3, #1
 631:EchoBridgeWithUSB.cpp ****     }
 388              		.loc 2 631 17 view .LVU85
 389 0014 002B     		cmp	r3, #0
 630:EchoBridgeWithUSB.cpp ****         led1.Set(freeze ? 1.0f : 0.0f);
 390              		.loc 2 630 16 view .LVU86
 391 0016 1370     		strb	r3, [r2]
 631:EchoBridgeWithUSB.cpp ****     }
 392              		.loc 2 631 9 is_stmt 1 view .LVU87
 631:EchoBridgeWithUSB.cpp ****     }
 393              		.loc 2 631 17 is_stmt 0 view .LVU88
 394 0018 07FE800A 		vseleq.f32	s0, s15, s0
 395 001c FFF7FEBF 		b	_ZN5daisy3Led3SetEf
 396              	.LVL18:
 397              	.L24:
 631:EchoBridgeWithUSB.cpp ****     }
ARM GAS  /tmp/cch2Dr4w.s 			page 29


 398              		.loc 2 631 17 view .LVU89
 399              	.LBE297:
 400              	.LBE296:
 633:EchoBridgeWithUSB.cpp **** 
 401              		.loc 2 633 1 view .LVU90
 402 0020 7047     		bx	lr
 403              	.L29:
 404 0022 00BF     		.align	2
 405              	.L28:
 406 0024 00000000 		.word	.LANCHOR0
 407 0028 00000000 		.word	0
 408 002c 00000000 		.word	.LANCHOR1
 409              		.cfi_endproc
 410              	.LFE5520:
 412              		.section	.text._Z17HandleFootswitch2b,"ax",%progbits
 413              		.align	1
 414              		.global	_Z17HandleFootswitch2b
 415              		.syntax unified
 416              		.thumb
 417              		.thumb_func
 418              		.fpu fpv5-d16
 420              	_Z17HandleFootswitch2b:
 421              	.LVL19:
 422              	.LFB5521:
 636:EchoBridgeWithUSB.cpp ****     if (pressed) {
 423              		.loc 2 636 38 is_stmt 1 view -0
 424              		.cfi_startproc
 425              		@ args = 0, pretend = 0, frame = 0
 426              		@ frame_needed = 0, uses_anonymous_args = 0
 427              		@ link register save eliminated.
 637:EchoBridgeWithUSB.cpp ****         bypass = !bypass;
 428              		.loc 2 637 5 view .LVU92
 429 0000 70B1     		cbz	r0, .L30
 430              	.LBB300:
 431              	.LBI300:
 636:EchoBridgeWithUSB.cpp ****     if (pressed) {
 432              		.loc 2 636 6 view .LVU93
 433              	.LVL20:
 434              	.LBB301:
 638:EchoBridgeWithUSB.cpp ****         led2.Set(bypass ? 0.0f : 1.0f);
 435              		.loc 2 638 9 view .LVU94
 638:EchoBridgeWithUSB.cpp ****         led2.Set(bypass ? 0.0f : 1.0f);
 436              		.loc 2 638 18 is_stmt 0 view .LVU95
 437 0002 084A     		ldr	r2, .L34
 639:EchoBridgeWithUSB.cpp ****     }
 438              		.loc 2 639 17 view .LVU96
 439 0004 F7EE007A 		vmov.f32	s15, #1.0e+0
 440 0008 9FED070A 		vldr.32	s0, .L34+4
 638:EchoBridgeWithUSB.cpp ****         led2.Set(bypass ? 0.0f : 1.0f);
 441              		.loc 2 638 18 view .LVU97
 442 000c 1378     		ldrb	r3, [r2]	@ zero_extendqisi2
 639:EchoBridgeWithUSB.cpp ****     }
 443              		.loc 2 639 17 view .LVU98
 444 000e 0748     		ldr	r0, .L34+8
 445              	.LVL21:
 638:EchoBridgeWithUSB.cpp ****         led2.Set(bypass ? 0.0f : 1.0f);
 446              		.loc 2 638 18 view .LVU99
ARM GAS  /tmp/cch2Dr4w.s 			page 30


 447 0010 83F00103 		eor	r3, r3, #1
 639:EchoBridgeWithUSB.cpp ****     }
 448              		.loc 2 639 17 view .LVU100
 449 0014 002B     		cmp	r3, #0
 638:EchoBridgeWithUSB.cpp ****         led2.Set(bypass ? 0.0f : 1.0f);
 450              		.loc 2 638 16 view .LVU101
 451 0016 1370     		strb	r3, [r2]
 639:EchoBridgeWithUSB.cpp ****     }
 452              		.loc 2 639 9 is_stmt 1 view .LVU102
 639:EchoBridgeWithUSB.cpp ****     }
 453              		.loc 2 639 17 is_stmt 0 view .LVU103
 454 0018 07FE800A 		vseleq.f32	s0, s15, s0
 455 001c FFF7FEBF 		b	_ZN5daisy3Led3SetEf
 456              	.LVL22:
 457              	.L30:
 639:EchoBridgeWithUSB.cpp ****     }
 458              		.loc 2 639 17 view .LVU104
 459              	.LBE301:
 460              	.LBE300:
 641:EchoBridgeWithUSB.cpp **** 
 461              		.loc 2 641 1 view .LVU105
 462 0020 7047     		bx	lr
 463              	.L35:
 464 0022 00BF     		.align	2
 465              	.L34:
 466 0024 00000000 		.word	.LANCHOR2
 467 0028 00000000 		.word	0
 468 002c 00000000 		.word	.LANCHOR3
 469              		.cfi_endproc
 470              	.LFE5521:
 472              		.section	.rodata._ZN8IRLoader12LoadStereoIREv.isra.0.str1.1,"aMS",%progbits,1
 473              	.LC0:
 474 0000 69725F6C 		.ascii	"ir_left.wav\000"
 474      6566742E 
 474      77617600 
 475              	.LC1:
 476 000c 69725F72 		.ascii	"ir_right.wav\000"
 476      69676874 
 476      2E776176 
 476      00
 477              	.LC2:
 478 0019 52494646 		.ascii	"RIFF\000"
 478      00
 479              	.LC3:
 480 001e 57415645 		.ascii	"WAVE\000"
 480      00
 481              	.LC4:
 482 0023 666D7420 		.ascii	"fmt \000"
 482      00
 483              	.LC5:
 484 0028 64617461 		.ascii	"data\000"
 484      00
 485              		.section	.text._ZN8IRLoader12LoadStereoIREv.isra.0,"axG",%progbits,_ZN8IRLoader6LoadIREv,comdat
 486              		.align	1
 487              		.syntax unified
 488              		.thumb
 489              		.thumb_func
ARM GAS  /tmp/cch2Dr4w.s 			page 31


 490              		.fpu fpv5-d16
 492              	_ZN8IRLoader12LoadStereoIREv.isra.0:
 493              	.LFB6152:
 494              		.file 10 "IRLoader.h"
   1:IRLoader.h    **** #pragma once
   2:IRLoader.h    **** 
   3:IRLoader.h    **** #include "daisy_seed.h"
   4:IRLoader.h    **** #include "hid/usb_host.h"
   5:IRLoader.h    **** #include <string.h>
   6:IRLoader.h    **** 
   7:IRLoader.h    **** using namespace daisy;
   8:IRLoader.h    **** 
   9:IRLoader.h    **** // Define max IR length as a global constant so it can be accessed from IRLoader
  10:IRLoader.h    **** static const size_t MAX_IR_LENGTH = 4096;
  11:IRLoader.h    **** 
  12:IRLoader.h    **** // Class for loading impulse response files from USB
  13:IRLoader.h    **** class IRLoader {
  14:IRLoader.h    **** public:
  15:IRLoader.h    ****     IRLoader() : usbh_(nullptr), mounted_(false) {}
  16:IRLoader.h    ****     
  17:IRLoader.h    ****     void Init() {
  18:IRLoader.h    ****         // Initialize USB host
  19:IRLoader.h    ****         usbh_ = new USBHostHandle();
  20:IRLoader.h    ****         usbh_->Init(USBHostHandle::Config());
  21:IRLoader.h    ****     }
  22:IRLoader.h    ****     
  23:IRLoader.h    ****     void Process() {
  24:IRLoader.h    ****         // Process USB host events
  25:IRLoader.h    ****         if (usbh_) {
  26:IRLoader.h    ****             usbh_->Process();
  27:IRLoader.h    ****             
  28:IRLoader.h    ****             // Check if USB drive is mounted
  29:IRLoader.h    ****             // In newer API, we need to check if the filesystem is ready
  30:IRLoader.h    ****             bool mounted = f_mount(nullptr, "", 0) == FR_OK;
  31:IRLoader.h    ****             
  32:IRLoader.h    ****             // If mount state changed
  33:IRLoader.h    ****             if (mounted != mounted_) {
  34:IRLoader.h    ****                 mounted_ = mounted;
  35:IRLoader.h    ****                 
  36:IRLoader.h    ****                 // If newly mounted, try to load IR
  37:IRLoader.h    ****                 if (mounted_) {
  38:IRLoader.h    ****                     LoadIR();
  39:IRLoader.h    ****                 }
  40:IRLoader.h    ****             }
  41:IRLoader.h    ****         }
  42:IRLoader.h    ****     }
  43:IRLoader.h    ****     
  44:IRLoader.h    ****     bool LoadIR() {
  45:IRLoader.h    ****         if (!usbh_ || !mounted_) {
  46:IRLoader.h    ****             return false;
  47:IRLoader.h    ****         }
  48:IRLoader.h    ****         
  49:IRLoader.h    ****         // Try to load mono IR first
  50:IRLoader.h    ****         if (LoadMonoIR()) {
  51:IRLoader.h    ****             return true;
  52:IRLoader.h    ****         }
  53:IRLoader.h    ****         
ARM GAS  /tmp/cch2Dr4w.s 			page 32


  54:IRLoader.h    ****         // If mono IR not found, try to load stereo IR
  55:IRLoader.h    ****         return LoadStereoIR();
  56:IRLoader.h    ****     }
  57:IRLoader.h    ****     
  58:IRLoader.h    ****     bool LoadMonoIR() {
  59:IRLoader.h    ****         // Open file
  60:IRLoader.h    ****         FIL file;
  61:IRLoader.h    ****         FRESULT result = f_open(&file, "ir_mono.wav", FA_READ);
  62:IRLoader.h    ****         
  63:IRLoader.h    ****         if (result != FR_OK) {
  64:IRLoader.h    ****             return false;
  65:IRLoader.h    ****         }
  66:IRLoader.h    ****         
  67:IRLoader.h    ****         // Read WAV header
  68:IRLoader.h    ****         WAVHeader header;
  69:IRLoader.h    ****         UINT bytesRead;
  70:IRLoader.h    ****         result = f_read(&file, &header, sizeof(WAVHeader), &bytesRead);
  71:IRLoader.h    ****         
  72:IRLoader.h    ****         if (result != FR_OK || bytesRead != sizeof(WAVHeader)) {
  73:IRLoader.h    ****             f_close(&file);
  74:IRLoader.h    ****             return false;
  75:IRLoader.h    ****         }
  76:IRLoader.h    ****         
  77:IRLoader.h    ****         // Check if valid WAV file
  78:IRLoader.h    ****         if (strncmp(header.riff, "RIFF", 4) != 0 || 
  79:IRLoader.h    ****             strncmp(header.wave, "WAVE", 4) != 0 || 
  80:IRLoader.h    ****             strncmp(header.fmt, "fmt ", 4) != 0 || 
  81:IRLoader.h    ****             strncmp(header.data, "data", 4) != 0) {
  82:IRLoader.h    ****             f_close(&file);
  83:IRLoader.h    ****             return false;
  84:IRLoader.h    ****         }
  85:IRLoader.h    ****         
  86:IRLoader.h    ****         // Check if supported format (PCM)
  87:IRLoader.h    ****         if (header.audioFormat != 1) {
  88:IRLoader.h    ****             f_close(&file);
  89:IRLoader.h    ****             return false;
  90:IRLoader.h    ****         }
  91:IRLoader.h    ****         
  92:IRLoader.h    ****         // Calculate number of samples
  93:IRLoader.h    ****         uint32_t numSamples = header.dataSize / (header.numChannels * (header.bitsPerSample / 8));
  94:IRLoader.h    ****         
  95:IRLoader.h    ****         // Limit to MAX_IR_LENGTH
  96:IRLoader.h    ****         if (numSamples > MAX_IR_LENGTH) {
  97:IRLoader.h    ****             numSamples = MAX_IR_LENGTH;
  98:IRLoader.h    ****         }
  99:IRLoader.h    ****         
 100:IRLoader.h    ****         // Allocate buffer
 101:IRLoader.h    ****         float* irBuffer = new float[numSamples];
 102:IRLoader.h    ****         
 103:IRLoader.h    ****         if (!irBuffer) {
 104:IRLoader.h    ****             f_close(&file);
 105:IRLoader.h    ****             return false;
 106:IRLoader.h    ****         }
 107:IRLoader.h    ****         
 108:IRLoader.h    ****         // Read samples
 109:IRLoader.h    ****         if (header.bitsPerSample == 16) {
 110:IRLoader.h    ****             // 16-bit samples
ARM GAS  /tmp/cch2Dr4w.s 			page 33


 111:IRLoader.h    ****             int16_t* tempBuffer = new int16_t[numSamples * header.numChannels];
 112:IRLoader.h    ****             
 113:IRLoader.h    ****             if (!tempBuffer) {
 114:IRLoader.h    ****                 delete[] irBuffer;
 115:IRLoader.h    ****                 f_close(&file);
 116:IRLoader.h    ****                 return false;
 117:IRLoader.h    ****             }
 118:IRLoader.h    ****             
 119:IRLoader.h    ****             result = f_read(&file, tempBuffer, numSamples * header.numChannels * sizeof(int16_t), &
 120:IRLoader.h    ****             
 121:IRLoader.h    ****             if (result != FR_OK) {
 122:IRLoader.h    ****                 delete[] tempBuffer;
 123:IRLoader.h    ****                 delete[] irBuffer;
 124:IRLoader.h    ****                 f_close(&file);
 125:IRLoader.h    ****                 return false;
 126:IRLoader.h    ****             }
 127:IRLoader.h    ****             
 128:IRLoader.h    ****             // Convert to float
 129:IRLoader.h    ****             for (uint32_t i = 0; i < numSamples; i++) {
 130:IRLoader.h    ****                 // If stereo, average channels
 131:IRLoader.h    ****                 if (header.numChannels == 2) {
 132:IRLoader.h    ****                     irBuffer[i] = ((float)tempBuffer[i*2] + (float)tempBuffer[i*2+1]) / 65536.0f;
 133:IRLoader.h    ****                 } else {
 134:IRLoader.h    ****                     irBuffer[i] = (float)tempBuffer[i] / 32768.0f;
 135:IRLoader.h    ****                 }
 136:IRLoader.h    ****             }
 137:IRLoader.h    ****             
 138:IRLoader.h    ****             delete[] tempBuffer;
 139:IRLoader.h    ****         } else if (header.bitsPerSample == 24) {
 140:IRLoader.h    ****             // 24-bit samples
 141:IRLoader.h    ****             uint8_t* tempBuffer = new uint8_t[numSamples * header.numChannels * 3];
 142:IRLoader.h    ****             
 143:IRLoader.h    ****             if (!tempBuffer) {
 144:IRLoader.h    ****                 delete[] irBuffer;
 145:IRLoader.h    ****                 f_close(&file);
 146:IRLoader.h    ****                 return false;
 147:IRLoader.h    ****             }
 148:IRLoader.h    ****             
 149:IRLoader.h    ****             result = f_read(&file, tempBuffer, numSamples * header.numChannels * 3, &bytesRead);
 150:IRLoader.h    ****             
 151:IRLoader.h    ****             if (result != FR_OK) {
 152:IRLoader.h    ****                 delete[] tempBuffer;
 153:IRLoader.h    ****                 delete[] irBuffer;
 154:IRLoader.h    ****                 f_close(&file);
 155:IRLoader.h    ****                 return false;
 156:IRLoader.h    ****             }
 157:IRLoader.h    ****             
 158:IRLoader.h    ****             // Convert to float
 159:IRLoader.h    ****             for (uint32_t i = 0; i < numSamples; i++) {
 160:IRLoader.h    ****                 // If stereo, average channels
 161:IRLoader.h    ****                 if (header.numChannels == 2) {
 162:IRLoader.h    ****                     int32_t sampleL = (tempBuffer[i*6] << 8) | (tempBuffer[i*6+1] << 16) | (tempBuf
 163:IRLoader.h    ****                     int32_t sampleR = (tempBuffer[i*6+3] << 8) | (tempBuffer[i*6+4] << 16) | (tempB
 164:IRLoader.h    ****                     sampleL >>= 8;
 165:IRLoader.h    ****                     sampleR >>= 8;
 166:IRLoader.h    ****                     irBuffer[i] = ((float)sampleL + (float)sampleR) / 16777216.0f;
 167:IRLoader.h    ****                 } else {
ARM GAS  /tmp/cch2Dr4w.s 			page 34


 168:IRLoader.h    ****                     int32_t sample = (tempBuffer[i*3] << 8) | (tempBuffer[i*3+1] << 16) | (tempBuff
 169:IRLoader.h    ****                     sample >>= 8;
 170:IRLoader.h    ****                     irBuffer[i] = (float)sample / 8388608.0f;
 171:IRLoader.h    ****                 }
 172:IRLoader.h    ****             }
 173:IRLoader.h    ****             
 174:IRLoader.h    ****             delete[] tempBuffer;
 175:IRLoader.h    ****         } else if (header.bitsPerSample == 32) {
 176:IRLoader.h    ****             // 32-bit samples (assume float)
 177:IRLoader.h    ****             result = f_read(&file, irBuffer, numSamples * sizeof(float), &bytesRead);
 178:IRLoader.h    ****             
 179:IRLoader.h    ****             if (result != FR_OK) {
 180:IRLoader.h    ****                 delete[] irBuffer;
 181:IRLoader.h    ****                 f_close(&file);
 182:IRLoader.h    ****                 return false;
 183:IRLoader.h    ****             }
 184:IRLoader.h    ****         } else {
 185:IRLoader.h    ****             // Unsupported bit depth
 186:IRLoader.h    ****             delete[] irBuffer;
 187:IRLoader.h    ****             f_close(&file);
 188:IRLoader.h    ****             return false;
 189:IRLoader.h    ****         }
 190:IRLoader.h    ****         
 191:IRLoader.h    ****         // Close file
 192:IRLoader.h    ****         f_close(&file);
 193:IRLoader.h    ****         
 194:IRLoader.h    ****         // Normalize IR
 195:IRLoader.h    ****         float maxAbs = 0.0f;
 196:IRLoader.h    ****         for (uint32_t i = 0; i < numSamples; i++) {
 197:IRLoader.h    ****             float absVal = fabsf(irBuffer[i]);
 198:IRLoader.h    ****             if (absVal > maxAbs) {
 199:IRLoader.h    ****                 maxAbs = absVal;
 200:IRLoader.h    ****             }
 201:IRLoader.h    ****         }
 202:IRLoader.h    ****         
 203:IRLoader.h    ****         if (maxAbs > 0.0f) {
 204:IRLoader.h    ****             for (uint32_t i = 0; i < numSamples; i++) {
 205:IRLoader.h    ****                 irBuffer[i] /= maxAbs;
 206:IRLoader.h    ****             }
 207:IRLoader.h    ****         }
 208:IRLoader.h    ****         
 209:IRLoader.h    ****         // Load IR into reverb
 210:IRLoader.h    ****         bool success = LoadIRCallback(irBuffer, nullptr, numSamples);
 211:IRLoader.h    ****         
 212:IRLoader.h    ****         // Free buffer
 213:IRLoader.h    ****         delete[] irBuffer;
 214:IRLoader.h    ****         
 215:IRLoader.h    ****         return success;
 216:IRLoader.h    ****     }
 217:IRLoader.h    ****     
 218:IRLoader.h    ****     bool LoadStereoIR() {
 495              		.loc 10 218 10 is_stmt 1 view -0
 496              		.cfi_startproc
 497              		@ args = 0, pretend = 0, frame = 1208
 498              		@ frame_needed = 0, uses_anonymous_args = 0
 499              	.LVL23:
 219:IRLoader.h    ****         // Open left channel file
ARM GAS  /tmp/cch2Dr4w.s 			page 35


 220:IRLoader.h    ****         FIL fileL;
 500              		.loc 10 220 9 view .LVU107
 221:IRLoader.h    ****         FRESULT result = f_open(&fileL, "ir_left.wav", FA_READ);
 501              		.loc 10 221 9 view .LVU108
 218:IRLoader.h    ****         // Open left channel file
 502              		.loc 10 218 10 is_stmt 0 view .LVU109
 503 0000 2DE9F043 		push	{r4, r5, r6, r7, r8, r9, lr}
 504              		.cfi_def_cfa_offset 28
 505              		.cfi_offset 4, -28
 506              		.cfi_offset 5, -24
 507              		.cfi_offset 6, -20
 508              		.cfi_offset 7, -16
 509              		.cfi_offset 8, -12
 510              		.cfi_offset 9, -8
 511              		.cfi_offset 14, -4
 512 0004 ADF2BC4D 		subw	sp, sp, #1212
 513              		.cfi_def_cfa_offset 1240
 514              		.loc 10 221 32 view .LVU110
 515 0008 0122     		movs	r2, #1
 516 000a AD49     		ldr	r1, .L101
 517 000c 18A8     		add	r0, sp, #96
 518 000e FFF7FEFF 		bl	f_open
 519              	.LVL24:
 222:IRLoader.h    ****         
 223:IRLoader.h    ****         if (result != FR_OK) {
 520              		.loc 10 223 9 is_stmt 1 view .LVU111
 521 0012 0446     		mov	r4, r0
 522 0014 D0B9     		cbnz	r0, .L79
 224:IRLoader.h    ****             return false;
 225:IRLoader.h    ****         }
 226:IRLoader.h    ****         
 227:IRLoader.h    ****         // Open right channel file
 228:IRLoader.h    ****         FIL fileR;
 523              		.loc 10 228 9 view .LVU112
 229:IRLoader.h    ****         result = f_open(&fileR, "ir_right.wav", FA_READ);
 524              		.loc 10 229 9 view .LVU113
 525              		.loc 10 229 24 is_stmt 0 view .LVU114
 526 0016 0122     		movs	r2, #1
 527 0018 AA49     		ldr	r1, .L101+4
 528 001a A3A8     		add	r0, sp, #652
 529              	.LVL25:
 530              		.loc 10 229 24 view .LVU115
 531 001c FFF7FEFF 		bl	f_open
 532              	.LVL26:
 230:IRLoader.h    ****         
 231:IRLoader.h    ****         if (result != FR_OK) {
 533              		.loc 10 231 9 is_stmt 1 view .LVU116
 534 0020 38B1     		cbz	r0, .L38
 232:IRLoader.h    ****             f_close(&fileL);
 535              		.loc 10 232 13 view .LVU117
 536              		.loc 10 232 20 is_stmt 0 view .LVU118
 537 0022 18A8     		add	r0, sp, #96
 538              	.LVL27:
 539              	.L98:
 540              	.LBB302:
 541              	.LBB303:
 233:IRLoader.h    ****             return false;
ARM GAS  /tmp/cch2Dr4w.s 			page 36


 234:IRLoader.h    ****         }
 235:IRLoader.h    ****         
 236:IRLoader.h    ****         // Read WAV headers
 237:IRLoader.h    ****         WAVHeader headerL, headerR;
 238:IRLoader.h    ****         UINT bytesReadL, bytesReadR;
 239:IRLoader.h    ****         
 240:IRLoader.h    ****         result = f_read(&fileL, &headerL, sizeof(WAVHeader), &bytesReadL);
 241:IRLoader.h    ****         if (result != FR_OK || bytesReadL != sizeof(WAVHeader)) {
 242:IRLoader.h    ****             f_close(&fileL);
 243:IRLoader.h    ****             f_close(&fileR);
 244:IRLoader.h    ****             return false;
 245:IRLoader.h    ****         }
 246:IRLoader.h    ****         
 247:IRLoader.h    ****         result = f_read(&fileR, &headerR, sizeof(WAVHeader), &bytesReadR);
 248:IRLoader.h    ****         if (result != FR_OK || bytesReadR != sizeof(WAVHeader)) {
 249:IRLoader.h    ****             f_close(&fileL);
 250:IRLoader.h    ****             f_close(&fileR);
 251:IRLoader.h    ****             return false;
 252:IRLoader.h    ****         }
 253:IRLoader.h    ****         
 254:IRLoader.h    ****         // Check if valid WAV files
 255:IRLoader.h    ****         if (strncmp(headerL.riff, "RIFF", 4) != 0 || 
 256:IRLoader.h    ****             strncmp(headerL.wave, "WAVE", 4) != 0 || 
 257:IRLoader.h    ****             strncmp(headerL.fmt, "fmt ", 4) != 0 || 
 258:IRLoader.h    ****             strncmp(headerL.data, "data", 4) != 0 ||
 259:IRLoader.h    ****             strncmp(headerR.riff, "RIFF", 4) != 0 || 
 260:IRLoader.h    ****             strncmp(headerR.wave, "WAVE", 4) != 0 || 
 261:IRLoader.h    ****             strncmp(headerR.fmt, "fmt ", 4) != 0 || 
 262:IRLoader.h    ****             strncmp(headerR.data, "data", 4) != 0) {
 263:IRLoader.h    ****             f_close(&fileL);
 264:IRLoader.h    ****             f_close(&fileR);
 265:IRLoader.h    ****             return false;
 266:IRLoader.h    ****         }
 267:IRLoader.h    ****         
 268:IRLoader.h    ****         // Check if supported format (PCM)
 269:IRLoader.h    ****         if (headerL.audioFormat != 1 || headerR.audioFormat != 1) {
 270:IRLoader.h    ****             f_close(&fileL);
 271:IRLoader.h    ****             f_close(&fileR);
 272:IRLoader.h    ****             return false;
 273:IRLoader.h    ****         }
 274:IRLoader.h    ****         
 275:IRLoader.h    ****         // Calculate number of samples
 276:IRLoader.h    ****         uint32_t numSamplesL = headerL.dataSize / (headerL.numChannels * (headerL.bitsPerSample / 8
 277:IRLoader.h    ****         uint32_t numSamplesR = headerR.dataSize / (headerR.numChannels * (headerR.bitsPerSample / 8
 278:IRLoader.h    ****         
 279:IRLoader.h    ****         // Use the smaller of the two
 280:IRLoader.h    ****         uint32_t numSamples = (numSamplesL < numSamplesR) ? numSamplesL : numSamplesR;
 281:IRLoader.h    ****         
 282:IRLoader.h    ****         // Limit to MAX_IR_LENGTH
 283:IRLoader.h    ****         if (numSamples > MAX_IR_LENGTH) {
 284:IRLoader.h    ****             numSamples = MAX_IR_LENGTH;
 285:IRLoader.h    ****         }
 286:IRLoader.h    ****         
 287:IRLoader.h    ****         // Allocate buffers
 288:IRLoader.h    ****         float* irBufferL = new float[numSamples];
 289:IRLoader.h    ****         float* irBufferR = new float[numSamples];
 290:IRLoader.h    ****         
ARM GAS  /tmp/cch2Dr4w.s 			page 37


 291:IRLoader.h    ****         if (!irBufferL || !irBufferR) {
 292:IRLoader.h    ****             if (irBufferL) delete[] irBufferL;
 293:IRLoader.h    ****             if (irBufferR) delete[] irBufferR;
 294:IRLoader.h    ****             f_close(&fileL);
 295:IRLoader.h    ****             f_close(&fileR);
 296:IRLoader.h    ****             return false;
 297:IRLoader.h    ****         }
 298:IRLoader.h    ****         
 299:IRLoader.h    ****         // Read samples from left channel
 300:IRLoader.h    ****         if (headerL.bitsPerSample == 16) {
 301:IRLoader.h    ****             // 16-bit samples
 302:IRLoader.h    ****             int16_t* tempBuffer = new int16_t[numSamples * headerL.numChannels];
 303:IRLoader.h    ****             
 304:IRLoader.h    ****             if (!tempBuffer) {
 305:IRLoader.h    ****                 delete[] irBufferL;
 306:IRLoader.h    ****                 delete[] irBufferR;
 307:IRLoader.h    ****                 f_close(&fileL);
 308:IRLoader.h    ****                 f_close(&fileR);
 309:IRLoader.h    ****                 return false;
 310:IRLoader.h    ****             }
 311:IRLoader.h    ****             
 312:IRLoader.h    ****             result = f_read(&fileL, tempBuffer, numSamples * headerL.numChannels * sizeof(int16_t),
 313:IRLoader.h    ****             
 314:IRLoader.h    ****             if (result != FR_OK) {
 315:IRLoader.h    ****                 delete[] tempBuffer;
 316:IRLoader.h    ****                 delete[] irBufferL;
 317:IRLoader.h    ****                 delete[] irBufferR;
 318:IRLoader.h    ****                 f_close(&fileL);
 319:IRLoader.h    ****                 f_close(&fileR);
 542              		.loc 10 319 24 view .LVU119
 543 0024 FFF7FEFF 		bl	f_close
 544              	.LVL28:
 320:IRLoader.h    ****                 return false;
 545              		.loc 10 320 17 is_stmt 1 view .LVU120
 546              	.L37:
 547              	.LBE303:
 548              	.LBE302:
 321:IRLoader.h    ****             }
 322:IRLoader.h    ****             
 323:IRLoader.h    ****             // Convert to float
 324:IRLoader.h    ****             for (uint32_t i = 0; i < numSamples; i++) {
 325:IRLoader.h    ****                 // If stereo, use left channel
 326:IRLoader.h    ****                 if (headerL.numChannels == 2) {
 327:IRLoader.h    ****                     irBufferL[i] = (float)tempBuffer[i*2] / 32768.0f;
 328:IRLoader.h    ****                 } else {
 329:IRLoader.h    ****                     irBufferL[i] = (float)tempBuffer[i] / 32768.0f;
 330:IRLoader.h    ****                 }
 331:IRLoader.h    ****             }
 332:IRLoader.h    ****             
 333:IRLoader.h    ****             delete[] tempBuffer;
 334:IRLoader.h    ****         } else if (headerL.bitsPerSample == 24) {
 335:IRLoader.h    ****             // 24-bit samples
 336:IRLoader.h    ****             uint8_t* tempBuffer = new uint8_t[numSamples * headerL.numChannels * 3];
 337:IRLoader.h    ****             
 338:IRLoader.h    ****             if (!tempBuffer) {
 339:IRLoader.h    ****                 delete[] irBufferL;
 340:IRLoader.h    ****                 delete[] irBufferR;
ARM GAS  /tmp/cch2Dr4w.s 			page 38


 341:IRLoader.h    ****                 f_close(&fileL);
 342:IRLoader.h    ****                 f_close(&fileR);
 343:IRLoader.h    ****                 return false;
 344:IRLoader.h    ****             }
 345:IRLoader.h    ****             
 346:IRLoader.h    ****             result = f_read(&fileL, tempBuffer, numSamples * headerL.numChannels * 3, &bytesReadL);
 347:IRLoader.h    ****             
 348:IRLoader.h    ****             if (result != FR_OK) {
 349:IRLoader.h    ****                 delete[] tempBuffer;
 350:IRLoader.h    ****                 delete[] irBufferL;
 351:IRLoader.h    ****                 delete[] irBufferR;
 352:IRLoader.h    ****                 f_close(&fileL);
 353:IRLoader.h    ****                 f_close(&fileR);
 354:IRLoader.h    ****                 return false;
 355:IRLoader.h    ****             }
 356:IRLoader.h    ****             
 357:IRLoader.h    ****             // Convert to float
 358:IRLoader.h    ****             for (uint32_t i = 0; i < numSamples; i++) {
 359:IRLoader.h    ****                 // If stereo, use left channel
 360:IRLoader.h    ****                 if (headerL.numChannels == 2) {
 361:IRLoader.h    ****                     int32_t sample = (tempBuffer[i*6] << 8) | (tempBuffer[i*6+1] << 16) | (tempBuff
 362:IRLoader.h    ****                     sample >>= 8;
 363:IRLoader.h    ****                     irBufferL[i] = (float)sample / 8388608.0f;
 364:IRLoader.h    ****                 } else {
 365:IRLoader.h    ****                     int32_t sample = (tempBuffer[i*3] << 8) | (tempBuffer[i*3+1] << 16) | (tempBuff
 366:IRLoader.h    ****                     sample >>= 8;
 367:IRLoader.h    ****                     irBufferL[i] = (float)sample / 8388608.0f;
 368:IRLoader.h    ****                 }
 369:IRLoader.h    ****             }
 370:IRLoader.h    ****             
 371:IRLoader.h    ****             delete[] tempBuffer;
 372:IRLoader.h    ****         } else if (headerL.bitsPerSample == 32) {
 373:IRLoader.h    ****             // 32-bit samples (assume float)
 374:IRLoader.h    ****             result = f_read(&fileL, irBufferL, numSamples * sizeof(float), &bytesReadL);
 375:IRLoader.h    ****             
 376:IRLoader.h    ****             if (result != FR_OK) {
 377:IRLoader.h    ****                 delete[] irBufferL;
 378:IRLoader.h    ****                 delete[] irBufferR;
 379:IRLoader.h    ****                 f_close(&fileL);
 380:IRLoader.h    ****                 f_close(&fileR);
 381:IRLoader.h    ****                 return false;
 382:IRLoader.h    ****             }
 383:IRLoader.h    ****         } else {
 384:IRLoader.h    ****             // Unsupported bit depth
 385:IRLoader.h    ****             delete[] irBufferL;
 386:IRLoader.h    ****             delete[] irBufferR;
 387:IRLoader.h    ****             f_close(&fileL);
 388:IRLoader.h    ****             f_close(&fileR);
 389:IRLoader.h    ****             return false;
 390:IRLoader.h    ****         }
 391:IRLoader.h    ****         
 392:IRLoader.h    ****         // Read samples from right channel
 393:IRLoader.h    ****         if (headerR.bitsPerSample == 16) {
 394:IRLoader.h    ****             // 16-bit samples
 395:IRLoader.h    ****             int16_t* tempBuffer = new int16_t[numSamples * headerR.numChannels];
 396:IRLoader.h    ****             
 397:IRLoader.h    ****             if (!tempBuffer) {
ARM GAS  /tmp/cch2Dr4w.s 			page 39


 398:IRLoader.h    ****                 delete[] irBufferL;
 399:IRLoader.h    ****                 delete[] irBufferR;
 400:IRLoader.h    ****                 f_close(&fileL);
 401:IRLoader.h    ****                 f_close(&fileR);
 402:IRLoader.h    ****                 return false;
 403:IRLoader.h    ****             }
 404:IRLoader.h    ****             
 405:IRLoader.h    ****             result = f_read(&fileR, tempBuffer, numSamples * headerR.numChannels * sizeof(int16_t),
 406:IRLoader.h    ****             
 407:IRLoader.h    ****             if (result != FR_OK) {
 408:IRLoader.h    ****                 delete[] tempBuffer;
 409:IRLoader.h    ****                 delete[] irBufferL;
 410:IRLoader.h    ****                 delete[] irBufferR;
 411:IRLoader.h    ****                 f_close(&fileL);
 412:IRLoader.h    ****                 f_close(&fileR);
 413:IRLoader.h    ****                 return false;
 414:IRLoader.h    ****             }
 415:IRLoader.h    ****             
 416:IRLoader.h    ****             // Convert to float
 417:IRLoader.h    ****             for (uint32_t i = 0; i < numSamples; i++) {
 418:IRLoader.h    ****                 // If stereo, use right channel
 419:IRLoader.h    ****                 if (headerR.numChannels == 2) {
 420:IRLoader.h    ****                     irBufferR[i] = (float)tempBuffer[i*2+1] / 32768.0f;
 421:IRLoader.h    ****                 } else {
 422:IRLoader.h    ****                     irBufferR[i] = (float)tempBuffer[i] / 32768.0f;
 423:IRLoader.h    ****                 }
 424:IRLoader.h    ****             }
 425:IRLoader.h    ****             
 426:IRLoader.h    ****             delete[] tempBuffer;
 427:IRLoader.h    ****         } else if (headerR.bitsPerSample == 24) {
 428:IRLoader.h    ****             // 24-bit samples
 429:IRLoader.h    ****             uint8_t* tempBuffer = new uint8_t[numSamples * headerR.numChannels * 3];
 430:IRLoader.h    ****             
 431:IRLoader.h    ****             if (!tempBuffer) {
 432:IRLoader.h    ****                 delete[] irBufferL;
 433:IRLoader.h    ****                 delete[] irBufferR;
 434:IRLoader.h    ****                 f_close(&fileL);
 435:IRLoader.h    ****                 f_close(&fileR);
 436:IRLoader.h    ****                 return false;
 437:IRLoader.h    ****             }
 438:IRLoader.h    ****             
 439:IRLoader.h    ****             result = f_read(&fileR, tempBuffer, numSamples * headerR.numChannels * 3, &bytesReadR);
 440:IRLoader.h    ****             
 441:IRLoader.h    ****             if (result != FR_OK) {
 442:IRLoader.h    ****                 delete[] tempBuffer;
 443:IRLoader.h    ****                 delete[] irBufferL;
 444:IRLoader.h    ****                 delete[] irBufferR;
 445:IRLoader.h    ****                 f_close(&fileL);
 446:IRLoader.h    ****                 f_close(&fileR);
 447:IRLoader.h    ****                 return false;
 448:IRLoader.h    ****             }
 449:IRLoader.h    ****             
 450:IRLoader.h    ****             // Convert to float
 451:IRLoader.h    ****             for (uint32_t i = 0; i < numSamples; i++) {
 452:IRLoader.h    ****                 // If stereo, use right channel
 453:IRLoader.h    ****                 if (headerR.numChannels == 2) {
 454:IRLoader.h    ****                     int32_t sample = (tempBuffer[i*6+3] << 8) | (tempBuffer[i*6+4] << 16) | (tempBu
ARM GAS  /tmp/cch2Dr4w.s 			page 40


 455:IRLoader.h    ****                     sample >>= 8;
 456:IRLoader.h    ****                     irBufferR[i] = (float)sample / 8388608.0f;
 457:IRLoader.h    ****                 } else {
 458:IRLoader.h    ****                     int32_t sample = (tempBuffer[i*3] << 8) | (tempBuffer[i*3+1] << 16) | (tempBuff
 459:IRLoader.h    ****                     sample >>= 8;
 460:IRLoader.h    ****                     irBufferR[i] = (float)sample / 8388608.0f;
 461:IRLoader.h    ****                 }
 462:IRLoader.h    ****             }
 463:IRLoader.h    ****             
 464:IRLoader.h    ****             delete[] tempBuffer;
 465:IRLoader.h    ****         } else if (headerR.bitsPerSample == 32) {
 466:IRLoader.h    ****             // 32-bit samples (assume float)
 467:IRLoader.h    ****             result = f_read(&fileR, irBufferR, numSamples * sizeof(float), &bytesReadR);
 468:IRLoader.h    ****             
 469:IRLoader.h    ****             if (result != FR_OK) {
 470:IRLoader.h    ****                 delete[] irBufferL;
 471:IRLoader.h    ****                 delete[] irBufferR;
 472:IRLoader.h    ****                 f_close(&fileL);
 473:IRLoader.h    ****                 f_close(&fileR);
 474:IRLoader.h    ****                 return false;
 475:IRLoader.h    ****             }
 476:IRLoader.h    ****         } else {
 477:IRLoader.h    ****             // Unsupported bit depth
 478:IRLoader.h    ****             delete[] irBufferL;
 479:IRLoader.h    ****             delete[] irBufferR;
 480:IRLoader.h    ****             f_close(&fileL);
 481:IRLoader.h    ****             f_close(&fileR);
 482:IRLoader.h    ****             return false;
 483:IRLoader.h    ****         }
 484:IRLoader.h    ****         
 485:IRLoader.h    ****         // Close files
 486:IRLoader.h    ****         f_close(&fileL);
 487:IRLoader.h    ****         f_close(&fileR);
 488:IRLoader.h    ****         
 489:IRLoader.h    ****         // Normalize IRs
 490:IRLoader.h    ****         float maxAbsL = 0.0f;
 491:IRLoader.h    ****         float maxAbsR = 0.0f;
 492:IRLoader.h    ****         
 493:IRLoader.h    ****         for (uint32_t i = 0; i < numSamples; i++) {
 494:IRLoader.h    ****             float absValL = fabsf(irBufferL[i]);
 495:IRLoader.h    ****             float absValR = fabsf(irBufferR[i]);
 496:IRLoader.h    ****             
 497:IRLoader.h    ****             if (absValL > maxAbsL) {
 498:IRLoader.h    ****                 maxAbsL = absValL;
 499:IRLoader.h    ****             }
 500:IRLoader.h    ****             
 501:IRLoader.h    ****             if (absValR > maxAbsR) {
 502:IRLoader.h    ****                 maxAbsR = absValR;
 503:IRLoader.h    ****             }
 504:IRLoader.h    ****         }
 505:IRLoader.h    ****         
 506:IRLoader.h    ****         // Use the larger of the two for normalization
 507:IRLoader.h    ****         float maxAbs = (maxAbsL > maxAbsR) ? maxAbsL : maxAbsR;
 508:IRLoader.h    ****         
 509:IRLoader.h    ****         if (maxAbs > 0.0f) {
 510:IRLoader.h    ****             for (uint32_t i = 0; i < numSamples; i++) {
 511:IRLoader.h    ****                 irBufferL[i] /= maxAbs;
ARM GAS  /tmp/cch2Dr4w.s 			page 41


 512:IRLoader.h    ****                 irBufferR[i] /= maxAbs;
 513:IRLoader.h    ****             }
 514:IRLoader.h    ****         }
 515:IRLoader.h    ****         
 516:IRLoader.h    ****         // Load IR into reverb
 517:IRLoader.h    ****         bool success = LoadIRCallback(irBufferL, irBufferR, numSamples);
 518:IRLoader.h    ****         
 519:IRLoader.h    ****         // Free buffers
 520:IRLoader.h    ****         delete[] irBufferL;
 521:IRLoader.h    ****         delete[] irBufferR;
 522:IRLoader.h    ****         
 523:IRLoader.h    ****         return success;
 524:IRLoader.h    ****     }
 549              		.loc 10 524 5 is_stmt 0 view .LVU121
 550 0028 2046     		mov	r0, r4
 551 002a 0DF2BC4D 		addw	sp, sp, #1212
 552              		.cfi_remember_state
 553              		.cfi_def_cfa_offset 28
 554              		@ sp needed
 555 002e BDE8F083 		pop	{r4, r5, r6, r7, r8, r9, pc}
 556              	.LVL29:
 557              	.L38:
 558              		.cfi_restore_state
 237:IRLoader.h    ****         UINT bytesReadL, bytesReadR;
 559              		.loc 10 237 9 is_stmt 1 view .LVU122
 238:IRLoader.h    ****         
 560              		.loc 10 238 9 view .LVU123
 240:IRLoader.h    ****         if (result != FR_OK || bytesReadL != sizeof(WAVHeader)) {
 561              		.loc 10 240 9 view .LVU124
 240:IRLoader.h    ****         if (result != FR_OK || bytesReadL != sizeof(WAVHeader)) {
 562              		.loc 10 240 24 is_stmt 0 view .LVU125
 563 0032 6B46     		mov	r3, sp
 564 0034 2C22     		movs	r2, #44
 565 0036 02A9     		add	r1, sp, #8
 566 0038 18A8     		add	r0, sp, #96
 567              	.LVL30:
 240:IRLoader.h    ****         if (result != FR_OK || bytesReadL != sizeof(WAVHeader)) {
 568              		.loc 10 240 24 view .LVU126
 569 003a FFF7FEFF 		bl	f_read
 570              	.LVL31:
 241:IRLoader.h    ****             f_close(&fileL);
 571              		.loc 10 241 9 is_stmt 1 view .LVU127
 572 003e 38B1     		cbz	r0, .L39
 573              	.LVL32:
 574              	.L100:
 575              	.LBB319:
 576              	.LBB320:
 480:IRLoader.h    ****             f_close(&fileR);
 577              		.loc 10 480 13 view .LVU128
 480:IRLoader.h    ****             f_close(&fileR);
 578              		.loc 10 480 20 is_stmt 0 view .LVU129
 579 0040 18A8     		add	r0, sp, #96
 580 0042 FFF7FEFF 		bl	f_close
 581              	.LVL33:
 481:IRLoader.h    ****             return false;
 582              		.loc 10 481 13 is_stmt 1 view .LVU130
 481:IRLoader.h    ****             return false;
ARM GAS  /tmp/cch2Dr4w.s 			page 42


 583              		.loc 10 481 20 is_stmt 0 view .LVU131
 584 0046 A3A8     		add	r0, sp, #652
 585 0048 FFF7FEFF 		bl	f_close
 586              	.LVL34:
 482:IRLoader.h    ****         }
 587              		.loc 10 482 13 is_stmt 1 view .LVU132
 588              	.L79:
 589              	.LBE320:
 590              	.LBE319:
 224:IRLoader.h    ****         }
 591              		.loc 10 224 20 is_stmt 0 view .LVU133
 592 004c 0024     		movs	r4, #0
 593 004e EBE7     		b	.L37
 594              	.LVL35:
 595              	.L39:
 241:IRLoader.h    ****             f_close(&fileL);
 596              		.loc 10 241 29 view .LVU134
 597 0050 009A     		ldr	r2, [sp]
 598 0052 2C2A     		cmp	r2, #44
 599 0054 F4D1     		bne	.L100
 247:IRLoader.h    ****         if (result != FR_OK || bytesReadR != sizeof(WAVHeader)) {
 600              		.loc 10 247 9 is_stmt 1 view .LVU135
 247:IRLoader.h    ****         if (result != FR_OK || bytesReadR != sizeof(WAVHeader)) {
 601              		.loc 10 247 24 is_stmt 0 view .LVU136
 602 0056 01AB     		add	r3, sp, #4
 603 0058 0DA9     		add	r1, sp, #52
 604 005a A3A8     		add	r0, sp, #652
 605              	.LVL36:
 247:IRLoader.h    ****         if (result != FR_OK || bytesReadR != sizeof(WAVHeader)) {
 606              		.loc 10 247 24 view .LVU137
 607 005c FFF7FEFF 		bl	f_read
 608              	.LVL37:
 248:IRLoader.h    ****             f_close(&fileL);
 609              		.loc 10 248 9 is_stmt 1 view .LVU138
 610 0060 0028     		cmp	r0, #0
 611 0062 EDD1     		bne	.L100
 248:IRLoader.h    ****             f_close(&fileL);
 612              		.loc 10 248 29 is_stmt 0 view .LVU139
 613 0064 019B     		ldr	r3, [sp, #4]
 614 0066 2C2B     		cmp	r3, #44
 615 0068 EAD1     		bne	.L100
 255:IRLoader.h    ****             strncmp(headerL.wave, "WAVE", 4) != 0 || 
 616              		.loc 10 255 9 is_stmt 1 view .LVU140
 255:IRLoader.h    ****             strncmp(headerL.wave, "WAVE", 4) != 0 || 
 617              		.loc 10 255 20 is_stmt 0 view .LVU141
 618 006a 0422     		movs	r2, #4
 619 006c 9649     		ldr	r1, .L101+8
 620 006e 02A8     		add	r0, sp, #8
 621              	.LVL38:
 255:IRLoader.h    ****             strncmp(headerL.wave, "WAVE", 4) != 0 || 
 622              		.loc 10 255 20 view .LVU142
 623 0070 FFF7FEFF 		bl	strncmp
 624              	.LVL39:
 255:IRLoader.h    ****             strncmp(headerL.wave, "WAVE", 4) != 0 || 
 625              		.loc 10 255 9 view .LVU143
 626 0074 0028     		cmp	r0, #0
 627 0076 E3D1     		bne	.L100
ARM GAS  /tmp/cch2Dr4w.s 			page 43


 256:IRLoader.h    ****             strncmp(headerL.fmt, "fmt ", 4) != 0 || 
 628              		.loc 10 256 20 view .LVU144
 629 0078 0422     		movs	r2, #4
 630 007a 9449     		ldr	r1, .L101+12
 631 007c 04A8     		add	r0, sp, #16
 632 007e FFF7FEFF 		bl	strncmp
 633              	.LVL40:
 255:IRLoader.h    ****             strncmp(headerL.wave, "WAVE", 4) != 0 || 
 634              		.loc 10 255 51 view .LVU145
 635 0082 0028     		cmp	r0, #0
 636 0084 DCD1     		bne	.L100
 257:IRLoader.h    ****             strncmp(headerL.data, "data", 4) != 0 ||
 637              		.loc 10 257 20 view .LVU146
 638 0086 0422     		movs	r2, #4
 639 0088 9149     		ldr	r1, .L101+16
 640 008a 05A8     		add	r0, sp, #20
 641 008c FFF7FEFF 		bl	strncmp
 642              	.LVL41:
 256:IRLoader.h    ****             strncmp(headerL.fmt, "fmt ", 4) != 0 || 
 643              		.loc 10 256 51 view .LVU147
 644 0090 0028     		cmp	r0, #0
 645 0092 D5D1     		bne	.L100
 258:IRLoader.h    ****             strncmp(headerR.riff, "RIFF", 4) != 0 || 
 646              		.loc 10 258 20 view .LVU148
 647 0094 0422     		movs	r2, #4
 648 0096 8F49     		ldr	r1, .L101+20
 649 0098 0BA8     		add	r0, sp, #44
 650 009a FFF7FEFF 		bl	strncmp
 651              	.LVL42:
 257:IRLoader.h    ****             strncmp(headerL.data, "data", 4) != 0 ||
 652              		.loc 10 257 50 view .LVU149
 653 009e 0028     		cmp	r0, #0
 654 00a0 CED1     		bne	.L100
 259:IRLoader.h    ****             strncmp(headerR.wave, "WAVE", 4) != 0 || 
 655              		.loc 10 259 20 view .LVU150
 656 00a2 0422     		movs	r2, #4
 657 00a4 8849     		ldr	r1, .L101+8
 658 00a6 0DA8     		add	r0, sp, #52
 659 00a8 FFF7FEFF 		bl	strncmp
 660              	.LVL43:
 258:IRLoader.h    ****             strncmp(headerR.riff, "RIFF", 4) != 0 || 
 661              		.loc 10 258 51 view .LVU151
 662 00ac 0028     		cmp	r0, #0
 663 00ae C7D1     		bne	.L100
 260:IRLoader.h    ****             strncmp(headerR.fmt, "fmt ", 4) != 0 || 
 664              		.loc 10 260 20 view .LVU152
 665 00b0 0422     		movs	r2, #4
 666 00b2 8649     		ldr	r1, .L101+12
 667 00b4 0FA8     		add	r0, sp, #60
 668 00b6 FFF7FEFF 		bl	strncmp
 669              	.LVL44:
 259:IRLoader.h    ****             strncmp(headerR.wave, "WAVE", 4) != 0 || 
 670              		.loc 10 259 51 view .LVU153
 671 00ba 0028     		cmp	r0, #0
 672 00bc C0D1     		bne	.L100
 261:IRLoader.h    ****             strncmp(headerR.data, "data", 4) != 0) {
 673              		.loc 10 261 20 view .LVU154
ARM GAS  /tmp/cch2Dr4w.s 			page 44


 674 00be 0422     		movs	r2, #4
 675 00c0 8349     		ldr	r1, .L101+16
 676 00c2 10A8     		add	r0, sp, #64
 677 00c4 FFF7FEFF 		bl	strncmp
 678              	.LVL45:
 260:IRLoader.h    ****             strncmp(headerR.fmt, "fmt ", 4) != 0 || 
 679              		.loc 10 260 51 view .LVU155
 680 00c8 0028     		cmp	r0, #0
 681 00ca B9D1     		bne	.L100
 262:IRLoader.h    ****             f_close(&fileL);
 682              		.loc 10 262 20 view .LVU156
 683 00cc 0422     		movs	r2, #4
 684 00ce 8149     		ldr	r1, .L101+20
 685 00d0 16A8     		add	r0, sp, #88
 686 00d2 FFF7FEFF 		bl	strncmp
 687              	.LVL46:
 261:IRLoader.h    ****             strncmp(headerR.data, "data", 4) != 0) {
 688              		.loc 10 261 50 view .LVU157
 689 00d6 0446     		mov	r4, r0
 690 00d8 0028     		cmp	r0, #0
 691 00da B1D1     		bne	.L100
 269:IRLoader.h    ****             f_close(&fileL);
 692              		.loc 10 269 9 is_stmt 1 view .LVU158
 693 00dc BDF81C30 		ldrh	r3, [sp, #28]
 694 00e0 012B     		cmp	r3, #1
 695 00e2 ADD1     		bne	.L100
 269:IRLoader.h    ****             f_close(&fileL);
 696              		.loc 10 269 38 is_stmt 0 view .LVU159
 697 00e4 BDF84830 		ldrh	r3, [sp, #72]
 698 00e8 012B     		cmp	r3, #1
 699 00ea A9D1     		bne	.L100
 276:IRLoader.h    ****         uint32_t numSamplesR = headerR.dataSize / (headerR.numChannels * (headerR.bitsPerSample / 8
 700              		.loc 10 276 9 is_stmt 1 view .LVU160
 701              	.LVL47:
 277:IRLoader.h    ****         
 702              		.loc 10 277 9 view .LVU161
 280:IRLoader.h    ****         
 703              		.loc 10 280 9 view .LVU162
 283:IRLoader.h    ****             numSamples = MAX_IR_LENGTH;
 704              		.loc 10 283 9 view .LVU163
 276:IRLoader.h    ****         uint32_t numSamplesR = headerR.dataSize / (headerR.numChannels * (headerR.bitsPerSample / 8
 705              		.loc 10 276 97 is_stmt 0 view .LVU164
 706 00ec BDF82A30 		ldrh	r3, [sp, #42]
 276:IRLoader.h    ****         uint32_t numSamplesR = headerR.dataSize / (headerR.numChannels * (headerR.bitsPerSample / 8
 707              		.loc 10 276 60 view .LVU165
 708 00f0 BDF81E70 		ldrh	r7, [sp, #30]
 276:IRLoader.h    ****         uint32_t numSamplesR = headerR.dataSize / (headerR.numChannels * (headerR.bitsPerSample / 8
 709              		.loc 10 276 97 view .LVU166
 710 00f4 DB08     		lsrs	r3, r3, #3
 277:IRLoader.h    ****         
 711              		.loc 10 277 60 view .LVU167
 712 00f6 BDF84A20 		ldrh	r2, [sp, #74]
 276:IRLoader.h    ****         uint32_t numSamplesR = headerR.dataSize / (headerR.numChannels * (headerR.bitsPerSample / 8
 713              		.loc 10 276 72 view .LVU168
 714 00fa 7B43     		muls	r3, r7, r3
 276:IRLoader.h    ****         uint32_t numSamplesR = headerR.dataSize / (headerR.numChannels * (headerR.bitsPerSample / 8
 715              		.loc 10 276 18 view .LVU169
ARM GAS  /tmp/cch2Dr4w.s 			page 45


 716 00fc 0C9F     		ldr	r7, [sp, #48]
 717 00fe B7FBF3F7 		udiv	r7, r7, r3
 277:IRLoader.h    ****         
 718              		.loc 10 277 97 view .LVU170
 719 0102 BDF85630 		ldrh	r3, [sp, #86]
 720 0106 DB08     		lsrs	r3, r3, #3
 277:IRLoader.h    ****         
 721              		.loc 10 277 72 view .LVU171
 722 0108 5343     		muls	r3, r2, r3
 277:IRLoader.h    ****         
 723              		.loc 10 277 18 view .LVU172
 724 010a 179A     		ldr	r2, [sp, #92]
 725 010c B2FBF3F3 		udiv	r3, r2, r3
 726 0110 9F42     		cmp	r7, r3
 727 0112 28BF     		it	cs
 728 0114 1F46     		movcs	r7, r3
 729 0116 B7F5805F 		cmp	r7, #4096
 730 011a 28BF     		it	cs
 731 011c 4FF48057 		movcs	r7, #4096
 732              	.LVL48:
 288:IRLoader.h    ****         float* irBufferR = new float[numSamples];
 733              		.loc 10 288 48 view .LVU173
 734 0120 4FEA8708 		lsl	r8, r7, #2
 735 0124 4046     		mov	r0, r8
 736 0126 FFF7FEFF 		bl	_Znaj
 737              	.LVL49:
 288:IRLoader.h    ****         float* irBufferR = new float[numSamples];
 738              		.loc 10 288 48 view .LVU174
 739 012a 0546     		mov	r5, r0
 740              	.LVL50:
 289:IRLoader.h    ****         
 741              		.loc 10 289 9 is_stmt 1 view .LVU175
 289:IRLoader.h    ****         
 742              		.loc 10 289 48 is_stmt 0 view .LVU176
 743 012c 4046     		mov	r0, r8
 744              	.LVL51:
 289:IRLoader.h    ****         
 745              		.loc 10 289 48 view .LVU177
 746 012e FFF7FEFF 		bl	_Znaj
 747              	.LVL52:
 748              	.LBB338:
 300:IRLoader.h    ****             // 16-bit samples
 749              		.loc 10 300 21 view .LVU178
 750 0132 BDF82A30 		ldrh	r3, [sp, #42]
 751              	.LBE338:
 289:IRLoader.h    ****         
 752              		.loc 10 289 48 view .LVU179
 753 0136 0646     		mov	r6, r0
 754              	.LVL53:
 291:IRLoader.h    ****             if (irBufferL) delete[] irBufferL;
 755              		.loc 10 291 9 is_stmt 1 view .LVU180
 300:IRLoader.h    ****             // 16-bit samples
 756              		.loc 10 300 9 view .LVU181
 757              	.LBB339:
 758 0138 102B     		cmp	r3, #16
 759 013a 38D1     		bne	.L41
 760              	.LBB305:
ARM GAS  /tmp/cch2Dr4w.s 			page 46


 302:IRLoader.h    ****             
 761              		.loc 10 302 13 view .LVU182
 302:IRLoader.h    ****             
 762              		.loc 10 302 68 is_stmt 0 view .LVU183
 763 013c BDF81E00 		ldrh	r0, [sp, #30]
 764              	.LVL54:
 302:IRLoader.h    ****             
 765              		.loc 10 302 79 view .LVU184
 766 0140 7843     		muls	r0, r7, r0
 767 0142 4000     		lsls	r0, r0, #1
 768 0144 FFF7FEFF 		bl	_Znaj
 769              	.LVL55:
 312:IRLoader.h    ****             
 770              		.loc 10 312 70 view .LVU185
 771 0148 BDF81E20 		ldrh	r2, [sp, #30]
 312:IRLoader.h    ****             
 772              		.loc 10 312 28 view .LVU186
 773 014c 6B46     		mov	r3, sp
 774 014e 0146     		mov	r1, r0
 312:IRLoader.h    ****             
 775              		.loc 10 312 82 view .LVU187
 776 0150 7A43     		muls	r2, r7, r2
 302:IRLoader.h    ****             
 777              		.loc 10 302 79 view .LVU188
 778 0152 8146     		mov	r9, r0
 779              	.LVL56:
 304:IRLoader.h    ****                 delete[] irBufferL;
 780              		.loc 10 304 13 is_stmt 1 view .LVU189
 312:IRLoader.h    ****             
 781              		.loc 10 312 13 view .LVU190
 312:IRLoader.h    ****             
 782              		.loc 10 312 28 is_stmt 0 view .LVU191
 783 0154 18A8     		add	r0, sp, #96
 784              	.LVL57:
 312:IRLoader.h    ****             
 785              		.loc 10 312 28 view .LVU192
 786 0156 5200     		lsls	r2, r2, #1
 787 0158 FFF7FEFF 		bl	f_read
 788              	.LVL58:
 314:IRLoader.h    ****                 delete[] tempBuffer;
 789              		.loc 10 314 13 is_stmt 1 view .LVU193
 790 015c 0346     		mov	r3, r0
 791 015e C0B9     		cbnz	r0, .L42
 792              	.LBB304:
 326:IRLoader.h    ****                     irBufferL[i] = (float)tempBuffer[i*2] / 32768.0f;
 793              		.loc 10 326 29 is_stmt 0 view .LVU194
 794 0160 BDF81E10 		ldrh	r1, [sp, #30]
 795 0164 2A46     		mov	r2, r5
 796              	.LVL59:
 797              	.L43:
 324:IRLoader.h    ****                 // If stereo, use left channel
 798              		.loc 10 324 36 is_stmt 1 view .LVU195
 799 0166 9F42     		cmp	r7, r3
 800 0168 64D0     		beq	.L51
 326:IRLoader.h    ****                     irBufferL[i] = (float)tempBuffer[i*2] / 32768.0f;
 801              		.loc 10 326 17 view .LVU196
 802 016a 0229     		cmp	r1, #2
ARM GAS  /tmp/cch2Dr4w.s 			page 47


 803 016c 9FED5A7A 		vldr.32	s14, .L101+24
 327:IRLoader.h    ****                 } else {
 804              		.loc 10 327 21 view .LVU197
 805 0170 02F10402 		add	r2, r2, #4
 327:IRLoader.h    ****                 } else {
 806              		.loc 10 327 36 is_stmt 0 view .LVU198
 807 0174 0CBF     		ite	eq
 808 0176 39F92300 		ldrsheq	r0, [r9, r3, lsl #2]
 329:IRLoader.h    ****                 }
 809              		.loc 10 329 21 is_stmt 1 view .LVU199
 329:IRLoader.h    ****                 }
 810              		.loc 10 329 36 is_stmt 0 view .LVU200
 811 017a 39F91300 		ldrshne	r0, [r9, r3, lsl #1]
 324:IRLoader.h    ****                 // If stereo, use left channel
 812              		.loc 10 324 13 view .LVU201
 813 017e 0133     		adds	r3, r3, #1
 814              	.LVL60:
 329:IRLoader.h    ****                 }
 815              		.loc 10 329 36 view .LVU202
 816 0180 07EE900A 		vmov	s15, r0	@ int
 817 0184 F8EEE77A 		vcvt.f32.s32	s15, s15
 329:IRLoader.h    ****                 }
 818              		.loc 10 329 57 view .LVU203
 819 0188 67EE877A 		vmul.f32	s15, s15, s14
 329:IRLoader.h    ****                 }
 820              		.loc 10 329 34 view .LVU204
 821 018c 42ED017A 		vstr.32	s15, [r2, #-4]
 324:IRLoader.h    ****                 // If stereo, use left channel
 822              		.loc 10 324 13 is_stmt 1 view .LVU205
 823              	.LVL61:
 324:IRLoader.h    ****                 // If stereo, use left channel
 824              		.loc 10 324 13 is_stmt 0 view .LVU206
 825 0190 E9E7     		b	.L43
 826              	.LVL62:
 827              	.L42:
 324:IRLoader.h    ****                 // If stereo, use left channel
 828              		.loc 10 324 13 view .LVU207
 829              	.LBE304:
 315:IRLoader.h    ****                 delete[] irBufferL;
 830              		.loc 10 315 17 is_stmt 1 view .LVU208
 315:IRLoader.h    ****                 delete[] irBufferL;
 831              		.loc 10 315 26 is_stmt 0 view .LVU209
 832 0192 4846     		mov	r0, r9
 833              	.LVL63:
 315:IRLoader.h    ****                 delete[] irBufferL;
 834              		.loc 10 315 26 view .LVU210
 835 0194 FFF7FEFF 		bl	_ZdaPv
 836              	.LVL64:
 837              	.L99:
 316:IRLoader.h    ****                 delete[] irBufferR;
 838              		.loc 10 316 17 is_stmt 1 view .LVU211
 316:IRLoader.h    ****                 delete[] irBufferR;
 839              		.loc 10 316 26 is_stmt 0 view .LVU212
 840 0198 2846     		mov	r0, r5
 841 019a FFF7FEFF 		bl	_ZdaPv
 842              	.LVL65:
 317:IRLoader.h    ****                 f_close(&fileL);
ARM GAS  /tmp/cch2Dr4w.s 			page 48


 843              		.loc 10 317 17 is_stmt 1 view .LVU213
 317:IRLoader.h    ****                 f_close(&fileL);
 844              		.loc 10 317 26 is_stmt 0 view .LVU214
 845 019e 3046     		mov	r0, r6
 846 01a0 FFF7FEFF 		bl	_ZdaPv
 847              	.LVL66:
 318:IRLoader.h    ****                 f_close(&fileR);
 848              		.loc 10 318 17 is_stmt 1 view .LVU215
 318:IRLoader.h    ****                 f_close(&fileR);
 849              		.loc 10 318 24 is_stmt 0 view .LVU216
 850 01a4 18A8     		add	r0, sp, #96
 851 01a6 FFF7FEFF 		bl	f_close
 852              	.LVL67:
 319:IRLoader.h    ****                 return false;
 853              		.loc 10 319 17 is_stmt 1 view .LVU217
 319:IRLoader.h    ****                 return false;
 854              		.loc 10 319 24 is_stmt 0 view .LVU218
 855 01aa A3A8     		add	r0, sp, #652
 856 01ac 3AE7     		b	.L98
 857              	.LVL68:
 858              	.L41:
 319:IRLoader.h    ****                 return false;
 859              		.loc 10 319 24 view .LVU219
 860              	.LBE305:
 861              	.LBE339:
 334:IRLoader.h    ****             // 24-bit samples
 862              		.loc 10 334 16 is_stmt 1 view .LVU220
 863              	.LBB340:
 864              	.LBB306:
 865 01ae 182B     		cmp	r3, #24
 866 01b0 74D1     		bne	.L48
 867              	.LBB307:
 336:IRLoader.h    ****             
 868              		.loc 10 336 13 view .LVU221
 336:IRLoader.h    ****             
 869              		.loc 10 336 68 is_stmt 0 view .LVU222
 870 01b2 BDF81E00 		ldrh	r0, [sp, #30]
 871              	.LVL69:
 336:IRLoader.h    ****             
 872              		.loc 10 336 80 view .LVU223
 873 01b6 7843     		muls	r0, r7, r0
 336:IRLoader.h    ****             
 874              		.loc 10 336 83 view .LVU224
 875 01b8 00EB4000 		add	r0, r0, r0, lsl #1
 876 01bc FFF7FEFF 		bl	_Znaj
 877              	.LVL70:
 346:IRLoader.h    ****             
 878              		.loc 10 346 70 view .LVU225
 879 01c0 BDF81E20 		ldrh	r2, [sp, #30]
 336:IRLoader.h    ****             
 880              		.loc 10 336 83 view .LVU226
 881 01c4 8146     		mov	r9, r0
 882              	.LVL71:
 338:IRLoader.h    ****                 delete[] irBufferL;
 883              		.loc 10 338 13 is_stmt 1 view .LVU227
 346:IRLoader.h    ****             
 884              		.loc 10 346 13 view .LVU228
ARM GAS  /tmp/cch2Dr4w.s 			page 49


 346:IRLoader.h    ****             
 885              		.loc 10 346 28 is_stmt 0 view .LVU229
 886 01c6 0146     		mov	r1, r0
 346:IRLoader.h    ****             
 887              		.loc 10 346 82 view .LVU230
 888 01c8 7A43     		muls	r2, r7, r2
 346:IRLoader.h    ****             
 889              		.loc 10 346 28 view .LVU231
 890 01ca 6B46     		mov	r3, sp
 891 01cc 18A8     		add	r0, sp, #96
 892              	.LVL72:
 346:IRLoader.h    ****             
 893              		.loc 10 346 28 view .LVU232
 894 01ce 02EB4202 		add	r2, r2, r2, lsl #1
 895 01d2 FFF7FEFF 		bl	f_read
 896              	.LVL73:
 348:IRLoader.h    ****                 delete[] tempBuffer;
 897              		.loc 10 348 13 is_stmt 1 view .LVU233
 898 01d6 0028     		cmp	r0, #0
 899 01d8 DBD1     		bne	.L42
 900              	.LBB308:
 901              	.LBB309:
 360:IRLoader.h    ****                     int32_t sample = (tempBuffer[i*6] << 8) | (tempBuffer[i*6+1] << 16) | (tempBuff
 902              		.loc 10 360 29 is_stmt 0 view .LVU234
 903 01da BDF81E40 		ldrh	r4, [sp, #30]
 904 01de 4846     		mov	r0, r9
 905              	.LVL74:
 360:IRLoader.h    ****                     int32_t sample = (tempBuffer[i*6] << 8) | (tempBuffer[i*6+1] << 16) | (tempBuff
 906              		.loc 10 360 29 view .LVU235
 907 01e0 2946     		mov	r1, r5
 908 01e2 08EB050C 		add	ip, r8, r5
 909 01e6 4A46     		mov	r2, r9
 910              	.L50:
 360:IRLoader.h    ****                     int32_t sample = (tempBuffer[i*6] << 8) | (tempBuffer[i*6+1] << 16) | (tempBuff
 911              		.loc 10 360 29 view .LVU236
 912              	.LBE309:
 358:IRLoader.h    ****                 // If stereo, use left channel
 913              		.loc 10 358 36 is_stmt 1 view .LVU237
 914 01e8 6145     		cmp	r1, ip
 915 01ea 23D0     		beq	.L51
 916              	.LBE308:
 917              	.LBE307:
 918              	.LBE306:
 919              	.LBE340:
 360:IRLoader.h    ****                     int32_t sample = (tempBuffer[i*6] << 8) | (tempBuffer[i*6+1] << 16) | (tempBuff
 920              		.loc 10 360 17 view .LVU238
 921              	.LBB341:
 922              	.LBB317:
 923              	.LBB316:
 924              	.LBB315:
 925              	.LBB313:
 926 01ec 022C     		cmp	r4, #2
 927 01ee 9FED3B7A 		vldr.32	s14, .L101+28
 928 01f2 16D1     		bne	.L52
 929              	.LBB310:
 361:IRLoader.h    ****                     sample >>= 8;
 930              		.loc 10 361 21 view .LVU239
ARM GAS  /tmp/cch2Dr4w.s 			page 50


 361:IRLoader.h    ****                     sample >>= 8;
 931              		.loc 10 361 80 is_stmt 0 view .LVU240
 932 01f4 4378     		ldrb	r3, [r0, #1]	@ zero_extendqisi2
 361:IRLoader.h    ****                     sample >>= 8;
 933              		.loc 10 361 53 view .LVU241
 934 01f6 90F800E0 		ldrb	lr, [r0]	@ zero_extendqisi2
 361:IRLoader.h    ****                     sample >>= 8;
 935              		.loc 10 361 82 view .LVU242
 936 01fa 1B04     		lsls	r3, r3, #16
 361:IRLoader.h    ****                     sample >>= 8;
 937              		.loc 10 361 29 view .LVU243
 938 01fc 43EA0E23 		orr	r3, r3, lr, lsl #8
 361:IRLoader.h    ****                     sample >>= 8;
 939              		.loc 10 361 108 view .LVU244
 940 0200 90F802E0 		ldrb	lr, [r0, #2]	@ zero_extendqisi2
 941              	.L95:
 942              	.LBE310:
 943              	.LBB311:
 365:IRLoader.h    ****                     sample >>= 8;
 944              		.loc 10 365 29 view .LVU245
 945 0204 43EA0E63 		orr	r3, r3, lr, lsl #24
 946              	.LVL75:
 366:IRLoader.h    ****                     irBufferL[i] = (float)sample / 8388608.0f;
 947              		.loc 10 366 21 is_stmt 1 view .LVU246
 367:IRLoader.h    ****                 }
 948              		.loc 10 367 21 view .LVU247
 949 0208 0630     		adds	r0, r0, #6
 950 020a 0431     		adds	r1, r1, #4
 951 020c 0332     		adds	r2, r2, #3
 366:IRLoader.h    ****                     irBufferL[i] = (float)sample / 8388608.0f;
 952              		.loc 10 366 28 is_stmt 0 view .LVU248
 953 020e 1B12     		asrs	r3, r3, #8
 954              	.LVL76:
 366:IRLoader.h    ****                     irBufferL[i] = (float)sample / 8388608.0f;
 955              		.loc 10 366 28 view .LVU249
 956 0210 07EE903A 		vmov	s15, r3	@ int
 367:IRLoader.h    ****                 }
 957              		.loc 10 367 36 view .LVU250
 958 0214 F8EEE77A 		vcvt.f32.s32	s15, s15
 367:IRLoader.h    ****                 }
 959              		.loc 10 367 50 view .LVU251
 960 0218 67EE877A 		vmul.f32	s15, s15, s14
 367:IRLoader.h    ****                 }
 961              		.loc 10 367 34 view .LVU252
 962 021c 41ED017A 		vstr.32	s15, [r1, #-4]
 963              	.LBE311:
 964              	.LBE313:
 358:IRLoader.h    ****                 // If stereo, use left channel
 965              		.loc 10 358 13 is_stmt 1 view .LVU253
 966 0220 E2E7     		b	.L50
 967              	.LVL77:
 968              	.L52:
 969              	.LBB314:
 970              	.LBB312:
 365:IRLoader.h    ****                     sample >>= 8;
 971              		.loc 10 365 21 view .LVU254
 365:IRLoader.h    ****                     sample >>= 8;
ARM GAS  /tmp/cch2Dr4w.s 			page 51


 972              		.loc 10 365 80 is_stmt 0 view .LVU255
 973 0222 5378     		ldrb	r3, [r2, #1]	@ zero_extendqisi2
 365:IRLoader.h    ****                     sample >>= 8;
 974              		.loc 10 365 53 view .LVU256
 975 0224 92F800E0 		ldrb	lr, [r2]	@ zero_extendqisi2
 365:IRLoader.h    ****                     sample >>= 8;
 976              		.loc 10 365 82 view .LVU257
 977 0228 1B04     		lsls	r3, r3, #16
 365:IRLoader.h    ****                     sample >>= 8;
 978              		.loc 10 365 29 view .LVU258
 979 022a 43EA0E23 		orr	r3, r3, lr, lsl #8
 365:IRLoader.h    ****                     sample >>= 8;
 980              		.loc 10 365 108 view .LVU259
 981 022e 92F802E0 		ldrb	lr, [r2, #2]	@ zero_extendqisi2
 982 0232 E7E7     		b	.L95
 983              	.LVL78:
 984              	.L51:
 365:IRLoader.h    ****                     sample >>= 8;
 985              		.loc 10 365 108 view .LVU260
 986              	.LBE312:
 987              	.LBE314:
 988              	.LBE315:
 371:IRLoader.h    ****         } else if (headerL.bitsPerSample == 32) {
 989              		.loc 10 371 13 is_stmt 1 view .LVU261
 371:IRLoader.h    ****         } else if (headerL.bitsPerSample == 32) {
 990              		.loc 10 371 22 is_stmt 0 view .LVU262
 991 0234 4846     		mov	r0, r9
 992 0236 FFF7FEFF 		bl	_ZdaPv
 993              	.LVL79:
 994              	.L47:
 995              	.LBE316:
 996              	.LBE317:
 997              	.LBE341:
 393:IRLoader.h    ****             // 16-bit samples
 998              		.loc 10 393 9 is_stmt 1 view .LVU263
 999              	.LBB342:
 393:IRLoader.h    ****             // 16-bit samples
 1000              		.loc 10 393 21 is_stmt 0 view .LVU264
 1001 023a BDF85630 		ldrh	r3, [sp, #86]
 393:IRLoader.h    ****             // 16-bit samples
 1002              		.loc 10 393 9 view .LVU265
 1003 023e 102B     		cmp	r3, #16
 1004 0240 50D1     		bne	.L55
 1005              	.LBB332:
 395:IRLoader.h    ****             
 1006              		.loc 10 395 13 is_stmt 1 view .LVU266
 395:IRLoader.h    ****             
 1007              		.loc 10 395 68 is_stmt 0 view .LVU267
 1008 0242 BDF84A00 		ldrh	r0, [sp, #74]
 395:IRLoader.h    ****             
 1009              		.loc 10 395 79 view .LVU268
 1010 0246 7843     		muls	r0, r7, r0
 1011 0248 4000     		lsls	r0, r0, #1
 1012 024a FFF7FEFF 		bl	_Znaj
 1013              	.LVL80:
 405:IRLoader.h    ****             
 1014              		.loc 10 405 70 view .LVU269
ARM GAS  /tmp/cch2Dr4w.s 			page 52


 1015 024e BDF84A20 		ldrh	r2, [sp, #74]
 405:IRLoader.h    ****             
 1016              		.loc 10 405 28 view .LVU270
 1017 0252 01AB     		add	r3, sp, #4
 1018 0254 0146     		mov	r1, r0
 405:IRLoader.h    ****             
 1019              		.loc 10 405 82 view .LVU271
 1020 0256 7A43     		muls	r2, r7, r2
 395:IRLoader.h    ****             
 1021              		.loc 10 395 79 view .LVU272
 1022 0258 0446     		mov	r4, r0
 1023              	.LVL81:
 397:IRLoader.h    ****                 delete[] irBufferL;
 1024              		.loc 10 397 13 is_stmt 1 view .LVU273
 405:IRLoader.h    ****             
 1025              		.loc 10 405 13 view .LVU274
 405:IRLoader.h    ****             
 1026              		.loc 10 405 28 is_stmt 0 view .LVU275
 1027 025a A3A8     		add	r0, sp, #652
 1028              	.LVL82:
 405:IRLoader.h    ****             
 1029              		.loc 10 405 28 view .LVU276
 1030 025c 5200     		lsls	r2, r2, #1
 1031 025e FFF7FEFF 		bl	f_read
 1032              	.LVL83:
 407:IRLoader.h    ****                 delete[] tempBuffer;
 1033              		.loc 10 407 13 is_stmt 1 view .LVU277
 1034 0262 0346     		mov	r3, r0
 1035 0264 0028     		cmp	r0, #0
 1036 0266 77D1     		bne	.L63
 1037              	.LBB333:
 419:IRLoader.h    ****                     irBufferR[i] = (float)tempBuffer[i*2+1] / 32768.0f;
 1038              		.loc 10 419 29 is_stmt 0 view .LVU278
 1039 0268 BDF84A10 		ldrh	r1, [sp, #74]
 1040 026c 3246     		mov	r2, r6
 1041              	.LVL84:
 1042              	.L57:
 417:IRLoader.h    ****                 // If stereo, use right channel
 1043              		.loc 10 417 36 is_stmt 1 view .LVU279
 1044 026e 9F42     		cmp	r7, r3
 1045 0270 7FD0     		beq	.L65
 419:IRLoader.h    ****                     irBufferR[i] = (float)tempBuffer[i*2+1] / 32768.0f;
 1046              		.loc 10 419 17 view .LVU280
 1047 0272 0229     		cmp	r1, #2
 1048 0274 9FED187A 		vldr.32	s14, .L101+24
 420:IRLoader.h    ****                 } else {
 1049              		.loc 10 420 21 view .LVU281
 1050 0278 02F10402 		add	r2, r2, #4
 420:IRLoader.h    ****                 } else {
 1051              		.loc 10 420 59 is_stmt 0 view .LVU282
 1052 027c 0ABF     		itet	eq
 1053 027e A01C     		addeq	r0, r4, #2
 422:IRLoader.h    ****                 }
 1054              		.loc 10 422 36 view .LVU283
 1055 0280 34F91300 		ldrshne	r0, [r4, r3, lsl #1]
 420:IRLoader.h    ****                 } else {
 1056              		.loc 10 420 36 view .LVU284
ARM GAS  /tmp/cch2Dr4w.s 			page 53


 1057 0284 30F92300 		ldrsheq	r0, [r0, r3, lsl #2]
 422:IRLoader.h    ****                 }
 1058              		.loc 10 422 21 is_stmt 1 view .LVU285
 417:IRLoader.h    ****                 // If stereo, use right channel
 1059              		.loc 10 417 13 is_stmt 0 view .LVU286
 1060 0288 0133     		adds	r3, r3, #1
 1061              	.LVL85:
 422:IRLoader.h    ****                 }
 1062              		.loc 10 422 36 view .LVU287
 1063 028a 07EE900A 		vmov	s15, r0	@ int
 1064 028e F8EEE77A 		vcvt.f32.s32	s15, s15
 422:IRLoader.h    ****                 }
 1065              		.loc 10 422 57 view .LVU288
 1066 0292 67EE877A 		vmul.f32	s15, s15, s14
 422:IRLoader.h    ****                 }
 1067              		.loc 10 422 34 view .LVU289
 1068 0296 42ED017A 		vstr.32	s15, [r2, #-4]
 417:IRLoader.h    ****                 // If stereo, use right channel
 1069              		.loc 10 417 13 is_stmt 1 view .LVU290
 1070              	.LVL86:
 417:IRLoader.h    ****                 // If stereo, use right channel
 1071              		.loc 10 417 13 is_stmt 0 view .LVU291
 1072 029a E8E7     		b	.L57
 1073              	.LVL87:
 1074              	.L48:
 417:IRLoader.h    ****                 // If stereo, use right channel
 1075              		.loc 10 417 13 view .LVU292
 1076              	.LBE333:
 1077              	.LBE332:
 1078              	.LBE342:
 1079              	.LBB343:
 1080              	.LBB318:
 372:IRLoader.h    ****             // 32-bit samples (assume float)
 1081              		.loc 10 372 16 is_stmt 1 view .LVU293
 1082 029c 202B     		cmp	r3, #32
 1083 029e 7FF47BAF 		bne	.L99
 374:IRLoader.h    ****             
 1084              		.loc 10 374 13 view .LVU294
 374:IRLoader.h    ****             
 1085              		.loc 10 374 28 is_stmt 0 view .LVU295
 1086 02a2 6B46     		mov	r3, sp
 1087 02a4 4246     		mov	r2, r8
 1088 02a6 2946     		mov	r1, r5
 1089 02a8 18A8     		add	r0, sp, #96
 1090              	.LVL88:
 374:IRLoader.h    ****             
 1091              		.loc 10 374 28 view .LVU296
 1092 02aa FFF7FEFF 		bl	f_read
 1093              	.LVL89:
 376:IRLoader.h    ****                 delete[] irBufferL;
 1094              		.loc 10 376 13 is_stmt 1 view .LVU297
 1095 02ae 0028     		cmp	r0, #0
 1096 02b0 C3D0     		beq	.L47
 1097              	.LVL90:
 1098              	.L68:
 376:IRLoader.h    ****                 delete[] irBufferL;
 1099              		.loc 10 376 13 is_stmt 0 view .LVU298
ARM GAS  /tmp/cch2Dr4w.s 			page 54


 1100              	.LBE318:
 1101              	.LBE343:
 1102              	.LBB344:
 1103              	.LBB334:
 478:IRLoader.h    ****             delete[] irBufferR;
 1104              		.loc 10 478 13 is_stmt 1 view .LVU299
 478:IRLoader.h    ****             delete[] irBufferR;
 1105              		.loc 10 478 22 is_stmt 0 view .LVU300
 1106 02b2 2846     		mov	r0, r5
 1107 02b4 FFF7FEFF 		bl	_ZdaPv
 1108              	.LVL91:
 479:IRLoader.h    ****             f_close(&fileL);
 1109              		.loc 10 479 13 is_stmt 1 view .LVU301
 479:IRLoader.h    ****             f_close(&fileL);
 1110              		.loc 10 479 22 is_stmt 0 view .LVU302
 1111 02b8 3046     		mov	r0, r6
 1112 02ba FFF7FEFF 		bl	_ZdaPv
 1113              	.LVL92:
 1114 02be BFE6     		b	.L100
 1115              	.L102:
 1116              		.align	2
 1117              	.L101:
 1118 02c0 00000000 		.word	.LC0
 1119 02c4 0C000000 		.word	.LC1
 1120 02c8 19000000 		.word	.LC2
 1121 02cc 1E000000 		.word	.LC3
 1122 02d0 23000000 		.word	.LC4
 1123 02d4 28000000 		.word	.LC5
 1124 02d8 00000038 		.word	939524096
 1125 02dc 00000034 		.word	872415232
 1126 02e0 00000000 		.word	0
 1127              	.L55:
 479:IRLoader.h    ****             f_close(&fileL);
 1128              		.loc 10 479 22 view .LVU303
 1129              	.LBE334:
 1130              	.LBE344:
 427:IRLoader.h    ****             // 24-bit samples
 1131              		.loc 10 427 16 is_stmt 1 view .LVU304
 1132              	.LBB345:
 1133              	.LBB335:
 1134 02e4 182B     		cmp	r3, #24
 1135 02e6 6DD1     		bne	.L62
 1136              	.LBB321:
 429:IRLoader.h    ****             
 1137              		.loc 10 429 13 view .LVU305
 429:IRLoader.h    ****             
 1138              		.loc 10 429 68 is_stmt 0 view .LVU306
 1139 02e8 BDF84A00 		ldrh	r0, [sp, #74]
 429:IRLoader.h    ****             
 1140              		.loc 10 429 80 view .LVU307
 1141 02ec 7843     		muls	r0, r7, r0
 429:IRLoader.h    ****             
 1142              		.loc 10 429 83 view .LVU308
 1143 02ee 00EB4000 		add	r0, r0, r0, lsl #1
 1144 02f2 FFF7FEFF 		bl	_Znaj
 1145              	.LVL93:
 439:IRLoader.h    ****             
ARM GAS  /tmp/cch2Dr4w.s 			page 55


 1146              		.loc 10 439 70 view .LVU309
 1147 02f6 BDF84A20 		ldrh	r2, [sp, #74]
 429:IRLoader.h    ****             
 1148              		.loc 10 429 83 view .LVU310
 1149 02fa 0446     		mov	r4, r0
 1150              	.LVL94:
 431:IRLoader.h    ****                 delete[] irBufferL;
 1151              		.loc 10 431 13 is_stmt 1 view .LVU311
 439:IRLoader.h    ****             
 1152              		.loc 10 439 13 view .LVU312
 439:IRLoader.h    ****             
 1153              		.loc 10 439 28 is_stmt 0 view .LVU313
 1154 02fc 0146     		mov	r1, r0
 439:IRLoader.h    ****             
 1155              		.loc 10 439 82 view .LVU314
 1156 02fe 7A43     		muls	r2, r7, r2
 439:IRLoader.h    ****             
 1157              		.loc 10 439 28 view .LVU315
 1158 0300 01AB     		add	r3, sp, #4
 1159 0302 A3A8     		add	r0, sp, #652
 1160              	.LVL95:
 439:IRLoader.h    ****             
 1161              		.loc 10 439 28 view .LVU316
 1162 0304 02EB4202 		add	r2, r2, r2, lsl #1
 1163 0308 FFF7FEFF 		bl	f_read
 1164              	.LVL96:
 441:IRLoader.h    ****                 delete[] tempBuffer;
 1165              		.loc 10 441 13 is_stmt 1 view .LVU317
 1166 030c 20BB     		cbnz	r0, .L63
 1167              	.LBB322:
 1168              	.LBB323:
 453:IRLoader.h    ****                     int32_t sample = (tempBuffer[i*6+3] << 8) | (tempBuffer[i*6+4] << 16) | (tempBu
 1169              		.loc 10 453 29 is_stmt 0 view .LVU318
 1170 030e BDF84AC0 		ldrh	ip, [sp, #74]
 1171 0312 2046     		mov	r0, r4
 1172              	.LVL97:
 453:IRLoader.h    ****                     int32_t sample = (tempBuffer[i*6+3] << 8) | (tempBuffer[i*6+4] << 16) | (tempBu
 1173              		.loc 10 453 29 view .LVU319
 1174 0314 3146     		mov	r1, r6
 1175 0316 08EB060E 		add	lr, r8, r6
 1176 031a 2246     		mov	r2, r4
 1177              	.L64:
 453:IRLoader.h    ****                     int32_t sample = (tempBuffer[i*6+3] << 8) | (tempBuffer[i*6+4] << 16) | (tempBu
 1178              		.loc 10 453 29 view .LVU320
 1179              	.LBE323:
 451:IRLoader.h    ****                 // If stereo, use right channel
 1180              		.loc 10 451 36 is_stmt 1 view .LVU321
 1181 031c 7145     		cmp	r1, lr
 1182 031e 28D0     		beq	.L65
 1183              	.LBE322:
 1184              	.LBE321:
 1185              	.LBE335:
 1186              	.LBE345:
 453:IRLoader.h    ****                     int32_t sample = (tempBuffer[i*6+3] << 8) | (tempBuffer[i*6+4] << 16) | (tempBu
 1187              		.loc 10 453 17 view .LVU322
 1188              	.LBB346:
 1189              	.LBB336:
ARM GAS  /tmp/cch2Dr4w.s 			page 56


 1190              	.LBB331:
 1191              	.LBB329:
 1192              	.LBB327:
 1193 0320 BCF1020F 		cmp	ip, #2
 1194 0324 1FED137A 		vldr.32	s14, .L101+28
 1195 0328 1AD1     		bne	.L66
 1196              	.LBB324:
 454:IRLoader.h    ****                     sample >>= 8;
 1197              		.loc 10 454 21 view .LVU323
 454:IRLoader.h    ****                     sample >>= 8;
 1198              		.loc 10 454 82 is_stmt 0 view .LVU324
 1199 032a 0379     		ldrb	r3, [r0, #4]	@ zero_extendqisi2
 454:IRLoader.h    ****                     sample >>= 8;
 1200              		.loc 10 454 55 view .LVU325
 1201 032c 90F80390 		ldrb	r9, [r0, #3]	@ zero_extendqisi2
 454:IRLoader.h    ****                     sample >>= 8;
 1202              		.loc 10 454 84 view .LVU326
 1203 0330 1B04     		lsls	r3, r3, #16
 454:IRLoader.h    ****                     sample >>= 8;
 1204              		.loc 10 454 63 view .LVU327
 1205 0332 43EA0923 		orr	r3, r3, r9, lsl #8
 454:IRLoader.h    ****                     sample >>= 8;
 1206              		.loc 10 454 110 view .LVU328
 1207 0336 90F80590 		ldrb	r9, [r0, #5]	@ zero_extendqisi2
 1208              	.L97:
 1209              	.LBE324:
 1210              	.LBB325:
 458:IRLoader.h    ****                     sample >>= 8;
 1211              		.loc 10 458 29 view .LVU329
 1212 033a 43EA0963 		orr	r3, r3, r9, lsl #24
 1213              	.LVL98:
 459:IRLoader.h    ****                     irBufferR[i] = (float)sample / 8388608.0f;
 1214              		.loc 10 459 21 is_stmt 1 view .LVU330
 460:IRLoader.h    ****                 }
 1215              		.loc 10 460 21 view .LVU331
 1216 033e 0630     		adds	r0, r0, #6
 1217 0340 0431     		adds	r1, r1, #4
 1218 0342 0332     		adds	r2, r2, #3
 459:IRLoader.h    ****                     irBufferR[i] = (float)sample / 8388608.0f;
 1219              		.loc 10 459 28 is_stmt 0 view .LVU332
 1220 0344 1B12     		asrs	r3, r3, #8
 1221              	.LVL99:
 459:IRLoader.h    ****                     irBufferR[i] = (float)sample / 8388608.0f;
 1222              		.loc 10 459 28 view .LVU333
 1223 0346 07EE903A 		vmov	s15, r3	@ int
 460:IRLoader.h    ****                 }
 1224              		.loc 10 460 36 view .LVU334
 1225 034a F8EEE77A 		vcvt.f32.s32	s15, s15
 460:IRLoader.h    ****                 }
 1226              		.loc 10 460 50 view .LVU335
 1227 034e 67EE877A 		vmul.f32	s15, s15, s14
 460:IRLoader.h    ****                 }
 1228              		.loc 10 460 34 view .LVU336
 1229 0352 41ED017A 		vstr.32	s15, [r1, #-4]
 1230              	.LBE325:
 1231              	.LBE327:
 451:IRLoader.h    ****                 // If stereo, use right channel
ARM GAS  /tmp/cch2Dr4w.s 			page 57


 1232              		.loc 10 451 13 is_stmt 1 view .LVU337
 1233 0356 E1E7     		b	.L64
 1234              	.LVL100:
 1235              	.L63:
 451:IRLoader.h    ****                 // If stereo, use right channel
 1236              		.loc 10 451 13 is_stmt 0 view .LVU338
 1237              	.LBE329:
 442:IRLoader.h    ****                 delete[] irBufferL;
 1238              		.loc 10 442 17 is_stmt 1 view .LVU339
 442:IRLoader.h    ****                 delete[] irBufferL;
 1239              		.loc 10 442 26 is_stmt 0 view .LVU340
 1240 0358 2046     		mov	r0, r4
 1241              	.LVL101:
 442:IRLoader.h    ****                 delete[] irBufferL;
 1242              		.loc 10 442 26 view .LVU341
 1243 035a FFF7FEFF 		bl	_ZdaPv
 1244              	.LVL102:
 443:IRLoader.h    ****                 delete[] irBufferR;
 1245              		.loc 10 443 17 is_stmt 1 view .LVU342
 1246 035e A8E7     		b	.L68
 1247              	.LVL103:
 1248              	.L66:
 1249              	.LBB330:
 1250              	.LBB328:
 1251              	.LBB326:
 458:IRLoader.h    ****                     sample >>= 8;
 1252              		.loc 10 458 21 view .LVU343
 458:IRLoader.h    ****                     sample >>= 8;
 1253              		.loc 10 458 80 is_stmt 0 view .LVU344
 1254 0360 5378     		ldrb	r3, [r2, #1]	@ zero_extendqisi2
 458:IRLoader.h    ****                     sample >>= 8;
 1255              		.loc 10 458 53 view .LVU345
 1256 0362 92F80090 		ldrb	r9, [r2]	@ zero_extendqisi2
 458:IRLoader.h    ****                     sample >>= 8;
 1257              		.loc 10 458 82 view .LVU346
 1258 0366 1B04     		lsls	r3, r3, #16
 458:IRLoader.h    ****                     sample >>= 8;
 1259              		.loc 10 458 29 view .LVU347
 1260 0368 43EA0923 		orr	r3, r3, r9, lsl #8
 458:IRLoader.h    ****                     sample >>= 8;
 1261              		.loc 10 458 108 view .LVU348
 1262 036c 92F80290 		ldrb	r9, [r2, #2]	@ zero_extendqisi2
 1263 0370 E3E7     		b	.L97
 1264              	.LVL104:
 1265              	.L65:
 458:IRLoader.h    ****                     sample >>= 8;
 1266              		.loc 10 458 108 view .LVU349
 1267              	.LBE326:
 1268              	.LBE328:
 1269              	.LBE330:
 464:IRLoader.h    ****         } else if (headerR.bitsPerSample == 32) {
 1270              		.loc 10 464 13 is_stmt 1 view .LVU350
 464:IRLoader.h    ****         } else if (headerR.bitsPerSample == 32) {
 1271              		.loc 10 464 22 is_stmt 0 view .LVU351
 1272 0372 2046     		mov	r0, r4
 1273 0374 FFF7FEFF 		bl	_ZdaPv
 1274              	.LVL105:
ARM GAS  /tmp/cch2Dr4w.s 			page 58


 1275              	.L61:
 1276              	.LBE331:
 1277              	.LBE336:
 1278              	.LBE346:
 486:IRLoader.h    ****         f_close(&fileR);
 1279              		.loc 10 486 9 is_stmt 1 view .LVU352
 486:IRLoader.h    ****         f_close(&fileR);
 1280              		.loc 10 486 16 is_stmt 0 view .LVU353
 1281 0378 18A8     		add	r0, sp, #96
 1282 037a A844     		add	r8, r8, r5
 1283 037c FFF7FEFF 		bl	f_close
 1284              	.LVL106:
 487:IRLoader.h    ****         
 1285              		.loc 10 487 9 is_stmt 1 view .LVU354
 487:IRLoader.h    ****         
 1286              		.loc 10 487 16 is_stmt 0 view .LVU355
 1287 0380 A3A8     		add	r0, sp, #652
 1288 0382 FFF7FEFF 		bl	f_close
 1289              	.LVL107:
 490:IRLoader.h    ****         float maxAbsR = 0.0f;
 1290              		.loc 10 490 9 is_stmt 1 view .LVU356
 491:IRLoader.h    ****         
 1291              		.loc 10 491 9 view .LVU357
 493:IRLoader.h    ****             float absValL = fabsf(irBufferL[i]);
 1292              		.loc 10 493 9 view .LVU358
 491:IRLoader.h    ****         
 1293              		.loc 10 491 15 is_stmt 0 view .LVU359
 1294 0386 1FED2A7A 		vldr.32	s14, .L101+32
 1295 038a 2B46     		mov	r3, r5
 1296 038c 3246     		mov	r2, r6
 490:IRLoader.h    ****         float maxAbsR = 0.0f;
 1297              		.loc 10 490 15 view .LVU360
 1298 038e F0EE477A 		vmov.f32	s15, s14
 487:IRLoader.h    ****         
 1299              		.loc 10 487 16 view .LVU361
 1300 0392 3046     		mov	r0, r6
 1301 0394 2946     		mov	r1, r5
 1302              	.LVL108:
 1303              	.L74:
 1304              	.LBB347:
 493:IRLoader.h    ****             float absValL = fabsf(irBufferL[i]);
 1305              		.loc 10 493 32 is_stmt 1 view .LVU362
 1306 0396 4145     		cmp	r1, r8
 1307 0398 20D0     		beq	.L69
 1308              	.LBB348:
 494:IRLoader.h    ****             float absValR = fabsf(irBufferR[i]);
 1309              		.loc 10 494 13 view .LVU363
 494:IRLoader.h    ****             float absValR = fabsf(irBufferR[i]);
 1310              		.loc 10 494 46 is_stmt 0 view .LVU364
 1311 039a B1EC016A 		vldmia.32	r1!, {s12}
 495:IRLoader.h    ****             
 1312              		.loc 10 495 46 view .LVU365
 1313 039e F0EC016A 		vldmia.32	r0!, {s13}
 494:IRLoader.h    ****             float absValR = fabsf(irBufferR[i]);
 1314              		.loc 10 494 19 view .LVU366
 1315 03a2 B0EEC66A 		vabs.f32	s12, s12
 1316              	.LVL109:
ARM GAS  /tmp/cch2Dr4w.s 			page 59


 495:IRLoader.h    ****             
 1317              		.loc 10 495 13 is_stmt 1 view .LVU367
 495:IRLoader.h    ****             
 1318              		.loc 10 495 19 is_stmt 0 view .LVU368
 1319 03a6 F0EEE66A 		vabs.f32	s13, s13
 1320              	.LVL110:
 497:IRLoader.h    ****                 maxAbsL = absValL;
 1321              		.loc 10 497 13 is_stmt 1 view .LVU369
 498:IRLoader.h    ****             }
 1322              		.loc 10 498 25 is_stmt 0 view .LVU370
 1323 03aa B4EE676A 		vcmp.f32	s12, s15
 1324 03ae F1EE10FA 		vmrs	APSR_nzcv, FPSCR
 502:IRLoader.h    ****             }
 1325              		.loc 10 502 25 view .LVU371
 1326 03b2 F4EE476A 		vcmp.f32	s13, s14
 498:IRLoader.h    ****             }
 1327              		.loc 10 498 25 view .LVU372
 1328 03b6 76FE277A 		vselgt.f32	s15, s12, s15
 1329              	.LVL111:
 501:IRLoader.h    ****                 maxAbsR = absValR;
 1330              		.loc 10 501 13 is_stmt 1 view .LVU373
 502:IRLoader.h    ****             }
 1331              		.loc 10 502 25 is_stmt 0 view .LVU374
 1332 03ba F1EE10FA 		vmrs	APSR_nzcv, FPSCR
 1333 03be 36FE877A 		vselgt.f32	s14, s13, s14
 1334              	.LVL112:
 502:IRLoader.h    ****             }
 1335              		.loc 10 502 25 view .LVU375
 1336              	.LBE348:
 493:IRLoader.h    ****             float absValL = fabsf(irBufferL[i]);
 1337              		.loc 10 493 9 is_stmt 1 view .LVU376
 1338 03c2 E8E7     		b	.L74
 1339              	.LVL113:
 1340              	.L62:
 493:IRLoader.h    ****             float absValL = fabsf(irBufferL[i]);
 1341              		.loc 10 493 9 is_stmt 0 view .LVU377
 1342              	.LBE347:
 1343              	.LBB349:
 1344              	.LBB337:
 465:IRLoader.h    ****             // 32-bit samples (assume float)
 1345              		.loc 10 465 16 is_stmt 1 view .LVU378
 1346 03c4 202B     		cmp	r3, #32
 1347 03c6 7FF474AF 		bne	.L68
 467:IRLoader.h    ****             
 1348              		.loc 10 467 13 view .LVU379
 467:IRLoader.h    ****             
 1349              		.loc 10 467 28 is_stmt 0 view .LVU380
 1350 03ca 01AB     		add	r3, sp, #4
 1351 03cc 4246     		mov	r2, r8
 1352 03ce 3146     		mov	r1, r6
 1353 03d0 A3A8     		add	r0, sp, #652
 1354 03d2 FFF7FEFF 		bl	f_read
 1355              	.LVL114:
 469:IRLoader.h    ****                 delete[] irBufferL;
 1356              		.loc 10 469 13 is_stmt 1 view .LVU381
 1357 03d6 0028     		cmp	r0, #0
 1358 03d8 CED0     		beq	.L61
ARM GAS  /tmp/cch2Dr4w.s 			page 60


 1359 03da 6AE7     		b	.L68
 1360              	.LVL115:
 1361              	.L69:
 469:IRLoader.h    ****                 delete[] irBufferL;
 1362              		.loc 10 469 13 is_stmt 0 view .LVU382
 1363              	.LBE337:
 1364              	.LBE349:
 507:IRLoader.h    ****         
 1365              		.loc 10 507 9 is_stmt 1 view .LVU383
 507:IRLoader.h    ****         
 1366              		.loc 10 507 44 is_stmt 0 view .LVU384
 1367 03dc F4EEC77A 		vcmpe.f32	s15, s14
 1368 03e0 F1EE10FA 		vmrs	APSR_nzcv, FPSCR
 1369 03e4 77FE877A 		vselgt.f32	s15, s15, s14
 1370              	.LVL116:
 509:IRLoader.h    ****             for (uint32_t i = 0; i < numSamples; i++) {
 1371              		.loc 10 509 9 is_stmt 1 view .LVU385
 1372              	.LBB350:
 1373 03e8 F5EEC07A 		vcmpe.f32	s15, #0
 1374 03ec F1EE10FA 		vmrs	APSR_nzcv, FPSCR
 1375 03f0 0EDD     		ble	.L76
 1376              	.LVL117:
 1377              	.L78:
 1378              	.LBB351:
 510:IRLoader.h    ****                 irBufferL[i] /= maxAbs;
 1379              		.loc 10 510 36 view .LVU386
 1380 03f2 9845     		cmp	r8, r3
 1381 03f4 0CD0     		beq	.L76
 511:IRLoader.h    ****                 irBufferR[i] /= maxAbs;
 1382              		.loc 10 511 17 view .LVU387
 511:IRLoader.h    ****                 irBufferR[i] /= maxAbs;
 1383              		.loc 10 511 30 is_stmt 0 view .LVU388
 1384 03f6 D3ED006A 		vldr.32	s13, [r3]
 1385 03fa 86EEA77A 		vdiv.f32	s14, s13, s15
 512:IRLoader.h    ****             }
 1386              		.loc 10 512 30 view .LVU389
 1387 03fe D2ED006A 		vldr.32	s13, [r2]
 511:IRLoader.h    ****                 irBufferR[i] /= maxAbs;
 1388              		.loc 10 511 30 view .LVU390
 1389 0402 A3EC017A 		vstmia.32	r3!, {s14}
 512:IRLoader.h    ****             }
 1390              		.loc 10 512 17 is_stmt 1 view .LVU391
 512:IRLoader.h    ****             }
 1391              		.loc 10 512 30 is_stmt 0 view .LVU392
 1392 0406 86EEA77A 		vdiv.f32	s14, s13, s15
 1393 040a A2EC017A 		vstmia.32	r2!, {s14}
 510:IRLoader.h    ****                 irBufferL[i] /= maxAbs;
 1394              		.loc 10 510 13 is_stmt 1 view .LVU393
 1395 040e F0E7     		b	.L78
 1396              	.L76:
 510:IRLoader.h    ****                 irBufferL[i] /= maxAbs;
 1397              		.loc 10 510 13 is_stmt 0 view .LVU394
 1398              	.LBE351:
 1399              	.LBE350:
 517:IRLoader.h    ****         
 1400              		.loc 10 517 9 is_stmt 1 view .LVU395
 517:IRLoader.h    ****         
ARM GAS  /tmp/cch2Dr4w.s 			page 61


 1401              		.loc 10 517 38 is_stmt 0 view .LVU396
 1402 0410 064B     		ldr	r3, .L103
 1403 0412 3A46     		mov	r2, r7
 1404 0414 3146     		mov	r1, r6
 1405 0416 2846     		mov	r0, r5
 1406 0418 1B68     		ldr	r3, [r3]
 1407 041a 9847     		blx	r3
 1408              	.LVL118:
 517:IRLoader.h    ****         
 1409              		.loc 10 517 38 view .LVU397
 1410 041c 0446     		mov	r4, r0
 1411              	.LVL119:
 520:IRLoader.h    ****         delete[] irBufferR;
 1412              		.loc 10 520 9 is_stmt 1 view .LVU398
 520:IRLoader.h    ****         delete[] irBufferR;
 1413              		.loc 10 520 18 is_stmt 0 view .LVU399
 1414 041e 2846     		mov	r0, r5
 1415 0420 FFF7FEFF 		bl	_ZdaPv
 1416              	.LVL120:
 521:IRLoader.h    ****         
 1417              		.loc 10 521 9 is_stmt 1 view .LVU400
 521:IRLoader.h    ****         
 1418              		.loc 10 521 18 is_stmt 0 view .LVU401
 1419 0424 3046     		mov	r0, r6
 1420 0426 FFF7FEFF 		bl	_ZdaPv
 1421              	.LVL121:
 523:IRLoader.h    ****     }
 1422              		.loc 10 523 9 is_stmt 1 view .LVU402
 523:IRLoader.h    ****     }
 1423              		.loc 10 523 16 is_stmt 0 view .LVU403
 1424 042a FDE5     		b	.L37
 1425              	.L104:
 1426              		.align	2
 1427              	.L103:
 1428 042c 00000000 		.word	.LANCHOR4
 1429              		.cfi_endproc
 1430              	.LFE6152:
 1432              		.section	.rodata._ZN8IRLoader10LoadMonoIREv.isra.0.str1.1,"aMS",%progbits,1
 1433              	.LC6:
 1434 0000 69725F6D 		.ascii	"ir_mono.wav\000"
 1434      6F6E6F2E 
 1434      77617600 
 1435              		.section	.text._ZN8IRLoader10LoadMonoIREv.isra.0,"axG",%progbits,_ZN8IRLoader6LoadIREv,comdat
 1436              		.align	1
 1437              		.syntax unified
 1438              		.thumb
 1439              		.thumb_func
 1440              		.fpu fpv5-d16
 1442              	_ZN8IRLoader10LoadMonoIREv.isra.0:
 1443              	.LFB6151:
  58:IRLoader.h    ****         // Open file
 1444              		.loc 10 58 10 is_stmt 1 view -0
 1445              		.cfi_startproc
 1446              		@ args = 0, pretend = 0, frame = 608
 1447              		@ frame_needed = 0, uses_anonymous_args = 0
 1448              	.LVL122:
  60:IRLoader.h    ****         FRESULT result = f_open(&file, "ir_mono.wav", FA_READ);
ARM GAS  /tmp/cch2Dr4w.s 			page 62


 1449              		.loc 10 60 9 view .LVU405
  61:IRLoader.h    ****         
 1450              		.loc 10 61 9 view .LVU406
  58:IRLoader.h    ****         // Open file
 1451              		.loc 10 58 10 is_stmt 0 view .LVU407
 1452 0000 2DE9F043 		push	{r4, r5, r6, r7, r8, r9, lr}
 1453              		.cfi_def_cfa_offset 28
 1454              		.cfi_offset 4, -28
 1455              		.cfi_offset 5, -24
 1456              		.cfi_offset 6, -20
 1457              		.cfi_offset 7, -16
 1458              		.cfi_offset 8, -12
 1459              		.cfi_offset 9, -8
 1460              		.cfi_offset 14, -4
 1461 0004 ADF5197D 		sub	sp, sp, #612
 1462              		.cfi_def_cfa_offset 640
  61:IRLoader.h    ****         
 1463              		.loc 10 61 32 view .LVU408
 1464 0008 0122     		movs	r2, #1
 1465 000a 9549     		ldr	r1, .L142
 1466 000c 0DA8     		add	r0, sp, #52
 1467 000e FFF7FEFF 		bl	f_open
 1468              	.LVL123:
  63:IRLoader.h    ****             return false;
 1469              		.loc 10 63 9 is_stmt 1 view .LVU409
 1470 0012 60B9     		cbnz	r0, .L130
  68:IRLoader.h    ****         UINT bytesRead;
 1471              		.loc 10 68 9 view .LVU410
  69:IRLoader.h    ****         result = f_read(&file, &header, sizeof(WAVHeader), &bytesRead);
 1472              		.loc 10 69 9 view .LVU411
  70:IRLoader.h    ****         
 1473              		.loc 10 70 9 view .LVU412
  70:IRLoader.h    ****         
 1474              		.loc 10 70 24 is_stmt 0 view .LVU413
 1475 0014 01AB     		add	r3, sp, #4
 1476 0016 2C22     		movs	r2, #44
 1477 0018 02A9     		add	r1, sp, #8
 1478 001a 0DA8     		add	r0, sp, #52
 1479              	.LVL124:
  70:IRLoader.h    ****         
 1480              		.loc 10 70 24 view .LVU414
 1481 001c FFF7FEFF 		bl	f_read
 1482              	.LVL125:
  72:IRLoader.h    ****             f_close(&file);
 1483              		.loc 10 72 9 is_stmt 1 view .LVU415
 1484 0020 10B9     		cbnz	r0, .L141
  72:IRLoader.h    ****             f_close(&file);
 1485              		.loc 10 72 29 is_stmt 0 view .LVU416
 1486 0022 019B     		ldr	r3, [sp, #4]
 1487 0024 2C2B     		cmp	r3, #44
 1488 0026 04D0     		beq	.L108
 1489              	.LVL126:
 1490              	.L141:
 1491              	.LBB352:
 1492              	.LBB353:
 187:IRLoader.h    ****             return false;
 1493              		.loc 10 187 13 is_stmt 1 view .LVU417
ARM GAS  /tmp/cch2Dr4w.s 			page 63


 187:IRLoader.h    ****             return false;
 1494              		.loc 10 187 20 is_stmt 0 view .LVU418
 1495 0028 0DA8     		add	r0, sp, #52
 1496 002a FFF7FEFF 		bl	f_close
 1497              	.LVL127:
 188:IRLoader.h    ****         }
 1498              		.loc 10 188 13 is_stmt 1 view .LVU419
 1499              	.L130:
 1500              	.LBE353:
 1501              	.LBE352:
  64:IRLoader.h    ****         }
 1502              		.loc 10 64 20 is_stmt 0 view .LVU420
 1503 002e 0025     		movs	r5, #0
 1504 0030 10E1     		b	.L106
 1505              	.LVL128:
 1506              	.L108:
  78:IRLoader.h    ****             strncmp(header.wave, "WAVE", 4) != 0 || 
 1507              		.loc 10 78 9 is_stmt 1 view .LVU421
  78:IRLoader.h    ****             strncmp(header.wave, "WAVE", 4) != 0 || 
 1508              		.loc 10 78 20 is_stmt 0 view .LVU422
 1509 0032 0422     		movs	r2, #4
 1510 0034 8B49     		ldr	r1, .L142+4
 1511 0036 02A8     		add	r0, sp, #8
 1512              	.LVL129:
  78:IRLoader.h    ****             strncmp(header.wave, "WAVE", 4) != 0 || 
 1513              		.loc 10 78 20 view .LVU423
 1514 0038 FFF7FEFF 		bl	strncmp
 1515              	.LVL130:
  78:IRLoader.h    ****             strncmp(header.wave, "WAVE", 4) != 0 || 
 1516              		.loc 10 78 9 view .LVU424
 1517 003c 0028     		cmp	r0, #0
 1518 003e F3D1     		bne	.L141
  79:IRLoader.h    ****             strncmp(header.fmt, "fmt ", 4) != 0 || 
 1519              		.loc 10 79 20 view .LVU425
 1520 0040 0422     		movs	r2, #4
 1521 0042 8949     		ldr	r1, .L142+8
 1522 0044 04A8     		add	r0, sp, #16
 1523 0046 FFF7FEFF 		bl	strncmp
 1524              	.LVL131:
  78:IRLoader.h    ****             strncmp(header.wave, "WAVE", 4) != 0 || 
 1525              		.loc 10 78 50 view .LVU426
 1526 004a 0028     		cmp	r0, #0
 1527 004c ECD1     		bne	.L141
  80:IRLoader.h    ****             strncmp(header.data, "data", 4) != 0) {
 1528              		.loc 10 80 20 view .LVU427
 1529 004e 0422     		movs	r2, #4
 1530 0050 8649     		ldr	r1, .L142+12
 1531 0052 05A8     		add	r0, sp, #20
 1532 0054 FFF7FEFF 		bl	strncmp
 1533              	.LVL132:
  79:IRLoader.h    ****             strncmp(header.fmt, "fmt ", 4) != 0 || 
 1534              		.loc 10 79 50 view .LVU428
 1535 0058 0028     		cmp	r0, #0
 1536 005a E5D1     		bne	.L141
  81:IRLoader.h    ****             f_close(&file);
 1537              		.loc 10 81 20 view .LVU429
 1538 005c 0422     		movs	r2, #4
ARM GAS  /tmp/cch2Dr4w.s 			page 64


 1539 005e 8449     		ldr	r1, .L142+16
 1540 0060 0BA8     		add	r0, sp, #44
 1541 0062 FFF7FEFF 		bl	strncmp
 1542              	.LVL133:
  80:IRLoader.h    ****             strncmp(header.data, "data", 4) != 0) {
 1543              		.loc 10 80 49 view .LVU430
 1544 0066 0028     		cmp	r0, #0
 1545 0068 DED1     		bne	.L141
  87:IRLoader.h    ****             f_close(&file);
 1546              		.loc 10 87 9 is_stmt 1 view .LVU431
 1547 006a BDF81C30 		ldrh	r3, [sp, #28]
 1548 006e 012B     		cmp	r3, #1
 1549 0070 DAD1     		bne	.L141
  93:IRLoader.h    ****         
 1550              		.loc 10 93 9 view .LVU432
  93:IRLoader.h    ****         
 1551              		.loc 10 93 93 is_stmt 0 view .LVU433
 1552 0072 BDF82A30 		ldrh	r3, [sp, #42]
  93:IRLoader.h    ****         
 1553              		.loc 10 93 57 view .LVU434
 1554 0076 BDF81E50 		ldrh	r5, [sp, #30]
  93:IRLoader.h    ****         
 1555              		.loc 10 93 93 view .LVU435
 1556 007a DB08     		lsrs	r3, r3, #3
  93:IRLoader.h    ****         
 1557              		.loc 10 93 69 view .LVU436
 1558 007c 6B43     		muls	r3, r5, r3
  93:IRLoader.h    ****         
 1559              		.loc 10 93 18 view .LVU437
 1560 007e 0C9D     		ldr	r5, [sp, #48]
 1561 0080 B5FBF3F5 		udiv	r5, r5, r3
 1562              	.LVL134:
  96:IRLoader.h    ****             numSamples = MAX_IR_LENGTH;
 1563              		.loc 10 96 9 is_stmt 1 view .LVU438
 1564 0084 B5F5805F 		cmp	r5, #4096
 1565 0088 28BF     		it	cs
 1566 008a 4FF48055 		movcs	r5, #4096
 1567              	.LVL135:
 101:IRLoader.h    ****         
 1568              		.loc 10 101 47 is_stmt 0 view .LVU439
 1569 008e AE00     		lsls	r6, r5, #2
 1570 0090 3046     		mov	r0, r6
 1571 0092 FFF7FEFF 		bl	_Znaj
 1572              	.LVL136:
 1573              	.LBB371:
 109:IRLoader.h    ****             // 16-bit samples
 1574              		.loc 10 109 20 view .LVU440
 1575 0096 BDF82A30 		ldrh	r3, [sp, #42]
 1576              	.LBE371:
 101:IRLoader.h    ****         
 1577              		.loc 10 101 47 view .LVU441
 1578 009a 0446     		mov	r4, r0
 1579              	.LVL137:
 103:IRLoader.h    ****             f_close(&file);
 1580              		.loc 10 103 9 is_stmt 1 view .LVU442
 109:IRLoader.h    ****             // 16-bit samples
 1581              		.loc 10 109 9 view .LVU443
ARM GAS  /tmp/cch2Dr4w.s 			page 65


 1582              	.LBB372:
 1583 009c 102B     		cmp	r3, #16
 1584 009e 39D1     		bne	.L109
 1585              	.LBB366:
 111:IRLoader.h    ****             
 1586              		.loc 10 111 13 view .LVU444
 111:IRLoader.h    ****             
 1587              		.loc 10 111 67 is_stmt 0 view .LVU445
 1588 00a0 BDF81E00 		ldrh	r0, [sp, #30]
 1589              	.LVL138:
 111:IRLoader.h    ****             
 1590              		.loc 10 111 78 view .LVU446
 1591 00a4 6843     		muls	r0, r5, r0
 1592 00a6 4000     		lsls	r0, r0, #1
 1593 00a8 FFF7FEFF 		bl	_Znaj
 1594              	.LVL139:
 119:IRLoader.h    ****             
 1595              		.loc 10 119 68 view .LVU447
 1596 00ac BDF81E20 		ldrh	r2, [sp, #30]
 111:IRLoader.h    ****             
 1597              		.loc 10 111 78 view .LVU448
 1598 00b0 0746     		mov	r7, r0
 1599              	.LVL140:
 113:IRLoader.h    ****                 delete[] irBuffer;
 1600              		.loc 10 113 13 is_stmt 1 view .LVU449
 119:IRLoader.h    ****             
 1601              		.loc 10 119 13 view .LVU450
 119:IRLoader.h    ****             
 1602              		.loc 10 119 28 is_stmt 0 view .LVU451
 1603 00b2 0146     		mov	r1, r0
 119:IRLoader.h    ****             
 1604              		.loc 10 119 80 view .LVU452
 1605 00b4 6A43     		muls	r2, r5, r2
 119:IRLoader.h    ****             
 1606              		.loc 10 119 28 view .LVU453
 1607 00b6 01AB     		add	r3, sp, #4
 1608 00b8 0DA8     		add	r0, sp, #52
 1609              	.LVL141:
 119:IRLoader.h    ****             
 1610              		.loc 10 119 28 view .LVU454
 1611 00ba 5200     		lsls	r2, r2, #1
 1612 00bc FFF7FEFF 		bl	f_read
 1613              	.LVL142:
 121:IRLoader.h    ****                 delete[] tempBuffer;
 1614              		.loc 10 121 13 is_stmt 1 view .LVU455
 1615 00c0 0028     		cmp	r0, #0
 1616 00c2 75D1     		bne	.L117
 1617              	.LBB367:
 131:IRLoader.h    ****                     irBuffer[i] = ((float)tempBuffer[i*2] + (float)tempBuffer[i*2+1]) / 65536.0f;
 1618              		.loc 10 131 28 is_stmt 0 view .LVU456
 1619 00c4 BDF81E10 		ldrh	r1, [sp, #30]
 1620 00c8 2246     		mov	r2, r4
 129:IRLoader.h    ****                 // If stereo, average channels
 1621              		.loc 10 129 27 view .LVU457
 1622 00ca 0023     		movs	r3, #0
 1623              	.LVL143:
 1624              	.L111:
ARM GAS  /tmp/cch2Dr4w.s 			page 66


 129:IRLoader.h    ****                 // If stereo, average channels
 1625              		.loc 10 129 36 is_stmt 1 view .LVU458
 1626 00cc 9D42     		cmp	r5, r3
 1627 00ce 00F08680 		beq	.L119
 131:IRLoader.h    ****                     irBuffer[i] = ((float)tempBuffer[i*2] + (float)tempBuffer[i*2+1]) / 65536.0f;
 1628              		.loc 10 131 17 view .LVU459
 1629 00d2 0229     		cmp	r1, #2
 1630 00d4 17D1     		bne	.L113
 132:IRLoader.h    ****                 } else {
 1631              		.loc 10 132 21 view .LVU460
 132:IRLoader.h    ****                 } else {
 1632              		.loc 10 132 84 is_stmt 0 view .LVU461
 1633 00d6 B81C     		adds	r0, r7, #2
 132:IRLoader.h    ****                 } else {
 1634              		.loc 10 132 61 view .LVU462
 1635 00d8 30F92300 		ldrsh	r0, [r0, r3, lsl #2]
 1636 00dc 07EE900A 		vmov	s15, r0	@ int
 132:IRLoader.h    ****                 } else {
 1637              		.loc 10 132 36 view .LVU463
 1638 00e0 37F92300 		ldrsh	r0, [r7, r3, lsl #2]
 132:IRLoader.h    ****                 } else {
 1639              		.loc 10 132 61 view .LVU464
 1640 00e4 B8EEE77A 		vcvt.f32.s32	s14, s15
 132:IRLoader.h    ****                 } else {
 1641              		.loc 10 132 36 view .LVU465
 1642 00e8 07EE900A 		vmov	s15, r0	@ int
 1643 00ec F8EEE77A 		vcvt.f32.s32	s15, s15
 132:IRLoader.h    ****                 } else {
 1644              		.loc 10 132 59 view .LVU466
 1645 00f0 77EE277A 		vadd.f32	s15, s14, s15
 132:IRLoader.h    ****                 } else {
 1646              		.loc 10 132 87 view .LVU467
 1647 00f4 9FED5F7A 		vldr.32	s14, .L142+20
 1648 00f8 67EE877A 		vmul.f32	s15, s15, s14
 1649              	.L139:
 134:IRLoader.h    ****                 }
 1650              		.loc 10 134 33 view .LVU468
 1651 00fc C2ED007A 		vstr.32	s15, [r2]
 129:IRLoader.h    ****                 // If stereo, average channels
 1652              		.loc 10 129 13 is_stmt 1 view .LVU469
 1653 0100 0133     		adds	r3, r3, #1
 1654              	.LVL144:
 129:IRLoader.h    ****                 // If stereo, average channels
 1655              		.loc 10 129 13 is_stmt 0 view .LVU470
 1656 0102 0432     		adds	r2, r2, #4
 1657 0104 E2E7     		b	.L111
 1658              	.L113:
 134:IRLoader.h    ****                 }
 1659              		.loc 10 134 21 is_stmt 1 view .LVU471
 134:IRLoader.h    ****                 }
 1660              		.loc 10 134 35 is_stmt 0 view .LVU472
 1661 0106 37F91300 		ldrsh	r0, [r7, r3, lsl #1]
 1662 010a 07EE900A 		vmov	s15, r0	@ int
 134:IRLoader.h    ****                 }
 1663              		.loc 10 134 56 view .LVU473
 1664 010e FAEEE87A 		vcvt.f32.s32	s15, s15, #15
 1665 0112 F3E7     		b	.L139
ARM GAS  /tmp/cch2Dr4w.s 			page 67


 1666              	.LVL145:
 1667              	.L109:
 134:IRLoader.h    ****                 }
 1668              		.loc 10 134 56 view .LVU474
 1669              	.LBE367:
 1670              	.LBE366:
 1671              	.LBE372:
 139:IRLoader.h    ****             // 24-bit samples
 1672              		.loc 10 139 16 is_stmt 1 view .LVU475
 1673              	.LBB373:
 1674              	.LBB368:
 1675 0114 182B     		cmp	r3, #24
 1676 0116 7AD1     		bne	.L116
 1677              	.LBB354:
 141:IRLoader.h    ****             
 1678              		.loc 10 141 13 view .LVU476
 141:IRLoader.h    ****             
 1679              		.loc 10 141 67 is_stmt 0 view .LVU477
 1680 0118 BDF81E00 		ldrh	r0, [sp, #30]
 1681              	.LVL146:
 141:IRLoader.h    ****             
 1682              		.loc 10 141 79 view .LVU478
 1683 011c 6843     		muls	r0, r5, r0
 141:IRLoader.h    ****             
 1684              		.loc 10 141 82 view .LVU479
 1685 011e 00EB4000 		add	r0, r0, r0, lsl #1
 1686 0122 FFF7FEFF 		bl	_Znaj
 1687              	.LVL147:
 149:IRLoader.h    ****             
 1688              		.loc 10 149 68 view .LVU480
 1689 0126 BDF81E20 		ldrh	r2, [sp, #30]
 141:IRLoader.h    ****             
 1690              		.loc 10 141 82 view .LVU481
 1691 012a 0746     		mov	r7, r0
 1692              	.LVL148:
 143:IRLoader.h    ****                 delete[] irBuffer;
 1693              		.loc 10 143 13 is_stmt 1 view .LVU482
 149:IRLoader.h    ****             
 1694              		.loc 10 149 13 view .LVU483
 149:IRLoader.h    ****             
 1695              		.loc 10 149 28 is_stmt 0 view .LVU484
 1696 012c 0146     		mov	r1, r0
 149:IRLoader.h    ****             
 1697              		.loc 10 149 80 view .LVU485
 1698 012e 6A43     		muls	r2, r5, r2
 149:IRLoader.h    ****             
 1699              		.loc 10 149 28 view .LVU486
 1700 0130 01AB     		add	r3, sp, #4
 1701 0132 0DA8     		add	r0, sp, #52
 1702              	.LVL149:
 149:IRLoader.h    ****             
 1703              		.loc 10 149 28 view .LVU487
 1704 0134 02EB4202 		add	r2, r2, r2, lsl #1
 1705 0138 FFF7FEFF 		bl	f_read
 1706              	.LVL150:
 151:IRLoader.h    ****                 delete[] tempBuffer;
 1707              		.loc 10 151 13 is_stmt 1 view .LVU488
ARM GAS  /tmp/cch2Dr4w.s 			page 68


 1708 013c C0BB     		cbnz	r0, .L117
 1709              	.LBB355:
 1710              	.LBB356:
 161:IRLoader.h    ****                     int32_t sampleL = (tempBuffer[i*6] << 8) | (tempBuffer[i*6+1] << 16) | (tempBuf
 1711              		.loc 10 161 28 is_stmt 0 view .LVU489
 1712 013e BDF81EC0 		ldrh	ip, [sp, #30]
 1713 0142 3A46     		mov	r2, r7
 1714 0144 2046     		mov	r0, r4
 1715              	.LVL151:
 161:IRLoader.h    ****                     int32_t sampleL = (tempBuffer[i*6] << 8) | (tempBuffer[i*6+1] << 16) | (tempBuf
 1716              		.loc 10 161 28 view .LVU490
 1717 0146 06EB040E 		add	lr, r6, r4
 1718 014a 3946     		mov	r1, r7
 1719              	.L118:
 161:IRLoader.h    ****                     int32_t sampleL = (tempBuffer[i*6] << 8) | (tempBuffer[i*6+1] << 16) | (tempBuf
 1720              		.loc 10 161 28 view .LVU491
 1721              	.LBE356:
 159:IRLoader.h    ****                 // If stereo, average channels
 1722              		.loc 10 159 36 is_stmt 1 view .LVU492
 1723 014c 7045     		cmp	r0, lr
 1724 014e 46D0     		beq	.L119
 1725              	.LBE355:
 1726              	.LBE354:
 1727              	.LBE368:
 1728              	.LBE373:
 161:IRLoader.h    ****                     int32_t sampleL = (tempBuffer[i*6] << 8) | (tempBuffer[i*6+1] << 16) | (tempBuf
 1729              		.loc 10 161 17 view .LVU493
 1730              	.LBB374:
 1731              	.LBB369:
 1732              	.LBB364:
 1733              	.LBB362:
 1734              	.LBB360:
 1735 0150 BCF1020F 		cmp	ip, #2
 1736 0154 33D1     		bne	.L120
 1737              	.LBB357:
 162:IRLoader.h    ****                     int32_t sampleR = (tempBuffer[i*6+3] << 8) | (tempBuffer[i*6+4] << 16) | (tempB
 1738              		.loc 10 162 21 view .LVU494
 162:IRLoader.h    ****                     int32_t sampleR = (tempBuffer[i*6+3] << 8) | (tempBuffer[i*6+4] << 16) | (tempB
 1739              		.loc 10 162 81 is_stmt 0 view .LVU495
 1740 0156 5378     		ldrb	r3, [r2, #1]	@ zero_extendqisi2
 162:IRLoader.h    ****                     int32_t sampleR = (tempBuffer[i*6+3] << 8) | (tempBuffer[i*6+4] << 16) | (tempB
 1741              		.loc 10 162 54 view .LVU496
 1742 0158 92F80080 		ldrb	r8, [r2]	@ zero_extendqisi2
 162:IRLoader.h    ****                     int32_t sampleR = (tempBuffer[i*6+3] << 8) | (tempBuffer[i*6+4] << 16) | (tempB
 1743              		.loc 10 162 83 view .LVU497
 1744 015c 1B04     		lsls	r3, r3, #16
 163:IRLoader.h    ****                     sampleL >>= 8;
 1745              		.loc 10 163 56 view .LVU498
 1746 015e 92F80390 		ldrb	r9, [r2, #3]	@ zero_extendqisi2
 162:IRLoader.h    ****                     int32_t sampleR = (tempBuffer[i*6+3] << 8) | (tempBuffer[i*6+4] << 16) | (tempB
 1747              		.loc 10 162 29 view .LVU499
 1748 0162 43EA0823 		orr	r3, r3, r8, lsl #8
 162:IRLoader.h    ****                     int32_t sampleR = (tempBuffer[i*6+3] << 8) | (tempBuffer[i*6+4] << 16) | (tempB
 1749              		.loc 10 162 109 view .LVU500
 1750 0166 92F80280 		ldrb	r8, [r2, #2]	@ zero_extendqisi2
 162:IRLoader.h    ****                     int32_t sampleR = (tempBuffer[i*6+3] << 8) | (tempBuffer[i*6+4] << 16) | (tempB
 1751              		.loc 10 162 29 view .LVU501
ARM GAS  /tmp/cch2Dr4w.s 			page 69


 1752 016a 43EA0863 		orr	r3, r3, r8, lsl #24
 1753              	.LVL152:
 163:IRLoader.h    ****                     sampleL >>= 8;
 1754              		.loc 10 163 21 is_stmt 1 view .LVU502
 163:IRLoader.h    ****                     sampleL >>= 8;
 1755              		.loc 10 163 83 is_stmt 0 view .LVU503
 1756 016e 92F80480 		ldrb	r8, [r2, #4]	@ zero_extendqisi2
 163:IRLoader.h    ****                     sampleL >>= 8;
 1757              		.loc 10 163 85 view .LVU504
 1758 0172 4FEA0848 		lsl	r8, r8, #16
 164:IRLoader.h    ****                     sampleR >>= 8;
 1759              		.loc 10 164 29 view .LVU505
 1760 0176 1B12     		asrs	r3, r3, #8
 1761              	.LVL153:
 163:IRLoader.h    ****                     sampleL >>= 8;
 1762              		.loc 10 163 64 view .LVU506
 1763 0178 48EA0928 		orr	r8, r8, r9, lsl #8
 163:IRLoader.h    ****                     sampleL >>= 8;
 1764              		.loc 10 163 111 view .LVU507
 1765 017c 92F80590 		ldrb	r9, [r2, #5]	@ zero_extendqisi2
 164:IRLoader.h    ****                     sampleR >>= 8;
 1766              		.loc 10 164 29 view .LVU508
 1767 0180 07EE903A 		vmov	s15, r3	@ int
 163:IRLoader.h    ****                     sampleL >>= 8;
 1768              		.loc 10 163 29 view .LVU509
 1769 0184 48EA0968 		orr	r8, r8, r9, lsl #24
 1770              	.LVL154:
 164:IRLoader.h    ****                     sampleR >>= 8;
 1771              		.loc 10 164 21 is_stmt 1 view .LVU510
 165:IRLoader.h    ****                     irBuffer[i] = ((float)sampleL + (float)sampleR) / 16777216.0f;
 1772              		.loc 10 165 21 view .LVU511
 166:IRLoader.h    ****                 } else {
 1773              		.loc 10 166 21 view .LVU512
 166:IRLoader.h    ****                 } else {
 1774              		.loc 10 166 36 is_stmt 0 view .LVU513
 1775 0188 B8EEE77A 		vcvt.f32.s32	s14, s15
 165:IRLoader.h    ****                     irBuffer[i] = ((float)sampleL + (float)sampleR) / 16777216.0f;
 1776              		.loc 10 165 29 view .LVU514
 1777 018c 4FEA2828 		asr	r8, r8, #8
 1778              	.LVL155:
 166:IRLoader.h    ****                 } else {
 1779              		.loc 10 166 53 view .LVU515
 1780 0190 07EE908A 		vmov	s15, r8	@ int
 1781 0194 F8EEE77A 		vcvt.f32.s32	s15, s15
 166:IRLoader.h    ****                 } else {
 1782              		.loc 10 166 51 view .LVU516
 1783 0198 77EE277A 		vadd.f32	s15, s14, s15
 166:IRLoader.h    ****                 } else {
 1784              		.loc 10 166 69 view .LVU517
 1785 019c 9FED367A 		vldr.32	s14, .L142+24
 1786 01a0 67EE877A 		vmul.f32	s15, s15, s14
 1787              	.LVL156:
 1788              	.L140:
 166:IRLoader.h    ****                 } else {
 1789              		.loc 10 166 69 view .LVU518
 1790              	.LBE357:
 1791              	.LBB358:
ARM GAS  /tmp/cch2Dr4w.s 			page 70


 170:IRLoader.h    ****                 }
 1792              		.loc 10 170 33 view .LVU519
 1793 01a4 C0ED007A 		vstr.32	s15, [r0]
 1794              	.LBE358:
 1795              	.LBE360:
 159:IRLoader.h    ****                 // If stereo, average channels
 1796              		.loc 10 159 13 is_stmt 1 view .LVU520
 1797 01a8 0632     		adds	r2, r2, #6
 1798 01aa 0430     		adds	r0, r0, #4
 1799 01ac 0331     		adds	r1, r1, #3
 1800 01ae CDE7     		b	.L118
 1801              	.LVL157:
 1802              	.L117:
 159:IRLoader.h    ****                 // If stereo, average channels
 1803              		.loc 10 159 13 is_stmt 0 view .LVU521
 1804              	.LBE362:
 152:IRLoader.h    ****                 delete[] irBuffer;
 1805              		.loc 10 152 17 is_stmt 1 view .LVU522
 152:IRLoader.h    ****                 delete[] irBuffer;
 1806              		.loc 10 152 26 is_stmt 0 view .LVU523
 1807 01b0 3846     		mov	r0, r7
 1808              	.LVL158:
 152:IRLoader.h    ****                 delete[] irBuffer;
 1809              		.loc 10 152 26 view .LVU524
 1810 01b2 FFF7FEFF 		bl	_ZdaPv
 1811              	.LVL159:
 153:IRLoader.h    ****                 f_close(&file);
 1812              		.loc 10 153 17 is_stmt 1 view .LVU525
 1813              	.L122:
 153:IRLoader.h    ****                 f_close(&file);
 1814              		.loc 10 153 17 is_stmt 0 view .LVU526
 1815              	.LBE364:
 186:IRLoader.h    ****             f_close(&file);
 1816              		.loc 10 186 13 is_stmt 1 view .LVU527
 186:IRLoader.h    ****             f_close(&file);
 1817              		.loc 10 186 22 is_stmt 0 view .LVU528
 1818 01b6 2046     		mov	r0, r4
 1819 01b8 FFF7FEFF 		bl	_ZdaPv
 1820              	.LVL160:
 1821 01bc 34E7     		b	.L141
 1822              	.LVL161:
 1823              	.L120:
 1824              	.LBB365:
 1825              	.LBB363:
 1826              	.LBB361:
 1827              	.LBB359:
 168:IRLoader.h    ****                     sample >>= 8;
 1828              		.loc 10 168 21 is_stmt 1 view .LVU529
 168:IRLoader.h    ****                     sample >>= 8;
 1829              		.loc 10 168 80 is_stmt 0 view .LVU530
 1830 01be 4B78     		ldrb	r3, [r1, #1]	@ zero_extendqisi2
 168:IRLoader.h    ****                     sample >>= 8;
 1831              		.loc 10 168 53 view .LVU531
 1832 01c0 91F80080 		ldrb	r8, [r1]	@ zero_extendqisi2
 168:IRLoader.h    ****                     sample >>= 8;
 1833              		.loc 10 168 82 view .LVU532
 1834 01c4 1B04     		lsls	r3, r3, #16
ARM GAS  /tmp/cch2Dr4w.s 			page 71


 168:IRLoader.h    ****                     sample >>= 8;
 1835              		.loc 10 168 29 view .LVU533
 1836 01c6 43EA0823 		orr	r3, r3, r8, lsl #8
 168:IRLoader.h    ****                     sample >>= 8;
 1837              		.loc 10 168 108 view .LVU534
 1838 01ca 91F80280 		ldrb	r8, [r1, #2]	@ zero_extendqisi2
 168:IRLoader.h    ****                     sample >>= 8;
 1839              		.loc 10 168 29 view .LVU535
 1840 01ce 43EA0863 		orr	r3, r3, r8, lsl #24
 1841              	.LVL162:
 169:IRLoader.h    ****                     irBuffer[i] = (float)sample / 8388608.0f;
 1842              		.loc 10 169 21 is_stmt 1 view .LVU536
 170:IRLoader.h    ****                 }
 1843              		.loc 10 170 21 view .LVU537
 169:IRLoader.h    ****                     irBuffer[i] = (float)sample / 8388608.0f;
 1844              		.loc 10 169 28 is_stmt 0 view .LVU538
 1845 01d2 1B12     		asrs	r3, r3, #8
 1846              	.LVL163:
 169:IRLoader.h    ****                     irBuffer[i] = (float)sample / 8388608.0f;
 1847              		.loc 10 169 28 view .LVU539
 1848 01d4 07EE903A 		vmov	s15, r3	@ int
 170:IRLoader.h    ****                 }
 1849              		.loc 10 170 49 view .LVU540
 1850 01d8 FAEEE47A 		vcvt.f32.s32	s15, s15, #23
 1851 01dc E2E7     		b	.L140
 1852              	.LVL164:
 1853              	.L119:
 170:IRLoader.h    ****                 }
 1854              		.loc 10 170 49 view .LVU541
 1855              	.LBE359:
 1856              	.LBE361:
 1857              	.LBE363:
 174:IRLoader.h    ****         } else if (header.bitsPerSample == 32) {
 1858              		.loc 10 174 13 is_stmt 1 view .LVU542
 174:IRLoader.h    ****         } else if (header.bitsPerSample == 32) {
 1859              		.loc 10 174 22 is_stmt 0 view .LVU543
 1860 01de 3846     		mov	r0, r7
 1861 01e0 FFF7FEFF 		bl	_ZdaPv
 1862              	.LVL165:
 1863              	.L115:
 1864              	.LBE365:
 1865              	.LBE369:
 1866              	.LBE374:
 192:IRLoader.h    ****         
 1867              		.loc 10 192 9 is_stmt 1 view .LVU544
 192:IRLoader.h    ****         
 1868              		.loc 10 192 16 is_stmt 0 view .LVU545
 1869 01e4 0DA8     		add	r0, sp, #52
 1870 01e6 2644     		add	r6, r6, r4
 1871 01e8 FFF7FEFF 		bl	f_close
 1872              	.LVL166:
 195:IRLoader.h    ****         for (uint32_t i = 0; i < numSamples; i++) {
 1873              		.loc 10 195 9 is_stmt 1 view .LVU546
 196:IRLoader.h    ****             float absVal = fabsf(irBuffer[i]);
 1874              		.loc 10 196 9 view .LVU547
 196:IRLoader.h    ****             float absVal = fabsf(irBuffer[i]);
 1875              		.loc 10 196 9 is_stmt 0 view .LVU548
ARM GAS  /tmp/cch2Dr4w.s 			page 72


 1876 01ec 2346     		mov	r3, r4
 192:IRLoader.h    ****         
 1877              		.loc 10 192 16 view .LVU549
 1878 01ee 2246     		mov	r2, r4
 195:IRLoader.h    ****         for (uint32_t i = 0; i < numSamples; i++) {
 1879              		.loc 10 195 15 view .LVU550
 1880 01f0 DFED227A 		vldr.32	s15, .L142+28
 1881              	.LVL167:
 1882              	.L126:
 1883              	.LBB375:
 196:IRLoader.h    ****             float absVal = fabsf(irBuffer[i]);
 1884              		.loc 10 196 32 is_stmt 1 view .LVU551
 1885 01f4 9642     		cmp	r6, r2
 1886 01f6 15D0     		beq	.L123
 1887              	.LBB376:
 197:IRLoader.h    ****             if (absVal > maxAbs) {
 1888              		.loc 10 197 13 view .LVU552
 197:IRLoader.h    ****             if (absVal > maxAbs) {
 1889              		.loc 10 197 44 is_stmt 0 view .LVU553
 1890 01f8 B2EC017A 		vldmia.32	r2!, {s14}
 197:IRLoader.h    ****             if (absVal > maxAbs) {
 1891              		.loc 10 197 19 view .LVU554
 1892 01fc B0EEC77A 		vabs.f32	s14, s14
 1893              	.LVL168:
 198:IRLoader.h    ****                 maxAbs = absVal;
 1894              		.loc 10 198 13 is_stmt 1 view .LVU555
 199:IRLoader.h    ****             }
 1895              		.loc 10 199 24 is_stmt 0 view .LVU556
 1896 0200 B4EE677A 		vcmp.f32	s14, s15
 1897 0204 F1EE10FA 		vmrs	APSR_nzcv, FPSCR
 1898 0208 77FE277A 		vselgt.f32	s15, s14, s15
 1899              	.LVL169:
 199:IRLoader.h    ****             }
 1900              		.loc 10 199 24 view .LVU557
 1901              	.LBE376:
 196:IRLoader.h    ****             float absVal = fabsf(irBuffer[i]);
 1902              		.loc 10 196 9 is_stmt 1 view .LVU558
 1903 020c F2E7     		b	.L126
 1904              	.LVL170:
 1905              	.L116:
 196:IRLoader.h    ****             float absVal = fabsf(irBuffer[i]);
 1906              		.loc 10 196 9 is_stmt 0 view .LVU559
 1907              	.LBE375:
 1908              	.LBB377:
 1909              	.LBB370:
 175:IRLoader.h    ****             // 32-bit samples (assume float)
 1910              		.loc 10 175 16 is_stmt 1 view .LVU560
 1911 020e 202B     		cmp	r3, #32
 1912 0210 D1D1     		bne	.L122
 177:IRLoader.h    ****             
 1913              		.loc 10 177 13 view .LVU561
 177:IRLoader.h    ****             
 1914              		.loc 10 177 28 is_stmt 0 view .LVU562
 1915 0212 0146     		mov	r1, r0
 1916 0214 01AB     		add	r3, sp, #4
 1917 0216 3246     		mov	r2, r6
 1918 0218 0DA8     		add	r0, sp, #52
ARM GAS  /tmp/cch2Dr4w.s 			page 73


 1919              	.LVL171:
 177:IRLoader.h    ****             
 1920              		.loc 10 177 28 view .LVU563
 1921 021a FFF7FEFF 		bl	f_read
 1922              	.LVL172:
 179:IRLoader.h    ****                 delete[] irBuffer;
 1923              		.loc 10 179 13 is_stmt 1 view .LVU564
 1924 021e 0028     		cmp	r0, #0
 1925 0220 E0D0     		beq	.L115
 1926 0222 C8E7     		b	.L122
 1927              	.LVL173:
 1928              	.L123:
 179:IRLoader.h    ****                 delete[] irBuffer;
 1929              		.loc 10 179 13 is_stmt 0 view .LVU565
 1930              	.LBE370:
 1931              	.LBE377:
 203:IRLoader.h    ****             for (uint32_t i = 0; i < numSamples; i++) {
 1932              		.loc 10 203 9 is_stmt 1 view .LVU566
 1933              	.LBB378:
 1934 0224 F5EEC07A 		vcmpe.f32	s15, #0
 1935 0228 F1EE10FA 		vmrs	APSR_nzcv, FPSCR
 1936 022c 08DD     		ble	.L127
 1937              	.LVL174:
 1938              	.L129:
 1939              	.LBB379:
 204:IRLoader.h    ****                 irBuffer[i] /= maxAbs;
 1940              		.loc 10 204 36 view .LVU567
 1941 022e 9A42     		cmp	r2, r3
 1942 0230 06D0     		beq	.L127
 205:IRLoader.h    ****             }
 1943              		.loc 10 205 17 view .LVU568
 205:IRLoader.h    ****             }
 1944              		.loc 10 205 29 is_stmt 0 view .LVU569
 1945 0232 D3ED006A 		vldr.32	s13, [r3]
 1946 0236 86EEA77A 		vdiv.f32	s14, s13, s15
 1947 023a A3EC017A 		vstmia.32	r3!, {s14}
 204:IRLoader.h    ****                 irBuffer[i] /= maxAbs;
 1948              		.loc 10 204 13 is_stmt 1 view .LVU570
 1949 023e F6E7     		b	.L129
 1950              	.L127:
 204:IRLoader.h    ****                 irBuffer[i] /= maxAbs;
 1951              		.loc 10 204 13 is_stmt 0 view .LVU571
 1952              	.LBE379:
 1953              	.LBE378:
 210:IRLoader.h    ****         
 1954              		.loc 10 210 9 is_stmt 1 view .LVU572
 210:IRLoader.h    ****         
 1955              		.loc 10 210 38 is_stmt 0 view .LVU573
 1956 0240 0F4B     		ldr	r3, .L142+32
 1957 0242 2A46     		mov	r2, r5
 1958 0244 0021     		movs	r1, #0
 1959 0246 2046     		mov	r0, r4
 1960 0248 1B68     		ldr	r3, [r3]
 1961 024a 9847     		blx	r3
 1962              	.LVL175:
 210:IRLoader.h    ****         
 1963              		.loc 10 210 38 view .LVU574
ARM GAS  /tmp/cch2Dr4w.s 			page 74


 1964 024c 0546     		mov	r5, r0
 1965              	.LVL176:
 213:IRLoader.h    ****         
 1966              		.loc 10 213 9 is_stmt 1 view .LVU575
 213:IRLoader.h    ****         
 1967              		.loc 10 213 18 is_stmt 0 view .LVU576
 1968 024e 2046     		mov	r0, r4
 1969 0250 FFF7FEFF 		bl	_ZdaPv
 1970              	.LVL177:
 215:IRLoader.h    ****     }
 1971              		.loc 10 215 9 is_stmt 1 view .LVU577
 1972              	.L106:
 216:IRLoader.h    ****     
 1973              		.loc 10 216 5 is_stmt 0 view .LVU578
 1974 0254 2846     		mov	r0, r5
 1975 0256 0DF5197D 		add	sp, sp, #612
 1976              		.cfi_def_cfa_offset 28
 1977              		@ sp needed
 1978 025a BDE8F083 		pop	{r4, r5, r6, r7, r8, r9, pc}
 1979              	.L143:
 1980 025e 00BF     		.align	2
 1981              	.L142:
 1982 0260 00000000 		.word	.LC6
 1983 0264 19000000 		.word	.LC2
 1984 0268 1E000000 		.word	.LC3
 1985 026c 23000000 		.word	.LC4
 1986 0270 28000000 		.word	.LC5
 1987 0274 00008037 		.word	931135488
 1988 0278 00008033 		.word	864026624
 1989 027c 00000000 		.word	0
 1990 0280 00000000 		.word	.LANCHOR4
 1991              		.cfi_endproc
 1992              	.LFE6151:
 1994              		.section	.text._ZN16clevelandmusicco8Hothouse4InitEv,"axG",%progbits,_ZN16clevelandmusicco8Hothous
 1995              		.align	1
 1996              		.weak	_ZN16clevelandmusicco8Hothouse4InitEv
 1997              		.syntax unified
 1998              		.thumb
 1999              		.thumb_func
 2000              		.fpu fpv5-d16
 2002              	_ZN16clevelandmusicco8Hothouse4InitEv:
 2003              	.LVL178:
 2004              	.LFB4713:
  11:hothouse.h    **** public:
  12:hothouse.h    ****     // Pin definitions as integers
  13:hothouse.h    ****     enum Pin {
  14:hothouse.h    ****         // Knobs (ADC inputs)
  15:hothouse.h    ****         KNOB_1 = 15,  // A0
  16:hothouse.h    ****         KNOB_2 = 16,  // A1
  17:hothouse.h    ****         KNOB_3 = 17,  // A2
  18:hothouse.h    ****         KNOB_4 = 18,  // A3
  19:hothouse.h    ****         KNOB_5 = 19,  // A4
  20:hothouse.h    ****         KNOB_6 = 20,  // A5
  21:hothouse.h    ****         
  22:hothouse.h    ****         // Footswitches (digital inputs)
  23:hothouse.h    ****         FOOTSWITCH_1 = 1,  // D1
  24:hothouse.h    ****         FOOTSWITCH_2 = 2,  // D2
ARM GAS  /tmp/cch2Dr4w.s 			page 75


  25:hothouse.h    ****         
  26:hothouse.h    ****         // Toggles (digital inputs)
  27:hothouse.h    ****         TOGGLE_1 = 7,  // D7
  28:hothouse.h    ****         TOGGLE_2 = 8,  // D8
  29:hothouse.h    ****         TOGGLE_3 = 9,  // D9
  30:hothouse.h    ****         
  31:hothouse.h    ****         // LEDs (digital outputs)
  32:hothouse.h    ****         LED_1 = 10,  // D10
  33:hothouse.h    ****         LED_2 = 11,  // D11
  34:hothouse.h    ****         LED_3 = 12,  // D12
  35:hothouse.h    ****         LED_4 = 13,  // D13
  36:hothouse.h    ****         
  37:hothouse.h    ****         // OLED display (SPI)
  38:hothouse.h    ****         OLED_DC = 3,  // D3
  39:hothouse.h    ****         OLED_RESET = 4  // D4
  40:hothouse.h    ****     };
  41:hothouse.h    ****     
  42:hothouse.h    ****     Hothouse() {}
  43:hothouse.h    ****     
  44:hothouse.h    ****     void Init() {
 2005              		.loc 3 44 10 is_stmt 1 view -0
 2006              		.cfi_startproc
 2007              		@ args = 0, pretend = 0, frame = 128
 2008              		@ frame_needed = 0, uses_anonymous_args = 0
  45:hothouse.h    ****         // Initialize seed hardware
  46:hothouse.h    ****         seed.Configure();
 2009              		.loc 3 46 9 view .LVU580
  44:hothouse.h    ****         // Initialize seed hardware
 2010              		.loc 3 44 10 is_stmt 0 view .LVU581
 2011 0000 2DE9F041 		push	{r4, r5, r6, r7, r8, lr}
 2012              		.cfi_def_cfa_offset 24
 2013              		.cfi_offset 4, -24
 2014              		.cfi_offset 5, -20
 2015              		.cfi_offset 6, -16
 2016              		.cfi_offset 7, -12
 2017              		.cfi_offset 8, -8
 2018              		.cfi_offset 14, -4
 2019 0004 A0B0     		sub	sp, sp, #128
 2020              		.cfi_def_cfa_offset 152
  44:hothouse.h    ****         // Initialize seed hardware
 2021              		.loc 3 44 10 view .LVU582
 2022 0006 0446     		mov	r4, r0
 2023              		.loc 3 46 23 view .LVU583
 2024 0008 FFF7FEFF 		bl	_ZN5daisy9DaisySeed9ConfigureEv
 2025              	.LVL179:
  47:hothouse.h    ****         seed.Init();
 2026              		.loc 3 47 9 is_stmt 1 view .LVU584
 2027              		.loc 3 47 18 is_stmt 0 view .LVU585
 2028 000c 0021     		movs	r1, #0
 2029 000e 05AE     		add	r6, sp, #20
 2030 0010 2046     		mov	r0, r4
 2031 0012 FFF7FEFF 		bl	_ZN5daisy9DaisySeed4InitEb
 2032              	.LVL180:
  48:hothouse.h    ****         
  49:hothouse.h    ****         // Initialize audio - use public API
  50:hothouse.h    ****         daisy::AudioHandle::Config audio_config;
 2033              		.loc 3 50 9 is_stmt 1 view .LVU586
ARM GAS  /tmp/cch2Dr4w.s 			page 76


 2034              	.LBB390:
 2035              	.LBI390:
  44:/home/ubuntu/DaisyExamples/libDaisy/src/hid/audio.h ****         : blocksize(48),
 2036              		.loc 8 44 9 view .LVU587
  44:/home/ubuntu/DaisyExamples/libDaisy/src/hid/audio.h ****         : blocksize(48),
 2037              		.loc 8 44 9 is_stmt 0 view .LVU588
 2038              	.LBE390:
  51:hothouse.h    ****         audio_config.samplerate = daisy::SaiHandle::Config::SampleRate::SAI_48KHZ;
 2039              		.loc 3 51 9 is_stmt 1 view .LVU589
  52:hothouse.h    ****         audio_config.blocksize = 48;
 2040              		.loc 3 52 9 view .LVU590
  53:hothouse.h    ****         seed.SetAudioBlockSize(audio_config.blocksize);
 2041              		.loc 3 53 9 view .LVU591
 2042 0016 04F14007 		add	r7, r4, #64
 2043              		.loc 3 53 31 is_stmt 0 view .LVU592
 2044 001a 3021     		movs	r1, #48
 2045 001c 2046     		mov	r0, r4
  54:hothouse.h    ****         seed.SetAudioSampleRate(audio_config.samplerate);
 2046              		.loc 3 54 32 view .LVU593
 2047 001e 4FF0FF35 		mov	r5, #-1
 2048 0022 B046     		mov	r8, r6
  53:hothouse.h    ****         seed.SetAudioBlockSize(audio_config.blocksize);
 2049              		.loc 3 53 31 view .LVU594
 2050 0024 FFF7FEFF 		bl	_ZN5daisy9DaisySeed17SetAudioBlockSizeEj
 2051              	.LVL181:
 2052              		.loc 3 54 9 is_stmt 1 view .LVU595
 2053              		.loc 3 54 32 is_stmt 0 view .LVU596
 2054 0028 0321     		movs	r1, #3
 2055 002a 2046     		mov	r0, r4
 2056 002c FFF7FEFF 		bl	_ZN5daisy9DaisySeed18SetAudioSampleRateENS_9SaiHandle6Config10SampleRateE
 2057              	.LVL182:
  55:hothouse.h    ****         
  56:hothouse.h    ****         // Don't start audio yet - will be started later with actual callback
  57:hothouse.h    ****         // Removed the ambiguous nullptr call
  58:hothouse.h    ****         
  59:hothouse.h    ****         // Initialize ADC for knobs
  60:hothouse.h    ****         daisy::AdcChannelConfig adcConfig[6];
 2058              		.loc 3 60 9 is_stmt 1 view .LVU597
  61:hothouse.h    ****         for (int i = 0; i < 6; i++) {
 2059              		.loc 3 61 9 view .LVU598
 2060              	.LBB391:
 2061              		.loc 3 61 27 view .LVU599
 2062              	.L146:
  62:hothouse.h    ****             adcConfig[i].InitSingle(seed.GetPin(GetKnobPin(i)));
 2063              		.loc 3 62 13 discriminator 2 view .LVU600
 2064              		.loc 3 62 13 is_stmt 0 discriminator 2 view .LVU601
 2065              	.LBE391:
  63:hothouse.h    ****             adcValues_[i] = 0.0f;
  64:hothouse.h    ****         }
  65:hothouse.h    ****         seed.adc.Init(adcConfig, 6);
  66:hothouse.h    ****         seed.adc.Start();
  67:hothouse.h    ****         
  68:hothouse.h    ****         // Initialize footswitches
  69:hothouse.h    ****         for (int i = 0; i < 2; i++) {
  70:hothouse.h    ****             footswitches_[i].Init(seed.GetPin(GetFootswitchPin(i)), 1000);
  71:hothouse.h    ****             footswitchStates_[i] = false;
  72:hothouse.h    ****             footswitchPressTime_[i] = 0;
ARM GAS  /tmp/cch2Dr4w.s 			page 77


  73:hothouse.h    ****             footswitchCallbacks_[i] = nullptr;
  74:hothouse.h    ****             footswitchLongPressCallbacks_[i] = nullptr;
  75:hothouse.h    ****         }
  76:hothouse.h    ****         
  77:hothouse.h    ****         // Initialize toggles
  78:hothouse.h    ****         for (int i = 0; i < 3; i++) {
  79:hothouse.h    ****             toggles_[i].Init(seed.GetPin(GetTogglePin(i)), 1000);
  80:hothouse.h    ****             toggleStates_[i] = 0;
  81:hothouse.h    ****             toggleCallbacks_[i] = nullptr;
  82:hothouse.h    ****         }
  83:hothouse.h    ****     }
  84:hothouse.h    ****     
  85:hothouse.h    ****     void ProcessAllControls() {
  86:hothouse.h    ****         // Process ADC readings
  87:hothouse.h    ****         for (int i = 0; i < 6; i++) {
  88:hothouse.h    ****             float newValue = seed.adc.GetFloat(i);
  89:hothouse.h    ****             
  90:hothouse.h    ****             // Apply some smoothing
  91:hothouse.h    ****             adcValues_[i] = adcValues_[i] * 0.9f + newValue * 0.1f;
  92:hothouse.h    ****             
  93:hothouse.h    ****             // Call callback if value changed significantly
  94:hothouse.h    ****             if (knobCallbacks_[i] != nullptr && fabsf(adcValues_[i] - lastKnobValues_[i]) > 0.01f) 
  95:hothouse.h    ****                 knobCallbacks_[i](adcValues_[i]);
  96:hothouse.h    ****                 lastKnobValues_[i] = adcValues_[i];
  97:hothouse.h    ****             }
  98:hothouse.h    ****         }
  99:hothouse.h    ****         
 100:hothouse.h    ****         // Process footswitches
 101:hothouse.h    ****         for (int i = 0; i < 2; i++) {
 102:hothouse.h    ****             footswitches_[i].Debounce();
 103:hothouse.h    ****             
 104:hothouse.h    ****             // Check for press
 105:hothouse.h    ****             if (footswitches_[i].RisingEdge()) {
 106:hothouse.h    ****                 footswitchStates_[i] = true;
 107:hothouse.h    ****                 footswitchPressTime_[i] = daisy::System::GetNow();
 108:hothouse.h    ****                 
 109:hothouse.h    ****                 // Call callback
 110:hothouse.h    ****                 if (footswitchCallbacks_[i] != nullptr) {
 111:hothouse.h    ****                     footswitchCallbacks_[i](true);
 112:hothouse.h    ****                 }
 113:hothouse.h    ****             }
 114:hothouse.h    ****             
 115:hothouse.h    ****             // Check for release
 116:hothouse.h    ****             if (footswitches_[i].FallingEdge()) {
 117:hothouse.h    ****                 footswitchStates_[i] = false;
 118:hothouse.h    ****                 
 119:hothouse.h    ****                 // Check for long press
 120:hothouse.h    ****                 uint32_t pressDuration = daisy::System::GetNow() - footswitchPressTime_[i];
 121:hothouse.h    ****                 if (pressDuration > 1000 && footswitchLongPressCallbacks_[i] != nullptr) {
 122:hothouse.h    ****                     footswitchLongPressCallbacks_[i]();
 123:hothouse.h    ****                 }
 124:hothouse.h    ****                 
 125:hothouse.h    ****                 // Call callback
 126:hothouse.h    ****                 if (footswitchCallbacks_[i] != nullptr) {
 127:hothouse.h    ****                     footswitchCallbacks_[i](false);
 128:hothouse.h    ****                 }
 129:hothouse.h    ****             }
ARM GAS  /tmp/cch2Dr4w.s 			page 78


 130:hothouse.h    ****         }
 131:hothouse.h    ****         
 132:hothouse.h    ****         // Process toggles
 133:hothouse.h    ****         for (int i = 0; i < 3; i++) {
 134:hothouse.h    ****             toggles_[i].Debounce();
 135:hothouse.h    ****             
 136:hothouse.h    ****             // Check for state change
 137:hothouse.h    ****             int newState = toggles_[i].Pressed() ? 1 : -1;
 138:hothouse.h    ****             
 139:hothouse.h    ****             if (newState != toggleStates_[i]) {
 140:hothouse.h    ****                 toggleStates_[i] = newState;
 141:hothouse.h    ****                 
 142:hothouse.h    ****                 // Call callback
 143:hothouse.h    ****                 if (toggleCallbacks_[i] != nullptr) {
 144:hothouse.h    ****                     toggleCallbacks_[i](newState > 0);
 145:hothouse.h    ****                 }
 146:hothouse.h    ****             }
 147:hothouse.h    ****         }
 148:hothouse.h    ****     }
 149:hothouse.h    ****     
 150:hothouse.h    ****     // Start audio processing
 151:hothouse.h    ****     void StartAudio(daisy::AudioHandle::AudioCallback cb) {
 152:hothouse.h    ****         seed.StartAudio(cb);
 153:hothouse.h    ****     }
 154:hothouse.h    ****     
 155:hothouse.h    ****     // Get audio sample rate
 156:hothouse.h    ****     float AudioSampleRate() {
 157:hothouse.h    ****         return seed.AudioSampleRate();
 158:hothouse.h    ****     }
 159:hothouse.h    ****     
 160:hothouse.h    ****     // Set callbacks
 161:hothouse.h    ****     void SetKnobCallback(int knob, void (*callback)(float)) {
 162:hothouse.h    ****         if (knob >= 0 && knob < 6) {
 163:hothouse.h    ****             knobCallbacks_[knob] = callback;
 164:hothouse.h    ****         }
 165:hothouse.h    ****     }
 166:hothouse.h    ****     
 167:hothouse.h    ****     void SetFootswitchCallback(int footswitch, void (*callback)(bool)) {
 168:hothouse.h    ****         if (footswitch >= 0 && footswitch < 2) {
 169:hothouse.h    ****             footswitchCallbacks_[footswitch] = callback;
 170:hothouse.h    ****         }
 171:hothouse.h    ****     }
 172:hothouse.h    ****     
 173:hothouse.h    ****     void SetFootswitchLongPressCallback(int footswitch, void (*callback)()) {
 174:hothouse.h    ****         if (footswitch >= 0 && footswitch < 2) {
 175:hothouse.h    ****             footswitchLongPressCallbacks_[footswitch] = callback;
 176:hothouse.h    ****         }
 177:hothouse.h    ****     }
 178:hothouse.h    ****     
 179:hothouse.h    ****     void SetToggleCallback(int toggle, void (*callback)(bool)) {
 180:hothouse.h    ****         if (toggle >= 0 && toggle < 3) {
 181:hothouse.h    ****             toggleCallbacks_[toggle] = callback;
 182:hothouse.h    ****         }
 183:hothouse.h    ****     }
 184:hothouse.h    ****     
 185:hothouse.h    ****     // Helper functions to get pin numbers
 186:hothouse.h    ****     Pin GetKnobPin(int knob) {
ARM GAS  /tmp/cch2Dr4w.s 			page 79


 187:hothouse.h    ****         switch (knob) {
 2066              		.loc 3 187 9 is_stmt 1 discriminator 2 view .LVU602
 2067 0030 042D     		cmp	r5, #4
 2068 0032 94BF     		ite	ls
 2069 0034 05F11000 		addls	r0, r5, #16
 2070              	.LBB392:
  62:hothouse.h    ****             adcConfig[i].InitSingle(seed.GetPin(GetKnobPin(i)));
 2071              		.loc 3 62 36 is_stmt 0 discriminator 2 view .LVU603
 2072 0038 0F20     		movhi	r0, #15
 2073              	.LVL183:
  61:hothouse.h    ****             adcConfig[i].InitSingle(seed.GetPin(GetKnobPin(i)));
 2074              		.loc 3 61 27 discriminator 2 view .LVU604
 2075 003a 05F10105 		add	r5, r5, #1
 2076 003e 98BF     		it	ls
 2077 0040 C0B2     		uxtbls	r0, r0
  62:hothouse.h    ****             adcConfig[i].InitSingle(seed.GetPin(GetKnobPin(i)));
 2078              		.loc 3 62 36 discriminator 2 view .LVU605
 2079 0042 FFF7FEFF 		bl	_ZN5daisy9DaisySeed6GetPinEh
 2080              	.LVL184:
 2081 0046 ADF80800 		strh	r0, [sp, #8]	@ movhi
 2082 004a 0222     		movs	r2, #2
 2083 004c 3046     		mov	r0, r6
 2084 004e 0299     		ldr	r1, [sp, #8]
  61:hothouse.h    ****             adcConfig[i].InitSingle(seed.GetPin(GetKnobPin(i)));
 2085              		.loc 3 61 27 discriminator 2 view .LVU606
 2086 0050 1236     		adds	r6, r6, #18
  62:hothouse.h    ****             adcConfig[i].InitSingle(seed.GetPin(GetKnobPin(i)));
 2087              		.loc 3 62 36 discriminator 2 view .LVU607
 2088 0052 FFF7FEFF 		bl	_ZN5daisy16AdcChannelConfig10InitSingleE12dsy_gpio_pinNS0_15ConversionSpeedE
 2089              	.LVL185:
  63:hothouse.h    ****             adcValues_[i] = 0.0f;
 2090              		.loc 3 63 13 is_stmt 1 discriminator 2 view .LVU608
  63:hothouse.h    ****             adcValues_[i] = 0.0f;
 2091              		.loc 3 63 27 is_stmt 0 discriminator 2 view .LVU609
 2092 0056 0023     		movs	r3, #0
  61:hothouse.h    ****             adcConfig[i].InitSingle(seed.GetPin(GetKnobPin(i)));
 2093              		.loc 3 61 27 discriminator 2 view .LVU610
 2094 0058 052D     		cmp	r5, #5
  63:hothouse.h    ****             adcValues_[i] = 0.0f;
 2095              		.loc 3 63 27 discriminator 2 view .LVU611
 2096 005a 47F8043B 		str	r3, [r7], #4	@ float
  61:hothouse.h    ****             adcConfig[i].InitSingle(seed.GetPin(GetKnobPin(i)));
 2097              		.loc 3 61 9 is_stmt 1 discriminator 2 view .LVU612
  61:hothouse.h    ****             adcConfig[i].InitSingle(seed.GetPin(GetKnobPin(i)));
 2098              		.loc 3 61 27 discriminator 2 view .LVU613
 2099 005e E7D1     		bne	.L146
 2100              	.LBE392:
  65:hothouse.h    ****         seed.adc.Start();
 2101              		.loc 3 65 9 view .LVU614
  65:hothouse.h    ****         seed.adc.Start();
 2102              		.loc 3 65 22 is_stmt 0 view .LVU615
 2103 0060 04F11800 		add	r0, r4, #24
 2104 0064 0423     		movs	r3, #4
 2105 0066 0622     		movs	r2, #6
 2106 0068 4146     		mov	r1, r8
 2107 006a 0190     		str	r0, [sp, #4]
 2108 006c FFF7FEFF 		bl	_ZN5daisy9AdcHandle4InitEPNS_16AdcChannelConfigEjNS0_12OverSamplingE
ARM GAS  /tmp/cch2Dr4w.s 			page 80


 2109              	.LVL186:
  66:hothouse.h    ****         
 2110              		.loc 3 66 9 is_stmt 1 view .LVU616
  66:hothouse.h    ****         
 2111              		.loc 3 66 23 is_stmt 0 view .LVU617
 2112 0070 0198     		ldr	r0, [sp, #4]
 2113              	.LBB393:
  71:hothouse.h    ****             footswitchPressTime_[i] = 0;
 2114              		.loc 3 71 34 view .LVU618
 2115 0072 0025     		movs	r5, #0
 2116              	.LBE393:
  66:hothouse.h    ****         
 2117              		.loc 3 66 23 view .LVU619
 2118 0074 FFF7FEFF 		bl	_ZN5daisy9AdcHandle5StartEv
 2119              	.LVL187:
  69:hothouse.h    ****             footswitches_[i].Init(seed.GetPin(GetFootswitchPin(i)), 1000);
 2120              		.loc 3 69 9 is_stmt 1 view .LVU620
 2121              	.LBB394:
  69:hothouse.h    ****             footswitches_[i].Init(seed.GetPin(GetFootswitchPin(i)), 1000);
 2122              		.loc 3 69 27 view .LVU621
  70:hothouse.h    ****             footswitchStates_[i] = false;
 2123              		.loc 3 70 13 view .LVU622
  70:hothouse.h    ****             footswitchStates_[i] = false;
 2124              		.loc 3 70 13 is_stmt 0 view .LVU623
 2125              	.LBE394:
 188:hothouse.h    ****             case 0: return KNOB_1;
 189:hothouse.h    ****             case 1: return KNOB_2;
 190:hothouse.h    ****             case 2: return KNOB_3;
 191:hothouse.h    ****             case 3: return KNOB_4;
 192:hothouse.h    ****             case 4: return KNOB_5;
 193:hothouse.h    ****             case 5: return KNOB_6;
 194:hothouse.h    ****             default: return KNOB_1;
 195:hothouse.h    ****         }
 196:hothouse.h    ****     }
 197:hothouse.h    ****     
 198:hothouse.h    ****     Pin GetFootswitchPin(int footswitch) {
 199:hothouse.h    ****         switch (footswitch) {
 2126              		.loc 3 199 9 is_stmt 1 view .LVU624
 2127              	.LBB395:
  70:hothouse.h    ****             footswitchStates_[i] = false;
 2128              		.loc 3 70 34 is_stmt 0 view .LVU625
 2129 0078 0120     		movs	r0, #1
 2130 007a FFF7FEFF 		bl	_ZN5daisy9DaisySeed6GetPinEh
 2131              	.LVL188:
 2132 007e ADF80C00 		strh	r0, [sp, #12]	@ movhi
 2133 0082 0399     		ldr	r1, [sp, #12]
 2134 0084 04F17000 		add	r0, r4, #112
 2135 0088 9FED290A 		vldr.32	s0, .L149
 2136 008c FFF7FEFF 		bl	_ZN5daisy6Switch4InitE12dsy_gpio_pinf
 2137              	.LVL189:
  71:hothouse.h    ****             footswitchPressTime_[i] = 0;
 2138              		.loc 3 71 13 is_stmt 1 view .LVU626
  71:hothouse.h    ****             footswitchPressTime_[i] = 0;
 2139              		.loc 3 71 34 is_stmt 0 view .LVU627
 2140 0090 84F89050 		strb	r5, [r4, #144]
  72:hothouse.h    ****             footswitchCallbacks_[i] = nullptr;
 2141              		.loc 3 72 13 is_stmt 1 view .LVU628
ARM GAS  /tmp/cch2Dr4w.s 			page 81


  72:hothouse.h    ****             footswitchCallbacks_[i] = nullptr;
 2142              		.loc 3 72 37 is_stmt 0 view .LVU629
 2143 0094 C4F89450 		str	r5, [r4, #148]
  73:hothouse.h    ****             footswitchLongPressCallbacks_[i] = nullptr;
 2144              		.loc 3 73 13 is_stmt 1 view .LVU630
  70:hothouse.h    ****             footswitchStates_[i] = false;
 2145              		.loc 3 70 34 is_stmt 0 view .LVU631
 2146 0098 0220     		movs	r0, #2
  73:hothouse.h    ****             footswitchLongPressCallbacks_[i] = nullptr;
 2147              		.loc 3 73 37 view .LVU632
 2148 009a C4F8F050 		str	r5, [r4, #240]
  74:hothouse.h    ****         }
 2149              		.loc 3 74 13 is_stmt 1 view .LVU633
  74:hothouse.h    ****         }
 2150              		.loc 3 74 46 is_stmt 0 view .LVU634
 2151 009e C4F8F850 		str	r5, [r4, #248]
  69:hothouse.h    ****             footswitches_[i].Init(seed.GetPin(GetFootswitchPin(i)), 1000);
 2152              		.loc 3 69 9 is_stmt 1 view .LVU635
 2153              	.LVL190:
  69:hothouse.h    ****             footswitches_[i].Init(seed.GetPin(GetFootswitchPin(i)), 1000);
 2154              		.loc 3 69 27 view .LVU636
  70:hothouse.h    ****             footswitchStates_[i] = false;
 2155              		.loc 3 70 13 view .LVU637
  70:hothouse.h    ****             footswitchStates_[i] = false;
 2156              		.loc 3 70 13 is_stmt 0 view .LVU638
 2157              	.LBE395:
