ARM GAS  /tmp/ccBh0qTK.s 			page 1


   1              		.cpu cortex-m7
   2              		.eabi_attribute 28, 1
   3              		.eabi_attribute 20, 1
   4              		.eabi_attribute 21, 1
   5              		.eabi_attribute 23, 3
   6              		.eabi_attribute 24, 1
   7              		.eabi_attribute 25, 1
   8              		.eabi_attribute 26, 1
   9              		.eabi_attribute 30, 2
  10              		.eabi_attribute 34, 1
  11              		.eabi_attribute 18, 4
  12              		.file	"EchoBridgeWithUSB.cpp"
  13              		.text
  14              	.Ltext0:
  15              		.cfi_sections	.debug_frame
  16              		.section	.text._ZN5daisy3LedD2Ev,"axG",%progbits,_ZN5daisy3LedD5Ev,comdat
  17              		.align	1
  18              		.p2align 2,,3
  19              		.weak	_ZN5daisy3LedD2Ev
  20              		.arch armv7e-m
  21              		.syntax unified
  22              		.thumb
  23              		.thumb_func
  24              		.fpu fpv5-d16
  26              	_ZN5daisy3LedD2Ev:
  27              	.LVL0:
  28              	.LFB3971:
  29              		.file 1 "/home/ubuntu/DaisyExamples/libDaisy/src/hid/led.h"
   1:/home/ubuntu/DaisyExamples/libDaisy/src/hid/led.h **** 
   2:/home/ubuntu/DaisyExamples/libDaisy/src/hid/led.h **** #pragma once
   3:/home/ubuntu/DaisyExamples/libDaisy/src/hid/led.h **** #ifndef DSY_LED_H
   4:/home/ubuntu/DaisyExamples/libDaisy/src/hid/led.h **** #define DSY_LED_H
   5:/home/ubuntu/DaisyExamples/libDaisy/src/hid/led.h **** #include "daisy_core.h"
   6:/home/ubuntu/DaisyExamples/libDaisy/src/hid/led.h **** #include "per/gpio.h"
   7:/home/ubuntu/DaisyExamples/libDaisy/src/hid/led.h **** 
   8:/home/ubuntu/DaisyExamples/libDaisy/src/hid/led.h **** /* TODO - Get this set up to work with the dev_leddriver stuff as well
   9:/home/ubuntu/DaisyExamples/libDaisy/src/hid/led.h **** - Setup Hardware PWM for pins that have it
  10:/home/ubuntu/DaisyExamples/libDaisy/src/hid/led.h **** */
  11:/home/ubuntu/DaisyExamples/libDaisy/src/hid/led.h **** 
  12:/home/ubuntu/DaisyExamples/libDaisy/src/hid/led.h **** namespace daisy
  13:/home/ubuntu/DaisyExamples/libDaisy/src/hid/led.h **** {
  14:/home/ubuntu/DaisyExamples/libDaisy/src/hid/led.h **** /**
  15:/home/ubuntu/DaisyExamples/libDaisy/src/hid/led.h ****     @brief LED Class providing simple Software PWM ability, etc \n 
  16:/home/ubuntu/DaisyExamples/libDaisy/src/hid/led.h ****     Eventually this will work with hardware PWM, and external LED Driver devices as well.
  17:/home/ubuntu/DaisyExamples/libDaisy/src/hid/led.h ****     @author shensley
  18:/home/ubuntu/DaisyExamples/libDaisy/src/hid/led.h ****     @date March 2020
  19:/home/ubuntu/DaisyExamples/libDaisy/src/hid/led.h ****     @ingroup feedback
  20:/home/ubuntu/DaisyExamples/libDaisy/src/hid/led.h **** */
  21:/home/ubuntu/DaisyExamples/libDaisy/src/hid/led.h **** class Led
  22:/home/ubuntu/DaisyExamples/libDaisy/src/hid/led.h **** {
  23:/home/ubuntu/DaisyExamples/libDaisy/src/hid/led.h ****   public:
  24:/home/ubuntu/DaisyExamples/libDaisy/src/hid/led.h ****     Led() {}
  25:/home/ubuntu/DaisyExamples/libDaisy/src/hid/led.h ****     ~Led() {}
  30              		.loc 1 25 5 view -0
  31              		.cfi_startproc
  32              		@ args = 0, pretend = 0, frame = 0
  33              		@ frame_needed = 0, uses_anonymous_args = 0
ARM GAS  /tmp/ccBh0qTK.s 			page 2


  34              		@ link register save eliminated.
  35              		.loc 1 25 13 is_stmt 0 view .LVU1
  36 0000 7047     		bx	lr
  37              		.cfi_endproc
  38              	.LFE3971:
  40              		.weak	_ZN5daisy3LedD1Ev
  41              		.thumb_set _ZN5daisy3LedD1Ev,_ZN5daisy3LedD2Ev
  42 0002 00BF     		.section	.text._ZN5daisy11OledDisplayINS_13SSD130xDriverILj128ELj64ENS_24SSD130x4WireSpiTransportE
  43              		.align	1
  44              		.p2align 2,,3
  45              		.weak	_ZN5daisy11OledDisplayINS_13SSD130xDriverILj128ELj64ENS_24SSD130x4WireSpiTransportEEEE4FillE
  46              		.syntax unified
  47              		.thumb
  48              		.thumb_func
  49              		.fpu fpv5-d16
  51              	_ZN5daisy11OledDisplayINS_13SSD130xDriverILj128ELj64ENS_24SSD130x4WireSpiTransportEEEE4FillEb:
  52              	.LVL1:
  53              	.LFB5124:
  54              		.file 2 "/home/ubuntu/DaisyExamples/libDaisy/src/hid/disp/oled_display.h"
   1:/home/ubuntu/DaisyExamples/libDaisy/src/hid/disp/oled_display.h **** #pragma once
   2:/home/ubuntu/DaisyExamples/libDaisy/src/hid/disp/oled_display.h **** #ifndef DSY_OLED_DISPLAY_H
   3:/home/ubuntu/DaisyExamples/libDaisy/src/hid/disp/oled_display.h **** #define DSY_OLED_DISPLAY_H /**< Macro */
   4:/home/ubuntu/DaisyExamples/libDaisy/src/hid/disp/oled_display.h **** 
   5:/home/ubuntu/DaisyExamples/libDaisy/src/hid/disp/oled_display.h **** #include "display.h"
   6:/home/ubuntu/DaisyExamples/libDaisy/src/hid/disp/oled_display.h **** 
   7:/home/ubuntu/DaisyExamples/libDaisy/src/hid/disp/oled_display.h **** namespace daisy
   8:/home/ubuntu/DaisyExamples/libDaisy/src/hid/disp/oled_display.h **** {
   9:/home/ubuntu/DaisyExamples/libDaisy/src/hid/disp/oled_display.h **** /** 
  10:/home/ubuntu/DaisyExamples/libDaisy/src/hid/disp/oled_display.h ****  * This class is for drawing to a monochrome OLED display. 
  11:/home/ubuntu/DaisyExamples/libDaisy/src/hid/disp/oled_display.h ****  * @ingroup device
  12:/home/ubuntu/DaisyExamples/libDaisy/src/hid/disp/oled_display.h **** */
  13:/home/ubuntu/DaisyExamples/libDaisy/src/hid/disp/oled_display.h **** template <typename DisplayDriver>
  14:/home/ubuntu/DaisyExamples/libDaisy/src/hid/disp/oled_display.h **** class OledDisplay : public OneBitGraphicsDisplayImpl<OledDisplay<DisplayDriver>>
  15:/home/ubuntu/DaisyExamples/libDaisy/src/hid/disp/oled_display.h **** {
  16:/home/ubuntu/DaisyExamples/libDaisy/src/hid/disp/oled_display.h ****   public:
  17:/home/ubuntu/DaisyExamples/libDaisy/src/hid/disp/oled_display.h ****     OledDisplay() {}
  18:/home/ubuntu/DaisyExamples/libDaisy/src/hid/disp/oled_display.h ****     virtual ~OledDisplay() {}
  19:/home/ubuntu/DaisyExamples/libDaisy/src/hid/disp/oled_display.h **** 
  20:/home/ubuntu/DaisyExamples/libDaisy/src/hid/disp/oled_display.h ****     struct Config
  21:/home/ubuntu/DaisyExamples/libDaisy/src/hid/disp/oled_display.h ****     {
  22:/home/ubuntu/DaisyExamples/libDaisy/src/hid/disp/oled_display.h ****         typename DisplayDriver::Config driver_config;
  23:/home/ubuntu/DaisyExamples/libDaisy/src/hid/disp/oled_display.h ****     };
  24:/home/ubuntu/DaisyExamples/libDaisy/src/hid/disp/oled_display.h **** 
  25:/home/ubuntu/DaisyExamples/libDaisy/src/hid/disp/oled_display.h ****     void Init(Config config) { driver_.Init(config.driver_config); }
  26:/home/ubuntu/DaisyExamples/libDaisy/src/hid/disp/oled_display.h **** 
  27:/home/ubuntu/DaisyExamples/libDaisy/src/hid/disp/oled_display.h ****     uint16_t Height() const override { return driver_.Height(); }
  28:/home/ubuntu/DaisyExamples/libDaisy/src/hid/disp/oled_display.h ****     uint16_t Width() const override { return driver_.Width(); }
  29:/home/ubuntu/DaisyExamples/libDaisy/src/hid/disp/oled_display.h **** 
  30:/home/ubuntu/DaisyExamples/libDaisy/src/hid/disp/oled_display.h ****     /** 
  31:/home/ubuntu/DaisyExamples/libDaisy/src/hid/disp/oled_display.h ****     Fills the entire display with either on/off.
  32:/home/ubuntu/DaisyExamples/libDaisy/src/hid/disp/oled_display.h ****     \param on Sets on or off.
  33:/home/ubuntu/DaisyExamples/libDaisy/src/hid/disp/oled_display.h ****     */
  34:/home/ubuntu/DaisyExamples/libDaisy/src/hid/disp/oled_display.h ****     void Fill(bool on) override { driver_.Fill(on); }
  55              		.loc 2 34 10 is_stmt 1 view -0
  56              		.cfi_startproc
  57              		@ args = 0, pretend = 0, frame = 0
  58              		@ frame_needed = 0, uses_anonymous_args = 0
ARM GAS  /tmp/ccBh0qTK.s 			page 3


  59              		@ link register save eliminated.
  60              	.LBB662:
  61              	.LBI662:
  62              		.file 3 "/home/ubuntu/DaisyExamples/libDaisy/src/dev/oled_ssd130x.h"
   1:/home/ubuntu/DaisyExamples/libDaisy/src/dev/oled_ssd130x.h **** #pragma once
   2:/home/ubuntu/DaisyExamples/libDaisy/src/dev/oled_ssd130x.h **** #ifndef SA_OLED_SSD130X_H
   3:/home/ubuntu/DaisyExamples/libDaisy/src/dev/oled_ssd130x.h **** #define SA_OLED_SSD130X_H /**< & */
   4:/home/ubuntu/DaisyExamples/libDaisy/src/dev/oled_ssd130x.h **** 
   5:/home/ubuntu/DaisyExamples/libDaisy/src/dev/oled_ssd130x.h **** #include "per/i2c.h"
   6:/home/ubuntu/DaisyExamples/libDaisy/src/dev/oled_ssd130x.h **** #include "per/spi.h"
   7:/home/ubuntu/DaisyExamples/libDaisy/src/dev/oled_ssd130x.h **** #include "per/gpio.h"
   8:/home/ubuntu/DaisyExamples/libDaisy/src/dev/oled_ssd130x.h **** #include "sys/system.h"
   9:/home/ubuntu/DaisyExamples/libDaisy/src/dev/oled_ssd130x.h **** 
  10:/home/ubuntu/DaisyExamples/libDaisy/src/dev/oled_ssd130x.h **** namespace daisy
  11:/home/ubuntu/DaisyExamples/libDaisy/src/dev/oled_ssd130x.h **** {
  12:/home/ubuntu/DaisyExamples/libDaisy/src/dev/oled_ssd130x.h **** /**
  13:/home/ubuntu/DaisyExamples/libDaisy/src/dev/oled_ssd130x.h ****  * I2C Transport for SSD1306 / SSD1309 OLED display devices
  14:/home/ubuntu/DaisyExamples/libDaisy/src/dev/oled_ssd130x.h ****  */
  15:/home/ubuntu/DaisyExamples/libDaisy/src/dev/oled_ssd130x.h **** class SSD130xI2CTransport
  16:/home/ubuntu/DaisyExamples/libDaisy/src/dev/oled_ssd130x.h **** {
  17:/home/ubuntu/DaisyExamples/libDaisy/src/dev/oled_ssd130x.h ****   public:
  18:/home/ubuntu/DaisyExamples/libDaisy/src/dev/oled_ssd130x.h ****     struct Config
  19:/home/ubuntu/DaisyExamples/libDaisy/src/dev/oled_ssd130x.h ****     {
  20:/home/ubuntu/DaisyExamples/libDaisy/src/dev/oled_ssd130x.h ****         Config()
  21:/home/ubuntu/DaisyExamples/libDaisy/src/dev/oled_ssd130x.h ****         {
  22:/home/ubuntu/DaisyExamples/libDaisy/src/dev/oled_ssd130x.h ****             // Intialize using defaults
  23:/home/ubuntu/DaisyExamples/libDaisy/src/dev/oled_ssd130x.h ****             Defaults();
  24:/home/ubuntu/DaisyExamples/libDaisy/src/dev/oled_ssd130x.h ****         }
  25:/home/ubuntu/DaisyExamples/libDaisy/src/dev/oled_ssd130x.h ****         I2CHandle::Config i2c_config;
  26:/home/ubuntu/DaisyExamples/libDaisy/src/dev/oled_ssd130x.h ****         uint8_t           i2c_address;
  27:/home/ubuntu/DaisyExamples/libDaisy/src/dev/oled_ssd130x.h ****         void              Defaults()
  28:/home/ubuntu/DaisyExamples/libDaisy/src/dev/oled_ssd130x.h ****         {
  29:/home/ubuntu/DaisyExamples/libDaisy/src/dev/oled_ssd130x.h ****             i2c_config.periph         = I2CHandle::Config::Peripheral::I2C_1;
  30:/home/ubuntu/DaisyExamples/libDaisy/src/dev/oled_ssd130x.h ****             i2c_config.speed          = I2CHandle::Config::Speed::I2C_1MHZ;
  31:/home/ubuntu/DaisyExamples/libDaisy/src/dev/oled_ssd130x.h ****             i2c_config.mode           = I2CHandle::Config::Mode::I2C_MASTER;
  32:/home/ubuntu/DaisyExamples/libDaisy/src/dev/oled_ssd130x.h ****             i2c_config.pin_config.scl = {DSY_GPIOB, 8};
  33:/home/ubuntu/DaisyExamples/libDaisy/src/dev/oled_ssd130x.h ****             i2c_config.pin_config.sda = {DSY_GPIOB, 9};
  34:/home/ubuntu/DaisyExamples/libDaisy/src/dev/oled_ssd130x.h ****             i2c_address               = 0x3C;
  35:/home/ubuntu/DaisyExamples/libDaisy/src/dev/oled_ssd130x.h ****         }
  36:/home/ubuntu/DaisyExamples/libDaisy/src/dev/oled_ssd130x.h ****     };
  37:/home/ubuntu/DaisyExamples/libDaisy/src/dev/oled_ssd130x.h ****     void Init(const Config& config)
  38:/home/ubuntu/DaisyExamples/libDaisy/src/dev/oled_ssd130x.h ****     {
  39:/home/ubuntu/DaisyExamples/libDaisy/src/dev/oled_ssd130x.h ****         i2c_address_ = config.i2c_address;
  40:/home/ubuntu/DaisyExamples/libDaisy/src/dev/oled_ssd130x.h ****         i2c_.Init(config.i2c_config);
  41:/home/ubuntu/DaisyExamples/libDaisy/src/dev/oled_ssd130x.h ****     };
  42:/home/ubuntu/DaisyExamples/libDaisy/src/dev/oled_ssd130x.h ****     void SendCommand(uint8_t cmd)
  43:/home/ubuntu/DaisyExamples/libDaisy/src/dev/oled_ssd130x.h ****     {
  44:/home/ubuntu/DaisyExamples/libDaisy/src/dev/oled_ssd130x.h ****         uint8_t buf[2] = {0X00, cmd};
  45:/home/ubuntu/DaisyExamples/libDaisy/src/dev/oled_ssd130x.h ****         i2c_.TransmitBlocking(i2c_address_, buf, 2, 1000);
  46:/home/ubuntu/DaisyExamples/libDaisy/src/dev/oled_ssd130x.h ****     };
  47:/home/ubuntu/DaisyExamples/libDaisy/src/dev/oled_ssd130x.h **** 
  48:/home/ubuntu/DaisyExamples/libDaisy/src/dev/oled_ssd130x.h ****     void SendData(uint8_t* buff, size_t size)
  49:/home/ubuntu/DaisyExamples/libDaisy/src/dev/oled_ssd130x.h ****     {
  50:/home/ubuntu/DaisyExamples/libDaisy/src/dev/oled_ssd130x.h ****         for(size_t i = 0; i < size; i++)
  51:/home/ubuntu/DaisyExamples/libDaisy/src/dev/oled_ssd130x.h ****         {
  52:/home/ubuntu/DaisyExamples/libDaisy/src/dev/oled_ssd130x.h ****             uint8_t buf[2] = {0X40, buff[i]};
  53:/home/ubuntu/DaisyExamples/libDaisy/src/dev/oled_ssd130x.h ****             i2c_.TransmitBlocking(i2c_address_, buf, 2, 1000);
ARM GAS  /tmp/ccBh0qTK.s 			page 4


  54:/home/ubuntu/DaisyExamples/libDaisy/src/dev/oled_ssd130x.h ****         }
  55:/home/ubuntu/DaisyExamples/libDaisy/src/dev/oled_ssd130x.h ****     };
  56:/home/ubuntu/DaisyExamples/libDaisy/src/dev/oled_ssd130x.h **** 
  57:/home/ubuntu/DaisyExamples/libDaisy/src/dev/oled_ssd130x.h ****   private:
  58:/home/ubuntu/DaisyExamples/libDaisy/src/dev/oled_ssd130x.h ****     daisy::I2CHandle i2c_;
  59:/home/ubuntu/DaisyExamples/libDaisy/src/dev/oled_ssd130x.h ****     uint8_t          i2c_address_;
  60:/home/ubuntu/DaisyExamples/libDaisy/src/dev/oled_ssd130x.h **** };
  61:/home/ubuntu/DaisyExamples/libDaisy/src/dev/oled_ssd130x.h **** 
  62:/home/ubuntu/DaisyExamples/libDaisy/src/dev/oled_ssd130x.h **** /**
  63:/home/ubuntu/DaisyExamples/libDaisy/src/dev/oled_ssd130x.h ****  * 4 Wire SPI Transport for SSD1306 / SSD1309 OLED display devices
  64:/home/ubuntu/DaisyExamples/libDaisy/src/dev/oled_ssd130x.h ****  */
  65:/home/ubuntu/DaisyExamples/libDaisy/src/dev/oled_ssd130x.h **** class SSD130x4WireSpiTransport
  66:/home/ubuntu/DaisyExamples/libDaisy/src/dev/oled_ssd130x.h **** {
  67:/home/ubuntu/DaisyExamples/libDaisy/src/dev/oled_ssd130x.h ****   public:
  68:/home/ubuntu/DaisyExamples/libDaisy/src/dev/oled_ssd130x.h ****     struct Config
  69:/home/ubuntu/DaisyExamples/libDaisy/src/dev/oled_ssd130x.h ****     {
  70:/home/ubuntu/DaisyExamples/libDaisy/src/dev/oled_ssd130x.h ****         Config()
  71:/home/ubuntu/DaisyExamples/libDaisy/src/dev/oled_ssd130x.h ****         {
  72:/home/ubuntu/DaisyExamples/libDaisy/src/dev/oled_ssd130x.h ****             // Initialize using defaults
  73:/home/ubuntu/DaisyExamples/libDaisy/src/dev/oled_ssd130x.h ****             Defaults();
  74:/home/ubuntu/DaisyExamples/libDaisy/src/dev/oled_ssd130x.h ****         }
  75:/home/ubuntu/DaisyExamples/libDaisy/src/dev/oled_ssd130x.h ****         SpiHandle::Config spi_config;
  76:/home/ubuntu/DaisyExamples/libDaisy/src/dev/oled_ssd130x.h ****         struct
  77:/home/ubuntu/DaisyExamples/libDaisy/src/dev/oled_ssd130x.h ****         {
  78:/home/ubuntu/DaisyExamples/libDaisy/src/dev/oled_ssd130x.h ****             dsy_gpio_pin dc;    /**< & */
  79:/home/ubuntu/DaisyExamples/libDaisy/src/dev/oled_ssd130x.h ****             dsy_gpio_pin reset; /**< & */
  80:/home/ubuntu/DaisyExamples/libDaisy/src/dev/oled_ssd130x.h ****         } pin_config;
  81:/home/ubuntu/DaisyExamples/libDaisy/src/dev/oled_ssd130x.h ****         void Defaults()
  82:/home/ubuntu/DaisyExamples/libDaisy/src/dev/oled_ssd130x.h ****         {
  83:/home/ubuntu/DaisyExamples/libDaisy/src/dev/oled_ssd130x.h ****             // SPI peripheral config
  84:/home/ubuntu/DaisyExamples/libDaisy/src/dev/oled_ssd130x.h ****             spi_config.periph = SpiHandle::Config::Peripheral::SPI_1;
  85:/home/ubuntu/DaisyExamples/libDaisy/src/dev/oled_ssd130x.h ****             spi_config.mode   = SpiHandle::Config::Mode::MASTER;
  86:/home/ubuntu/DaisyExamples/libDaisy/src/dev/oled_ssd130x.h ****             spi_config.direction
  87:/home/ubuntu/DaisyExamples/libDaisy/src/dev/oled_ssd130x.h ****                 = SpiHandle::Config::Direction::TWO_LINES_TX_ONLY;
  88:/home/ubuntu/DaisyExamples/libDaisy/src/dev/oled_ssd130x.h ****             spi_config.datasize       = 8;
  89:/home/ubuntu/DaisyExamples/libDaisy/src/dev/oled_ssd130x.h ****             spi_config.clock_polarity = SpiHandle::Config::ClockPolarity::LOW;
  90:/home/ubuntu/DaisyExamples/libDaisy/src/dev/oled_ssd130x.h ****             spi_config.clock_phase    = SpiHandle::Config::ClockPhase::ONE_EDGE;
  91:/home/ubuntu/DaisyExamples/libDaisy/src/dev/oled_ssd130x.h ****             spi_config.nss            = SpiHandle::Config::NSS::HARD_OUTPUT;
  92:/home/ubuntu/DaisyExamples/libDaisy/src/dev/oled_ssd130x.h ****             spi_config.baud_prescaler = SpiHandle::Config::BaudPrescaler::PS_8;
  93:/home/ubuntu/DaisyExamples/libDaisy/src/dev/oled_ssd130x.h ****             // SPI pin config
  94:/home/ubuntu/DaisyExamples/libDaisy/src/dev/oled_ssd130x.h ****             spi_config.pin_config.sclk = {DSY_GPIOG, 11};
  95:/home/ubuntu/DaisyExamples/libDaisy/src/dev/oled_ssd130x.h ****             spi_config.pin_config.miso = {DSY_GPIOX, 0};
  96:/home/ubuntu/DaisyExamples/libDaisy/src/dev/oled_ssd130x.h ****             spi_config.pin_config.mosi = {DSY_GPIOB, 5};
  97:/home/ubuntu/DaisyExamples/libDaisy/src/dev/oled_ssd130x.h ****             spi_config.pin_config.nss  = {DSY_GPIOG, 10};
  98:/home/ubuntu/DaisyExamples/libDaisy/src/dev/oled_ssd130x.h ****             // SSD130x control pin config
  99:/home/ubuntu/DaisyExamples/libDaisy/src/dev/oled_ssd130x.h ****             pin_config.dc    = {DSY_GPIOB, 4};
 100:/home/ubuntu/DaisyExamples/libDaisy/src/dev/oled_ssd130x.h ****             pin_config.reset = {DSY_GPIOB, 15};
 101:/home/ubuntu/DaisyExamples/libDaisy/src/dev/oled_ssd130x.h ****         }
 102:/home/ubuntu/DaisyExamples/libDaisy/src/dev/oled_ssd130x.h ****     };
 103:/home/ubuntu/DaisyExamples/libDaisy/src/dev/oled_ssd130x.h ****     void Init(const Config& config)
 104:/home/ubuntu/DaisyExamples/libDaisy/src/dev/oled_ssd130x.h ****     {
 105:/home/ubuntu/DaisyExamples/libDaisy/src/dev/oled_ssd130x.h ****         // Initialize both GPIO
 106:/home/ubuntu/DaisyExamples/libDaisy/src/dev/oled_ssd130x.h ****         pin_dc_.mode = DSY_GPIO_MODE_OUTPUT_PP;
 107:/home/ubuntu/DaisyExamples/libDaisy/src/dev/oled_ssd130x.h ****         pin_dc_.pin  = config.pin_config.dc;
 108:/home/ubuntu/DaisyExamples/libDaisy/src/dev/oled_ssd130x.h ****         dsy_gpio_init(&pin_dc_);
 109:/home/ubuntu/DaisyExamples/libDaisy/src/dev/oled_ssd130x.h ****         pin_reset_.mode = DSY_GPIO_MODE_OUTPUT_PP;
 110:/home/ubuntu/DaisyExamples/libDaisy/src/dev/oled_ssd130x.h ****         pin_reset_.pin  = config.pin_config.reset;
ARM GAS  /tmp/ccBh0qTK.s 			page 5


 111:/home/ubuntu/DaisyExamples/libDaisy/src/dev/oled_ssd130x.h ****         dsy_gpio_init(&pin_reset_);
 112:/home/ubuntu/DaisyExamples/libDaisy/src/dev/oled_ssd130x.h **** 
 113:/home/ubuntu/DaisyExamples/libDaisy/src/dev/oled_ssd130x.h ****         // Initialize SPI
 114:/home/ubuntu/DaisyExamples/libDaisy/src/dev/oled_ssd130x.h ****         spi_.Init(config.spi_config);
 115:/home/ubuntu/DaisyExamples/libDaisy/src/dev/oled_ssd130x.h **** 
 116:/home/ubuntu/DaisyExamples/libDaisy/src/dev/oled_ssd130x.h ****         // Reset and Configure OLED.
 117:/home/ubuntu/DaisyExamples/libDaisy/src/dev/oled_ssd130x.h ****         dsy_gpio_write(&pin_reset_, 0);
 118:/home/ubuntu/DaisyExamples/libDaisy/src/dev/oled_ssd130x.h ****         System::Delay(10);
 119:/home/ubuntu/DaisyExamples/libDaisy/src/dev/oled_ssd130x.h ****         dsy_gpio_write(&pin_reset_, 1);
 120:/home/ubuntu/DaisyExamples/libDaisy/src/dev/oled_ssd130x.h ****         System::Delay(10);
 121:/home/ubuntu/DaisyExamples/libDaisy/src/dev/oled_ssd130x.h ****     };
 122:/home/ubuntu/DaisyExamples/libDaisy/src/dev/oled_ssd130x.h ****     void SendCommand(uint8_t cmd)
 123:/home/ubuntu/DaisyExamples/libDaisy/src/dev/oled_ssd130x.h ****     {
 124:/home/ubuntu/DaisyExamples/libDaisy/src/dev/oled_ssd130x.h ****         dsy_gpio_write(&pin_dc_, 0);
 125:/home/ubuntu/DaisyExamples/libDaisy/src/dev/oled_ssd130x.h ****         spi_.BlockingTransmit(&cmd, 1);
 126:/home/ubuntu/DaisyExamples/libDaisy/src/dev/oled_ssd130x.h ****     };
 127:/home/ubuntu/DaisyExamples/libDaisy/src/dev/oled_ssd130x.h **** 
 128:/home/ubuntu/DaisyExamples/libDaisy/src/dev/oled_ssd130x.h ****     void SendData(uint8_t* buff, size_t size)
 129:/home/ubuntu/DaisyExamples/libDaisy/src/dev/oled_ssd130x.h ****     {
 130:/home/ubuntu/DaisyExamples/libDaisy/src/dev/oled_ssd130x.h ****         dsy_gpio_write(&pin_dc_, 1);
 131:/home/ubuntu/DaisyExamples/libDaisy/src/dev/oled_ssd130x.h ****         spi_.BlockingTransmit(buff, size);
 132:/home/ubuntu/DaisyExamples/libDaisy/src/dev/oled_ssd130x.h ****     };
 133:/home/ubuntu/DaisyExamples/libDaisy/src/dev/oled_ssd130x.h **** 
 134:/home/ubuntu/DaisyExamples/libDaisy/src/dev/oled_ssd130x.h ****   private:
 135:/home/ubuntu/DaisyExamples/libDaisy/src/dev/oled_ssd130x.h ****     SpiHandle spi_;
 136:/home/ubuntu/DaisyExamples/libDaisy/src/dev/oled_ssd130x.h ****     dsy_gpio  pin_reset_;
 137:/home/ubuntu/DaisyExamples/libDaisy/src/dev/oled_ssd130x.h ****     dsy_gpio  pin_dc_;
 138:/home/ubuntu/DaisyExamples/libDaisy/src/dev/oled_ssd130x.h **** };
 139:/home/ubuntu/DaisyExamples/libDaisy/src/dev/oled_ssd130x.h **** 
 140:/home/ubuntu/DaisyExamples/libDaisy/src/dev/oled_ssd130x.h **** /**
 141:/home/ubuntu/DaisyExamples/libDaisy/src/dev/oled_ssd130x.h ****  * Soft SPI Transport for SSD1306 / SSD1309 OLED display devices
 142:/home/ubuntu/DaisyExamples/libDaisy/src/dev/oled_ssd130x.h ****  */
 143:/home/ubuntu/DaisyExamples/libDaisy/src/dev/oled_ssd130x.h **** class SSD130x4WireSoftSpiTransport
 144:/home/ubuntu/DaisyExamples/libDaisy/src/dev/oled_ssd130x.h **** {
 145:/home/ubuntu/DaisyExamples/libDaisy/src/dev/oled_ssd130x.h ****   public:
 146:/home/ubuntu/DaisyExamples/libDaisy/src/dev/oled_ssd130x.h ****     struct Config
 147:/home/ubuntu/DaisyExamples/libDaisy/src/dev/oled_ssd130x.h ****     {
 148:/home/ubuntu/DaisyExamples/libDaisy/src/dev/oled_ssd130x.h ****         Config()
 149:/home/ubuntu/DaisyExamples/libDaisy/src/dev/oled_ssd130x.h ****         {
 150:/home/ubuntu/DaisyExamples/libDaisy/src/dev/oled_ssd130x.h ****             // Initialize using defaults
 151:/home/ubuntu/DaisyExamples/libDaisy/src/dev/oled_ssd130x.h ****             Defaults();
 152:/home/ubuntu/DaisyExamples/libDaisy/src/dev/oled_ssd130x.h ****         }
 153:/home/ubuntu/DaisyExamples/libDaisy/src/dev/oled_ssd130x.h ****         struct
 154:/home/ubuntu/DaisyExamples/libDaisy/src/dev/oled_ssd130x.h ****         {
 155:/home/ubuntu/DaisyExamples/libDaisy/src/dev/oled_ssd130x.h ****             uint32_t     sclk_delay;
 156:/home/ubuntu/DaisyExamples/libDaisy/src/dev/oled_ssd130x.h ****             dsy_gpio_pin sclk;
 157:/home/ubuntu/DaisyExamples/libDaisy/src/dev/oled_ssd130x.h ****             dsy_gpio_pin mosi;
 158:/home/ubuntu/DaisyExamples/libDaisy/src/dev/oled_ssd130x.h ****             dsy_gpio_pin dc;
 159:/home/ubuntu/DaisyExamples/libDaisy/src/dev/oled_ssd130x.h ****             dsy_gpio_pin reset;
 160:/home/ubuntu/DaisyExamples/libDaisy/src/dev/oled_ssd130x.h ****         } pin_config;
 161:/home/ubuntu/DaisyExamples/libDaisy/src/dev/oled_ssd130x.h ****         void Defaults()
 162:/home/ubuntu/DaisyExamples/libDaisy/src/dev/oled_ssd130x.h ****         {
 163:/home/ubuntu/DaisyExamples/libDaisy/src/dev/oled_ssd130x.h ****             pin_config.sclk_delay = 0; // fast as possible?!
 164:/home/ubuntu/DaisyExamples/libDaisy/src/dev/oled_ssd130x.h ****             // SPI peripheral config
 165:/home/ubuntu/DaisyExamples/libDaisy/src/dev/oled_ssd130x.h ****             pin_config.sclk = {DSY_GPIOD, 3}; /**< D10 - SPI2 SCK  */
 166:/home/ubuntu/DaisyExamples/libDaisy/src/dev/oled_ssd130x.h ****             pin_config.mosi = {DSY_GPIOC, 3}; /**< D9  - SPI2 MOSI */
 167:/home/ubuntu/DaisyExamples/libDaisy/src/dev/oled_ssd130x.h ****             // SSD130x control pin config
ARM GAS  /tmp/ccBh0qTK.s 			page 6


 168:/home/ubuntu/DaisyExamples/libDaisy/src/dev/oled_ssd130x.h ****             pin_config.dc    = {DSY_GPIOC, 11}; //D2
 169:/home/ubuntu/DaisyExamples/libDaisy/src/dev/oled_ssd130x.h ****             pin_config.reset = {DSY_GPIOC, 10}; //D3
 170:/home/ubuntu/DaisyExamples/libDaisy/src/dev/oled_ssd130x.h ****         }
 171:/home/ubuntu/DaisyExamples/libDaisy/src/dev/oled_ssd130x.h ****     };
 172:/home/ubuntu/DaisyExamples/libDaisy/src/dev/oled_ssd130x.h ****     void Init(const Config& config)
 173:/home/ubuntu/DaisyExamples/libDaisy/src/dev/oled_ssd130x.h ****     {
 174:/home/ubuntu/DaisyExamples/libDaisy/src/dev/oled_ssd130x.h ****         // Initialize both GPIO
 175:/home/ubuntu/DaisyExamples/libDaisy/src/dev/oled_ssd130x.h ****         pin_sclk_.mode = DSY_GPIO_MODE_OUTPUT_PP;
 176:/home/ubuntu/DaisyExamples/libDaisy/src/dev/oled_ssd130x.h ****         pin_sclk_.pin  = config.pin_config.sclk;
 177:/home/ubuntu/DaisyExamples/libDaisy/src/dev/oled_ssd130x.h ****         dsy_gpio_init(&pin_sclk_);
 178:/home/ubuntu/DaisyExamples/libDaisy/src/dev/oled_ssd130x.h ****         dsy_gpio_write(&pin_sclk_, 1); //ClockPolarity::LOW
 179:/home/ubuntu/DaisyExamples/libDaisy/src/dev/oled_ssd130x.h ****         clk_delay      = config.pin_config.sclk_delay;
 180:/home/ubuntu/DaisyExamples/libDaisy/src/dev/oled_ssd130x.h ****         pin_mosi_.mode = DSY_GPIO_MODE_OUTPUT_PP;
 181:/home/ubuntu/DaisyExamples/libDaisy/src/dev/oled_ssd130x.h ****         pin_mosi_.pin  = config.pin_config.mosi;
 182:/home/ubuntu/DaisyExamples/libDaisy/src/dev/oled_ssd130x.h ****         dsy_gpio_init(&pin_mosi_);
 183:/home/ubuntu/DaisyExamples/libDaisy/src/dev/oled_ssd130x.h ****         dsy_gpio_write(&pin_mosi_, 0);
 184:/home/ubuntu/DaisyExamples/libDaisy/src/dev/oled_ssd130x.h **** 
 185:/home/ubuntu/DaisyExamples/libDaisy/src/dev/oled_ssd130x.h ****         pin_dc_.mode = DSY_GPIO_MODE_OUTPUT_PP;
 186:/home/ubuntu/DaisyExamples/libDaisy/src/dev/oled_ssd130x.h ****         pin_dc_.pin  = config.pin_config.dc;
 187:/home/ubuntu/DaisyExamples/libDaisy/src/dev/oled_ssd130x.h ****         dsy_gpio_init(&pin_dc_);
 188:/home/ubuntu/DaisyExamples/libDaisy/src/dev/oled_ssd130x.h ****         pin_reset_.mode = DSY_GPIO_MODE_OUTPUT_PP;
 189:/home/ubuntu/DaisyExamples/libDaisy/src/dev/oled_ssd130x.h ****         pin_reset_.pin  = config.pin_config.reset;
 190:/home/ubuntu/DaisyExamples/libDaisy/src/dev/oled_ssd130x.h ****         dsy_gpio_init(&pin_reset_);
 191:/home/ubuntu/DaisyExamples/libDaisy/src/dev/oled_ssd130x.h **** 
 192:/home/ubuntu/DaisyExamples/libDaisy/src/dev/oled_ssd130x.h ****         // Reset and Configure OLED.
 193:/home/ubuntu/DaisyExamples/libDaisy/src/dev/oled_ssd130x.h ****         dsy_gpio_write(&pin_reset_, 0);
 194:/home/ubuntu/DaisyExamples/libDaisy/src/dev/oled_ssd130x.h ****         System::Delay(10);
 195:/home/ubuntu/DaisyExamples/libDaisy/src/dev/oled_ssd130x.h ****         dsy_gpio_write(&pin_reset_, 1);
 196:/home/ubuntu/DaisyExamples/libDaisy/src/dev/oled_ssd130x.h ****         System::Delay(10);
 197:/home/ubuntu/DaisyExamples/libDaisy/src/dev/oled_ssd130x.h ****     };
 198:/home/ubuntu/DaisyExamples/libDaisy/src/dev/oled_ssd130x.h ****     void SendCommand(uint8_t cmd)
 199:/home/ubuntu/DaisyExamples/libDaisy/src/dev/oled_ssd130x.h ****     {
 200:/home/ubuntu/DaisyExamples/libDaisy/src/dev/oled_ssd130x.h ****         dsy_gpio_write(&pin_dc_, 0);
 201:/home/ubuntu/DaisyExamples/libDaisy/src/dev/oled_ssd130x.h ****         SoftSpiTransmit(cmd);
 202:/home/ubuntu/DaisyExamples/libDaisy/src/dev/oled_ssd130x.h ****     };
 203:/home/ubuntu/DaisyExamples/libDaisy/src/dev/oled_ssd130x.h **** 
 204:/home/ubuntu/DaisyExamples/libDaisy/src/dev/oled_ssd130x.h ****     void SendData(uint8_t* buff, size_t size)
 205:/home/ubuntu/DaisyExamples/libDaisy/src/dev/oled_ssd130x.h ****     {
 206:/home/ubuntu/DaisyExamples/libDaisy/src/dev/oled_ssd130x.h ****         dsy_gpio_write(&pin_dc_, 1);
 207:/home/ubuntu/DaisyExamples/libDaisy/src/dev/oled_ssd130x.h ****         for(size_t i = 0; i < size; i++)
 208:/home/ubuntu/DaisyExamples/libDaisy/src/dev/oled_ssd130x.h ****             SoftSpiTransmit(buff[i]);
 209:/home/ubuntu/DaisyExamples/libDaisy/src/dev/oled_ssd130x.h ****     };
 210:/home/ubuntu/DaisyExamples/libDaisy/src/dev/oled_ssd130x.h **** 
 211:/home/ubuntu/DaisyExamples/libDaisy/src/dev/oled_ssd130x.h ****   private:
 212:/home/ubuntu/DaisyExamples/libDaisy/src/dev/oled_ssd130x.h ****     void SoftSpiTransmit(uint8_t val)
 213:/home/ubuntu/DaisyExamples/libDaisy/src/dev/oled_ssd130x.h ****     {
 214:/home/ubuntu/DaisyExamples/libDaisy/src/dev/oled_ssd130x.h ****         // bit flip
 215:/home/ubuntu/DaisyExamples/libDaisy/src/dev/oled_ssd130x.h ****         val = ((val & 0x01) << 7) | ((val & 0x02) << 5) | ((val & 0x04) << 3)
 216:/home/ubuntu/DaisyExamples/libDaisy/src/dev/oled_ssd130x.h ****               | ((val & 0x08) << 1) | ((val & 0x10) >> 1) | ((val & 0x20) >> 3)
 217:/home/ubuntu/DaisyExamples/libDaisy/src/dev/oled_ssd130x.h ****               | ((val & 0x40) >> 5) | ((val & 0x80) >> 7);
 218:/home/ubuntu/DaisyExamples/libDaisy/src/dev/oled_ssd130x.h **** 
 219:/home/ubuntu/DaisyExamples/libDaisy/src/dev/oled_ssd130x.h ****         for(uint8_t bit = 0u; bit < 8u; bit++)
 220:/home/ubuntu/DaisyExamples/libDaisy/src/dev/oled_ssd130x.h ****         {
 221:/home/ubuntu/DaisyExamples/libDaisy/src/dev/oled_ssd130x.h ****             dsy_gpio_write(&pin_mosi_, ((val & (1 << bit)) ? 1 : 0));
 222:/home/ubuntu/DaisyExamples/libDaisy/src/dev/oled_ssd130x.h **** 
 223:/home/ubuntu/DaisyExamples/libDaisy/src/dev/oled_ssd130x.h ****             System::DelayTicks(clk_delay);
 224:/home/ubuntu/DaisyExamples/libDaisy/src/dev/oled_ssd130x.h **** 
ARM GAS  /tmp/ccBh0qTK.s 			page 7


 225:/home/ubuntu/DaisyExamples/libDaisy/src/dev/oled_ssd130x.h ****             dsy_gpio_toggle(&pin_sclk_);
 226:/home/ubuntu/DaisyExamples/libDaisy/src/dev/oled_ssd130x.h **** 
 227:/home/ubuntu/DaisyExamples/libDaisy/src/dev/oled_ssd130x.h ****             System::DelayTicks(clk_delay);
 228:/home/ubuntu/DaisyExamples/libDaisy/src/dev/oled_ssd130x.h **** 
 229:/home/ubuntu/DaisyExamples/libDaisy/src/dev/oled_ssd130x.h ****             dsy_gpio_toggle(&pin_sclk_);
 230:/home/ubuntu/DaisyExamples/libDaisy/src/dev/oled_ssd130x.h ****         }
 231:/home/ubuntu/DaisyExamples/libDaisy/src/dev/oled_ssd130x.h ****     }
 232:/home/ubuntu/DaisyExamples/libDaisy/src/dev/oled_ssd130x.h **** 
 233:/home/ubuntu/DaisyExamples/libDaisy/src/dev/oled_ssd130x.h ****     uint32_t clk_delay;
 234:/home/ubuntu/DaisyExamples/libDaisy/src/dev/oled_ssd130x.h ****     dsy_gpio pin_sclk_;
 235:/home/ubuntu/DaisyExamples/libDaisy/src/dev/oled_ssd130x.h ****     dsy_gpio pin_mosi_;
 236:/home/ubuntu/DaisyExamples/libDaisy/src/dev/oled_ssd130x.h ****     dsy_gpio pin_reset_;
 237:/home/ubuntu/DaisyExamples/libDaisy/src/dev/oled_ssd130x.h ****     dsy_gpio pin_dc_;
 238:/home/ubuntu/DaisyExamples/libDaisy/src/dev/oled_ssd130x.h **** };
 239:/home/ubuntu/DaisyExamples/libDaisy/src/dev/oled_ssd130x.h **** 
 240:/home/ubuntu/DaisyExamples/libDaisy/src/dev/oled_ssd130x.h **** 
 241:/home/ubuntu/DaisyExamples/libDaisy/src/dev/oled_ssd130x.h **** /**
 242:/home/ubuntu/DaisyExamples/libDaisy/src/dev/oled_ssd130x.h ****  * A driver implementation for the SSD1306/SSD1309
 243:/home/ubuntu/DaisyExamples/libDaisy/src/dev/oled_ssd130x.h ****  */
 244:/home/ubuntu/DaisyExamples/libDaisy/src/dev/oled_ssd130x.h **** template <size_t width, size_t height, typename Transport>
 245:/home/ubuntu/DaisyExamples/libDaisy/src/dev/oled_ssd130x.h **** class SSD130xDriver
 246:/home/ubuntu/DaisyExamples/libDaisy/src/dev/oled_ssd130x.h **** {
 247:/home/ubuntu/DaisyExamples/libDaisy/src/dev/oled_ssd130x.h ****   public:
 248:/home/ubuntu/DaisyExamples/libDaisy/src/dev/oled_ssd130x.h ****     struct Config
 249:/home/ubuntu/DaisyExamples/libDaisy/src/dev/oled_ssd130x.h ****     {
 250:/home/ubuntu/DaisyExamples/libDaisy/src/dev/oled_ssd130x.h ****         typename Transport::Config transport_config;
 251:/home/ubuntu/DaisyExamples/libDaisy/src/dev/oled_ssd130x.h ****     };
 252:/home/ubuntu/DaisyExamples/libDaisy/src/dev/oled_ssd130x.h **** 
 253:/home/ubuntu/DaisyExamples/libDaisy/src/dev/oled_ssd130x.h ****     void Init(Config config)
 254:/home/ubuntu/DaisyExamples/libDaisy/src/dev/oled_ssd130x.h ****     {
 255:/home/ubuntu/DaisyExamples/libDaisy/src/dev/oled_ssd130x.h ****         transport_.Init(config.transport_config);
 256:/home/ubuntu/DaisyExamples/libDaisy/src/dev/oled_ssd130x.h **** 
 257:/home/ubuntu/DaisyExamples/libDaisy/src/dev/oled_ssd130x.h ****         // Init routine...
 258:/home/ubuntu/DaisyExamples/libDaisy/src/dev/oled_ssd130x.h **** 
 259:/home/ubuntu/DaisyExamples/libDaisy/src/dev/oled_ssd130x.h ****         // Display Off
 260:/home/ubuntu/DaisyExamples/libDaisy/src/dev/oled_ssd130x.h ****         transport_.SendCommand(0xaE);
 261:/home/ubuntu/DaisyExamples/libDaisy/src/dev/oled_ssd130x.h ****         // Dimension dependent commands...
 262:/home/ubuntu/DaisyExamples/libDaisy/src/dev/oled_ssd130x.h ****         switch(height)
 263:/home/ubuntu/DaisyExamples/libDaisy/src/dev/oled_ssd130x.h ****         {
 264:/home/ubuntu/DaisyExamples/libDaisy/src/dev/oled_ssd130x.h ****             case 16:
 265:/home/ubuntu/DaisyExamples/libDaisy/src/dev/oled_ssd130x.h ****                 // Display Clock Divide Ratio
 266:/home/ubuntu/DaisyExamples/libDaisy/src/dev/oled_ssd130x.h ****                 transport_.SendCommand(0xD5);
 267:/home/ubuntu/DaisyExamples/libDaisy/src/dev/oled_ssd130x.h ****                 transport_.SendCommand(0x60);
 268:/home/ubuntu/DaisyExamples/libDaisy/src/dev/oled_ssd130x.h ****                 // Multiplex Ratio
 269:/home/ubuntu/DaisyExamples/libDaisy/src/dev/oled_ssd130x.h ****                 transport_.SendCommand(0xA8);
 270:/home/ubuntu/DaisyExamples/libDaisy/src/dev/oled_ssd130x.h ****                 transport_.SendCommand(0x0F);
 271:/home/ubuntu/DaisyExamples/libDaisy/src/dev/oled_ssd130x.h ****                 // COM Pins
 272:/home/ubuntu/DaisyExamples/libDaisy/src/dev/oled_ssd130x.h ****                 transport_.SendCommand(0xDA);
 273:/home/ubuntu/DaisyExamples/libDaisy/src/dev/oled_ssd130x.h ****                 transport_.SendCommand(0x02);
 274:/home/ubuntu/DaisyExamples/libDaisy/src/dev/oled_ssd130x.h ****                 break;
 275:/home/ubuntu/DaisyExamples/libDaisy/src/dev/oled_ssd130x.h ****             case 32:
 276:/home/ubuntu/DaisyExamples/libDaisy/src/dev/oled_ssd130x.h ****                 // Display Clock Divide Ratio
 277:/home/ubuntu/DaisyExamples/libDaisy/src/dev/oled_ssd130x.h ****                 transport_.SendCommand(0xD5);
 278:/home/ubuntu/DaisyExamples/libDaisy/src/dev/oled_ssd130x.h ****                 transport_.SendCommand(0x80);
 279:/home/ubuntu/DaisyExamples/libDaisy/src/dev/oled_ssd130x.h ****                 // Multiplex Ratio
 280:/home/ubuntu/DaisyExamples/libDaisy/src/dev/oled_ssd130x.h ****                 transport_.SendCommand(0xA8);
 281:/home/ubuntu/DaisyExamples/libDaisy/src/dev/oled_ssd130x.h ****                 transport_.SendCommand(0x1F);
ARM GAS  /tmp/ccBh0qTK.s 			page 8


 282:/home/ubuntu/DaisyExamples/libDaisy/src/dev/oled_ssd130x.h ****                 // COM Pins
 283:/home/ubuntu/DaisyExamples/libDaisy/src/dev/oled_ssd130x.h ****                 transport_.SendCommand(0xDA);
 284:/home/ubuntu/DaisyExamples/libDaisy/src/dev/oled_ssd130x.h ****                 if(width == 64)
 285:/home/ubuntu/DaisyExamples/libDaisy/src/dev/oled_ssd130x.h ****                 {
 286:/home/ubuntu/DaisyExamples/libDaisy/src/dev/oled_ssd130x.h ****                     transport_.SendCommand(0x12);
 287:/home/ubuntu/DaisyExamples/libDaisy/src/dev/oled_ssd130x.h ****                 }
 288:/home/ubuntu/DaisyExamples/libDaisy/src/dev/oled_ssd130x.h ****                 else
 289:/home/ubuntu/DaisyExamples/libDaisy/src/dev/oled_ssd130x.h ****                 {
 290:/home/ubuntu/DaisyExamples/libDaisy/src/dev/oled_ssd130x.h ****                     transport_.SendCommand(0x02);
 291:/home/ubuntu/DaisyExamples/libDaisy/src/dev/oled_ssd130x.h ****                 }
 292:/home/ubuntu/DaisyExamples/libDaisy/src/dev/oled_ssd130x.h **** 
 293:/home/ubuntu/DaisyExamples/libDaisy/src/dev/oled_ssd130x.h ****                 break;
 294:/home/ubuntu/DaisyExamples/libDaisy/src/dev/oled_ssd130x.h ****             case 48:
 295:/home/ubuntu/DaisyExamples/libDaisy/src/dev/oled_ssd130x.h ****                 // Display Clock Divide Ratio
 296:/home/ubuntu/DaisyExamples/libDaisy/src/dev/oled_ssd130x.h ****                 transport_.SendCommand(0xD5);
 297:/home/ubuntu/DaisyExamples/libDaisy/src/dev/oled_ssd130x.h ****                 transport_.SendCommand(0x80);
 298:/home/ubuntu/DaisyExamples/libDaisy/src/dev/oled_ssd130x.h ****                 // Multiplex Ratio
 299:/home/ubuntu/DaisyExamples/libDaisy/src/dev/oled_ssd130x.h ****                 transport_.SendCommand(0xA8);
 300:/home/ubuntu/DaisyExamples/libDaisy/src/dev/oled_ssd130x.h ****                 transport_.SendCommand(0x2F);
 301:/home/ubuntu/DaisyExamples/libDaisy/src/dev/oled_ssd130x.h ****                 // COM Pins
 302:/home/ubuntu/DaisyExamples/libDaisy/src/dev/oled_ssd130x.h ****                 transport_.SendCommand(0xDA);
 303:/home/ubuntu/DaisyExamples/libDaisy/src/dev/oled_ssd130x.h ****                 transport_.SendCommand(0x12);
 304:/home/ubuntu/DaisyExamples/libDaisy/src/dev/oled_ssd130x.h ****                 break;
 305:/home/ubuntu/DaisyExamples/libDaisy/src/dev/oled_ssd130x.h ****             default: // 128
 306:/home/ubuntu/DaisyExamples/libDaisy/src/dev/oled_ssd130x.h ****                 // Display Clock Divide Ratio
 307:/home/ubuntu/DaisyExamples/libDaisy/src/dev/oled_ssd130x.h ****                 transport_.SendCommand(0xD5);
 308:/home/ubuntu/DaisyExamples/libDaisy/src/dev/oled_ssd130x.h ****                 transport_.SendCommand(0x80);
 309:/home/ubuntu/DaisyExamples/libDaisy/src/dev/oled_ssd130x.h ****                 // Multiplex Ratio
 310:/home/ubuntu/DaisyExamples/libDaisy/src/dev/oled_ssd130x.h ****                 transport_.SendCommand(0xA8);
 311:/home/ubuntu/DaisyExamples/libDaisy/src/dev/oled_ssd130x.h ****                 transport_.SendCommand(0x3F);
 312:/home/ubuntu/DaisyExamples/libDaisy/src/dev/oled_ssd130x.h ****                 // COM Pins
 313:/home/ubuntu/DaisyExamples/libDaisy/src/dev/oled_ssd130x.h ****                 transport_.SendCommand(0xDA);
 314:/home/ubuntu/DaisyExamples/libDaisy/src/dev/oled_ssd130x.h ****                 transport_.SendCommand(0x12);
 315:/home/ubuntu/DaisyExamples/libDaisy/src/dev/oled_ssd130x.h ****                 break;
 316:/home/ubuntu/DaisyExamples/libDaisy/src/dev/oled_ssd130x.h ****         }
 317:/home/ubuntu/DaisyExamples/libDaisy/src/dev/oled_ssd130x.h **** 
 318:/home/ubuntu/DaisyExamples/libDaisy/src/dev/oled_ssd130x.h ****         // Display Offset
 319:/home/ubuntu/DaisyExamples/libDaisy/src/dev/oled_ssd130x.h ****         transport_.SendCommand(0xD3);
 320:/home/ubuntu/DaisyExamples/libDaisy/src/dev/oled_ssd130x.h ****         transport_.SendCommand(0x00);
 321:/home/ubuntu/DaisyExamples/libDaisy/src/dev/oled_ssd130x.h ****         // Start Line Address
 322:/home/ubuntu/DaisyExamples/libDaisy/src/dev/oled_ssd130x.h ****         transport_.SendCommand(0x40);
 323:/home/ubuntu/DaisyExamples/libDaisy/src/dev/oled_ssd130x.h ****         // Normal Display
 324:/home/ubuntu/DaisyExamples/libDaisy/src/dev/oled_ssd130x.h ****         transport_.SendCommand(0xA6);
 325:/home/ubuntu/DaisyExamples/libDaisy/src/dev/oled_ssd130x.h ****         // All On Resume
 326:/home/ubuntu/DaisyExamples/libDaisy/src/dev/oled_ssd130x.h ****         transport_.SendCommand(0xA4);
 327:/home/ubuntu/DaisyExamples/libDaisy/src/dev/oled_ssd130x.h ****         // Charge Pump
 328:/home/ubuntu/DaisyExamples/libDaisy/src/dev/oled_ssd130x.h ****         transport_.SendCommand(0x8D);
 329:/home/ubuntu/DaisyExamples/libDaisy/src/dev/oled_ssd130x.h ****         transport_.SendCommand(0x14);
 330:/home/ubuntu/DaisyExamples/libDaisy/src/dev/oled_ssd130x.h ****         // Set Segment Remap
 331:/home/ubuntu/DaisyExamples/libDaisy/src/dev/oled_ssd130x.h ****         transport_.SendCommand(0xA1);
 332:/home/ubuntu/DaisyExamples/libDaisy/src/dev/oled_ssd130x.h ****         // COM Output Scan Direction
 333:/home/ubuntu/DaisyExamples/libDaisy/src/dev/oled_ssd130x.h ****         transport_.SendCommand(0xC8);
 334:/home/ubuntu/DaisyExamples/libDaisy/src/dev/oled_ssd130x.h ****         // Contrast Control
 335:/home/ubuntu/DaisyExamples/libDaisy/src/dev/oled_ssd130x.h ****         transport_.SendCommand(0x81);
 336:/home/ubuntu/DaisyExamples/libDaisy/src/dev/oled_ssd130x.h ****         transport_.SendCommand(0x8F);
 337:/home/ubuntu/DaisyExamples/libDaisy/src/dev/oled_ssd130x.h ****         // Pre Charge
 338:/home/ubuntu/DaisyExamples/libDaisy/src/dev/oled_ssd130x.h ****         transport_.SendCommand(0xD9);
ARM GAS  /tmp/ccBh0qTK.s 			page 9


 339:/home/ubuntu/DaisyExamples/libDaisy/src/dev/oled_ssd130x.h ****         transport_.SendCommand(0x25);
 340:/home/ubuntu/DaisyExamples/libDaisy/src/dev/oled_ssd130x.h ****         // VCOM Detect
 341:/home/ubuntu/DaisyExamples/libDaisy/src/dev/oled_ssd130x.h ****         transport_.SendCommand(0xDB);
 342:/home/ubuntu/DaisyExamples/libDaisy/src/dev/oled_ssd130x.h ****         transport_.SendCommand(0x34);
 343:/home/ubuntu/DaisyExamples/libDaisy/src/dev/oled_ssd130x.h **** 
 344:/home/ubuntu/DaisyExamples/libDaisy/src/dev/oled_ssd130x.h **** 
 345:/home/ubuntu/DaisyExamples/libDaisy/src/dev/oled_ssd130x.h ****         // Display On
 346:/home/ubuntu/DaisyExamples/libDaisy/src/dev/oled_ssd130x.h ****         transport_.SendCommand(0xAF); //--turn on oled panel
 347:/home/ubuntu/DaisyExamples/libDaisy/src/dev/oled_ssd130x.h ****     };
 348:/home/ubuntu/DaisyExamples/libDaisy/src/dev/oled_ssd130x.h **** 
 349:/home/ubuntu/DaisyExamples/libDaisy/src/dev/oled_ssd130x.h ****     size_t Width() const { return width; };
 350:/home/ubuntu/DaisyExamples/libDaisy/src/dev/oled_ssd130x.h ****     size_t Height() const { return height; };
 351:/home/ubuntu/DaisyExamples/libDaisy/src/dev/oled_ssd130x.h **** 
 352:/home/ubuntu/DaisyExamples/libDaisy/src/dev/oled_ssd130x.h ****     void DrawPixel(uint_fast8_t x, uint_fast8_t y, bool on)
 353:/home/ubuntu/DaisyExamples/libDaisy/src/dev/oled_ssd130x.h ****     {
 354:/home/ubuntu/DaisyExamples/libDaisy/src/dev/oled_ssd130x.h ****         if(x >= width || y >= height)
 355:/home/ubuntu/DaisyExamples/libDaisy/src/dev/oled_ssd130x.h ****             return;
 356:/home/ubuntu/DaisyExamples/libDaisy/src/dev/oled_ssd130x.h ****         if(on)
 357:/home/ubuntu/DaisyExamples/libDaisy/src/dev/oled_ssd130x.h ****             buffer_[x + (y / 8) * width] |= (1 << (y % 8));
 358:/home/ubuntu/DaisyExamples/libDaisy/src/dev/oled_ssd130x.h ****         else
 359:/home/ubuntu/DaisyExamples/libDaisy/src/dev/oled_ssd130x.h ****             buffer_[x + (y / 8) * width] &= ~(1 << (y % 8));
 360:/home/ubuntu/DaisyExamples/libDaisy/src/dev/oled_ssd130x.h ****     }
 361:/home/ubuntu/DaisyExamples/libDaisy/src/dev/oled_ssd130x.h **** 
 362:/home/ubuntu/DaisyExamples/libDaisy/src/dev/oled_ssd130x.h ****     void Fill(bool on)
  63              		.loc 3 362 10 view .LVU3
  64              	.LBB663:
 363:/home/ubuntu/DaisyExamples/libDaisy/src/dev/oled_ssd130x.h ****     {
 364:/home/ubuntu/DaisyExamples/libDaisy/src/dev/oled_ssd130x.h ****         for(size_t i = 0; i < sizeof(buffer_); i++)
  65              		.loc 3 364 29 view .LVU4
 365:/home/ubuntu/DaisyExamples/libDaisy/src/dev/oled_ssd130x.h ****         {
 366:/home/ubuntu/DaisyExamples/libDaisy/src/dev/oled_ssd130x.h ****             buffer_[i] = on ? 0xff : 0x00;
  66              		.loc 3 366 24 is_stmt 0 view .LVU5
  67 0000 4942     		rsbs	r1, r1, #0
  68              	.LVL2:
  69              		.loc 3 366 24 view .LVU6
  70 0002 4FF48062 		mov	r2, #1024
  71 0006 1430     		adds	r0, r0, #20
  72              	.LVL3:
  73              		.loc 3 366 24 view .LVU7
  74 0008 C9B2     		uxtb	r1, r1
  75 000a FFF7FEBF 		b	memset
  76              	.LVL4:
  77              		.loc 3 366 24 view .LVU8
  78              	.LBE663:
  79              	.LBE662:
  80              		.cfi_endproc
  81              	.LFE5124:
  83 000e 00BF     		.section	.text._ZN16clevelandmusicco8HothouseD2Ev,"axG",%progbits,_ZN16clevelandmusicco8HothouseD5
  84              		.align	1
  85              		.p2align 2,,3
  86              		.weak	_ZN16clevelandmusicco8HothouseD2Ev
  87              		.syntax unified
  88              		.thumb
  89              		.thumb_func
  90              		.fpu fpv5-d16
  92              	_ZN16clevelandmusicco8HothouseD2Ev:
  93              	.LVL5:
ARM GAS  /tmp/ccBh0qTK.s 			page 10


  94              	.LFB5440:
  95              		.file 4 "hothouse.h"
   1:hothouse.h    **** // Hardware proxy for Hothouse DIY DSP Platform
   2:hothouse.h    **** // Copyright (C) 2024  Cleveland Music Co.  <code@clevelandmusicco.com>
   3:hothouse.h    **** //
   4:hothouse.h    **** // This program is free software: you can redistribute it and/or modify
   5:hothouse.h    **** // it under the terms of the GNU General Public License as published by
   6:hothouse.h    **** // the Free Software Foundation, either version 3 of the License, or
   7:hothouse.h    **** // (at your option) any later version.
   8:hothouse.h    **** //
   9:hothouse.h    **** // This program is distributed in the hope that it will be useful,
  10:hothouse.h    **** // but WITHOUT ANY WARRANTY; without even the implied warranty of
  11:hothouse.h    **** // MERCHANTABILITY or FITNESS FOR A PARTICULAR PURPOSE.  See the
  12:hothouse.h    **** // GNU General Public License for more details.
  13:hothouse.h    **** //
  14:hothouse.h    **** // You should have received a copy of the GNU General Public License
  15:hothouse.h    **** // along with this program.  If not, see <https://www.gnu.org/licenses/>.
  16:hothouse.h    **** 
  17:hothouse.h    **** #include "daisy_seed.h"
  18:hothouse.h    **** #include "optional"
  19:hothouse.h    **** 
  20:hothouse.h    **** using daisy::AdcChannelConfig;
  21:hothouse.h    **** using daisy::AnalogControl;
  22:hothouse.h    **** using daisy::AudioHandle;
  23:hothouse.h    **** using daisy::DaisySeed;
  24:hothouse.h    **** using daisy::Led;
  25:hothouse.h    **** using daisy::Pin;
  26:hothouse.h    **** using daisy::SaiHandle;
  27:hothouse.h    **** using daisy::Switch;
  28:hothouse.h    **** 
  29:hothouse.h    **** namespace clevelandmusicco {
  30:hothouse.h    **** class Hothouse {
  31:hothouse.h    ****  public:
  32:hothouse.h    ****   /** Switches */
  33:hothouse.h    ****   enum Switches {
  34:hothouse.h    ****     SWITCH_1_UP,   /** Up position of toggleswitch 1 */
  35:hothouse.h    ****     SWITCH_1_DOWN, /** Down position of toggleswitch 1 */
  36:hothouse.h    ****     SWITCH_2_UP,   /** Up position of toggleswitch 2 */
  37:hothouse.h    ****     SWITCH_2_DOWN, /** Down position of toggleswitch 2 */
  38:hothouse.h    ****     SWITCH_3_UP,   /** Up position of toggleswitch 3 */
  39:hothouse.h    ****     SWITCH_3_DOWN, /** Down position of toggleswitch 3 */
  40:hothouse.h    ****     FOOTSWITCH_1,  /** Footswitch 1 */
  41:hothouse.h    ****     FOOTSWITCH_2,  /** Footswitch 2 */
  42:hothouse.h    ****     SWITCH_LAST,   /**< Last enum item */
  43:hothouse.h    ****   };
  44:hothouse.h    **** 
  45:hothouse.h    ****   /** Knobs */
  46:hothouse.h    ****   enum Knob {
  47:hothouse.h    ****     KNOB_1,    /**< & */
  48:hothouse.h    ****     KNOB_2,    /**< & */
  49:hothouse.h    ****     KNOB_3,    /**< & */
  50:hothouse.h    ****     KNOB_4,    /**< & */
  51:hothouse.h    ****     KNOB_5,    /**< & */
  52:hothouse.h    ****     KNOB_6,    /**< & */
  53:hothouse.h    ****     KNOB_LAST, /**< & */
  54:hothouse.h    ****   };
  55:hothouse.h    **** 
ARM GAS  /tmp/ccBh0qTK.s 			page 11


  56:hothouse.h    ****   /** footswitch leds */
  57:hothouse.h    ****   enum Led {
  58:hothouse.h    ****     LED_1 = 22, /**< & */
  59:hothouse.h    ****     LED_2 = 23, /**< & */
  60:hothouse.h    ****     LED_LAST,   /**< & */
  61:hothouse.h    ****   };
  62:hothouse.h    **** 
  63:hothouse.h    ****   enum ToggleswitchPosition {
  64:hothouse.h    ****     TOGGLESWITCH_UP,
  65:hothouse.h    ****     TOGGLESWITCH_MIDDLE,
  66:hothouse.h    ****     TOGGLESWITCH_DOWN,
  67:hothouse.h    ****     TOGGLESWITCH_UNKNOWN,
  68:hothouse.h    ****   };
  69:hothouse.h    **** 
  70:hothouse.h    ****   enum Toggleswitch {
  71:hothouse.h    ****     TOGGLESWITCH_1,
  72:hothouse.h    ****     TOGGLESWITCH_2,
  73:hothouse.h    ****     TOGGLESWITCH_3,
  74:hothouse.h    ****   };
  75:hothouse.h    **** 
  76:hothouse.h    ****   struct FootswitchCallbacks {
  77:hothouse.h    ****     /** Called when a single footswitch press is detected. */
  78:hothouse.h    ****     void (*HandleNormalPress)(Switches footswitch);
  79:hothouse.h    **** 
  80:hothouse.h    ****     /** Called when a double footswitch press is detected. */
  81:hothouse.h    ****     void (*HandleDoublePress)(Switches footswitch);
  82:hothouse.h    **** 
  83:hothouse.h    ****     /** Called when a long footswitch press is detected. */
  84:hothouse.h    ****     void (*HandleLongPress)(Switches footswitch);
  85:hothouse.h    ****   };
  86:hothouse.h    **** 
  87:hothouse.h    ****   // Constructor and Destructor
  88:hothouse.h    ****   Hothouse() = default;
  89:hothouse.h    ****   ~Hothouse() = default;
  96              		.loc 4 89 3 is_stmt 1 view -0
  97              		.cfi_startproc
  98              		@ args = 0, pretend = 0, frame = 0
  99              		@ frame_needed = 0, uses_anonymous_args = 0
 100              		@ link register save eliminated.
 101              	.LBB664:
 102              	.LBI664:
 103              		.file 5 "/home/ubuntu/DaisyExamples/libDaisy/src/daisy_seed.h"
   1:/home/ubuntu/DaisyExamples/libDaisy/src/daisy_seed.h **** #pragma once
   2:/home/ubuntu/DaisyExamples/libDaisy/src/daisy_seed.h **** #ifndef DSY_SEED_H
   3:/home/ubuntu/DaisyExamples/libDaisy/src/daisy_seed.h **** #define DSY_SEED_H
   4:/home/ubuntu/DaisyExamples/libDaisy/src/daisy_seed.h **** 
   5:/home/ubuntu/DaisyExamples/libDaisy/src/daisy_seed.h **** #include "daisy.h"
   6:/home/ubuntu/DaisyExamples/libDaisy/src/daisy_seed.h **** 
   7:/home/ubuntu/DaisyExamples/libDaisy/src/daisy_seed.h **** //Uncomment this out if you're still using the rev2 hardware
   8:/home/ubuntu/DaisyExamples/libDaisy/src/daisy_seed.h **** //#define SEED_REV2
   9:/home/ubuntu/DaisyExamples/libDaisy/src/daisy_seed.h **** 
  10:/home/ubuntu/DaisyExamples/libDaisy/src/daisy_seed.h **** namespace daisy
  11:/home/ubuntu/DaisyExamples/libDaisy/src/daisy_seed.h **** {
  12:/home/ubuntu/DaisyExamples/libDaisy/src/daisy_seed.h **** /**
  13:/home/ubuntu/DaisyExamples/libDaisy/src/daisy_seed.h ****    @brief This is the higher-level interface for the Daisy board. \n 
  14:/home/ubuntu/DaisyExamples/libDaisy/src/daisy_seed.h ****     All basic peripheral configuration/initialization is setup here. \n
  15:/home/ubuntu/DaisyExamples/libDaisy/src/daisy_seed.h **** 
ARM GAS  /tmp/ccBh0qTK.s 			page 12


  16:/home/ubuntu/DaisyExamples/libDaisy/src/daisy_seed.h ****    @ingroup boards
  17:/home/ubuntu/DaisyExamples/libDaisy/src/daisy_seed.h **** */
  18:/home/ubuntu/DaisyExamples/libDaisy/src/daisy_seed.h **** class DaisySeed
  19:/home/ubuntu/DaisyExamples/libDaisy/src/daisy_seed.h **** {
  20:/home/ubuntu/DaisyExamples/libDaisy/src/daisy_seed.h ****   public:
  21:/home/ubuntu/DaisyExamples/libDaisy/src/daisy_seed.h ****     DaisySeed() {}
  22:/home/ubuntu/DaisyExamples/libDaisy/src/daisy_seed.h ****     ~DaisySeed() {}
 104              		.loc 5 22 5 view .LVU10
 105              	.LBB665:
 106              	.LBI665:
 107              		.file 6 "/home/ubuntu/DaisyExamples/libDaisy/src/sys/system.h"
   1:/home/ubuntu/DaisyExamples/libDaisy/src/sys/system.h **** #ifndef DSY_SYSTEM_H
   2:/home/ubuntu/DaisyExamples/libDaisy/src/sys/system.h **** #define DSY_SYSTEM_H
   3:/home/ubuntu/DaisyExamples/libDaisy/src/sys/system.h **** 
   4:/home/ubuntu/DaisyExamples/libDaisy/src/sys/system.h **** #ifndef UNIT_TEST // for unit tests, a dummy implementation is provided below
   5:/home/ubuntu/DaisyExamples/libDaisy/src/sys/system.h **** 
   6:/home/ubuntu/DaisyExamples/libDaisy/src/sys/system.h **** #include <cstdint>
   7:/home/ubuntu/DaisyExamples/libDaisy/src/sys/system.h **** #include "per/tim.h"
   8:/home/ubuntu/DaisyExamples/libDaisy/src/sys/system.h **** 
   9:/home/ubuntu/DaisyExamples/libDaisy/src/sys/system.h **** namespace daisy
  10:/home/ubuntu/DaisyExamples/libDaisy/src/sys/system.h **** {
  11:/home/ubuntu/DaisyExamples/libDaisy/src/sys/system.h **** /** A handle for interacting with the Core System.
  12:/home/ubuntu/DaisyExamples/libDaisy/src/sys/system.h ****  ** This includes the Clock tree, MPU, global DMA initialization,
  13:/home/ubuntu/DaisyExamples/libDaisy/src/sys/system.h ****  ** cache handling, and any other necessary global initiailzation
  14:/home/ubuntu/DaisyExamples/libDaisy/src/sys/system.h ****  **
  15:/home/ubuntu/DaisyExamples/libDaisy/src/sys/system.h ****  ** @author shensley
  16:/home/ubuntu/DaisyExamples/libDaisy/src/sys/system.h ****  ** @ingroup system
  17:/home/ubuntu/DaisyExamples/libDaisy/src/sys/system.h ****  */
  18:/home/ubuntu/DaisyExamples/libDaisy/src/sys/system.h **** class System
  19:/home/ubuntu/DaisyExamples/libDaisy/src/sys/system.h **** {
  20:/home/ubuntu/DaisyExamples/libDaisy/src/sys/system.h ****   public:
  21:/home/ubuntu/DaisyExamples/libDaisy/src/sys/system.h ****     /** Contains settings for initializing the System */
  22:/home/ubuntu/DaisyExamples/libDaisy/src/sys/system.h ****     struct Config
  23:/home/ubuntu/DaisyExamples/libDaisy/src/sys/system.h ****     {
  24:/home/ubuntu/DaisyExamples/libDaisy/src/sys/system.h ****         /** Specifies the system clock frequency that feeds APB/AHB clocks, etc. */
  25:/home/ubuntu/DaisyExamples/libDaisy/src/sys/system.h ****         enum class SysClkFreq
  26:/home/ubuntu/DaisyExamples/libDaisy/src/sys/system.h ****         {
  27:/home/ubuntu/DaisyExamples/libDaisy/src/sys/system.h ****             FREQ_400MHZ,
  28:/home/ubuntu/DaisyExamples/libDaisy/src/sys/system.h ****             FREQ_480MHZ,
  29:/home/ubuntu/DaisyExamples/libDaisy/src/sys/system.h ****         };
  30:/home/ubuntu/DaisyExamples/libDaisy/src/sys/system.h **** 
  31:/home/ubuntu/DaisyExamples/libDaisy/src/sys/system.h ****         /** Method to call on the struct to set to defaults
  32:/home/ubuntu/DaisyExamples/libDaisy/src/sys/system.h ****          ** CPU Freq set to 400MHz
  33:/home/ubuntu/DaisyExamples/libDaisy/src/sys/system.h ****          ** Cache Enabled
  34:/home/ubuntu/DaisyExamples/libDaisy/src/sys/system.h ****          ** */
  35:/home/ubuntu/DaisyExamples/libDaisy/src/sys/system.h ****         void Defaults()
  36:/home/ubuntu/DaisyExamples/libDaisy/src/sys/system.h ****         {
  37:/home/ubuntu/DaisyExamples/libDaisy/src/sys/system.h ****             cpu_freq    = SysClkFreq::FREQ_400MHZ;
  38:/home/ubuntu/DaisyExamples/libDaisy/src/sys/system.h ****             use_dcache  = true;
  39:/home/ubuntu/DaisyExamples/libDaisy/src/sys/system.h ****             use_icache  = true;
  40:/home/ubuntu/DaisyExamples/libDaisy/src/sys/system.h ****             skip_clocks = false;
  41:/home/ubuntu/DaisyExamples/libDaisy/src/sys/system.h ****         }
  42:/home/ubuntu/DaisyExamples/libDaisy/src/sys/system.h **** 
  43:/home/ubuntu/DaisyExamples/libDaisy/src/sys/system.h ****         /** Method to call on the struct to set to boost mode:
  44:/home/ubuntu/DaisyExamples/libDaisy/src/sys/system.h ****          ** CPU Freq set to 480MHz
  45:/home/ubuntu/DaisyExamples/libDaisy/src/sys/system.h ****          ** Cache Enabled
  46:/home/ubuntu/DaisyExamples/libDaisy/src/sys/system.h ****          ** */
ARM GAS  /tmp/ccBh0qTK.s 			page 13


  47:/home/ubuntu/DaisyExamples/libDaisy/src/sys/system.h ****         void Boost()
  48:/home/ubuntu/DaisyExamples/libDaisy/src/sys/system.h ****         {
  49:/home/ubuntu/DaisyExamples/libDaisy/src/sys/system.h ****             cpu_freq    = SysClkFreq::FREQ_480MHZ;
  50:/home/ubuntu/DaisyExamples/libDaisy/src/sys/system.h ****             use_dcache  = true;
  51:/home/ubuntu/DaisyExamples/libDaisy/src/sys/system.h ****             use_icache  = true;
  52:/home/ubuntu/DaisyExamples/libDaisy/src/sys/system.h ****             skip_clocks = false;
  53:/home/ubuntu/DaisyExamples/libDaisy/src/sys/system.h ****         }
  54:/home/ubuntu/DaisyExamples/libDaisy/src/sys/system.h **** 
  55:/home/ubuntu/DaisyExamples/libDaisy/src/sys/system.h ****         SysClkFreq cpu_freq;
  56:/home/ubuntu/DaisyExamples/libDaisy/src/sys/system.h ****         bool       use_dcache;
  57:/home/ubuntu/DaisyExamples/libDaisy/src/sys/system.h ****         bool       use_icache;
  58:/home/ubuntu/DaisyExamples/libDaisy/src/sys/system.h ****         bool       skip_clocks;
  59:/home/ubuntu/DaisyExamples/libDaisy/src/sys/system.h ****     };
  60:/home/ubuntu/DaisyExamples/libDaisy/src/sys/system.h **** 
  61:/home/ubuntu/DaisyExamples/libDaisy/src/sys/system.h ****     /** Describes the different regions of memory available to the Daisy */
  62:/home/ubuntu/DaisyExamples/libDaisy/src/sys/system.h ****     enum MemoryRegion
  63:/home/ubuntu/DaisyExamples/libDaisy/src/sys/system.h ****     {
  64:/home/ubuntu/DaisyExamples/libDaisy/src/sys/system.h ****         INTERNAL_FLASH = 0,
  65:/home/ubuntu/DaisyExamples/libDaisy/src/sys/system.h ****         ITCMRAM,
  66:/home/ubuntu/DaisyExamples/libDaisy/src/sys/system.h ****         DTCMRAM,
  67:/home/ubuntu/DaisyExamples/libDaisy/src/sys/system.h ****         SRAM_D1,
  68:/home/ubuntu/DaisyExamples/libDaisy/src/sys/system.h ****         SRAM_D2,
  69:/home/ubuntu/DaisyExamples/libDaisy/src/sys/system.h ****         SRAM_D3,
  70:/home/ubuntu/DaisyExamples/libDaisy/src/sys/system.h ****         SDRAM,
  71:/home/ubuntu/DaisyExamples/libDaisy/src/sys/system.h ****         QSPI,
  72:/home/ubuntu/DaisyExamples/libDaisy/src/sys/system.h ****         INVALID_ADDRESS,
  73:/home/ubuntu/DaisyExamples/libDaisy/src/sys/system.h ****     };
  74:/home/ubuntu/DaisyExamples/libDaisy/src/sys/system.h **** 
  75:/home/ubuntu/DaisyExamples/libDaisy/src/sys/system.h ****     /** Bootloader struct for controlling bootloading parameters */
  76:/home/ubuntu/DaisyExamples/libDaisy/src/sys/system.h ****     struct BootInfo
  77:/home/ubuntu/DaisyExamples/libDaisy/src/sys/system.h ****     {
  78:/home/ubuntu/DaisyExamples/libDaisy/src/sys/system.h ****         enum class Type : uint32_t
  79:/home/ubuntu/DaisyExamples/libDaisy/src/sys/system.h ****         {
  80:/home/ubuntu/DaisyExamples/libDaisy/src/sys/system.h ****             INVALID      = 0x00000000,
  81:/home/ubuntu/DaisyExamples/libDaisy/src/sys/system.h ****             JUMP         = 0xDEADBEEF,
  82:/home/ubuntu/DaisyExamples/libDaisy/src/sys/system.h ****             SKIP_TIMEOUT = 0x5AFEB007,
  83:/home/ubuntu/DaisyExamples/libDaisy/src/sys/system.h ****             INF_TIMEOUT  = 0xB0074EFA,
  84:/home/ubuntu/DaisyExamples/libDaisy/src/sys/system.h ****         } status;
  85:/home/ubuntu/DaisyExamples/libDaisy/src/sys/system.h ****         uint32_t data;
  86:/home/ubuntu/DaisyExamples/libDaisy/src/sys/system.h ****         enum class Version : uint32_t
  87:/home/ubuntu/DaisyExamples/libDaisy/src/sys/system.h ****         {
  88:/home/ubuntu/DaisyExamples/libDaisy/src/sys/system.h ****             LT_v6_0 = 0, // Less than v6.0
  89:/home/ubuntu/DaisyExamples/libDaisy/src/sys/system.h ****             NONE,        // No bootloader present
  90:/home/ubuntu/DaisyExamples/libDaisy/src/sys/system.h ****             v6_0,        // v6.0
  91:/home/ubuntu/DaisyExamples/libDaisy/src/sys/system.h ****             v6_1,        // v6.1 or greater
  92:/home/ubuntu/DaisyExamples/libDaisy/src/sys/system.h ****             LAST
  93:/home/ubuntu/DaisyExamples/libDaisy/src/sys/system.h ****         } version;
  94:/home/ubuntu/DaisyExamples/libDaisy/src/sys/system.h ****     };
  95:/home/ubuntu/DaisyExamples/libDaisy/src/sys/system.h **** 
  96:/home/ubuntu/DaisyExamples/libDaisy/src/sys/system.h ****     System() {}
  97:/home/ubuntu/DaisyExamples/libDaisy/src/sys/system.h ****     ~System() {}
 108              		.loc 6 97 5 view .LVU11
 109              		.loc 6 97 5 is_stmt 0 view .LVU12
 110              	.LBE665:
 111              	.LBB666:
 112              	.LBI666:
 113              		.file 7 "/home/ubuntu/DaisyExamples/libDaisy/src/hid/usb.h"
ARM GAS  /tmp/ccBh0qTK.s 			page 14


   1:/home/ubuntu/DaisyExamples/libDaisy/src/hid/usb.h **** #pragma once
   2:/home/ubuntu/DaisyExamples/libDaisy/src/hid/usb.h **** #ifndef DSY_HID_USB_H
   3:/home/ubuntu/DaisyExamples/libDaisy/src/hid/usb.h **** #define DSY_HID_USB_H
   4:/home/ubuntu/DaisyExamples/libDaisy/src/hid/usb.h **** #include <stdint.h>
   5:/home/ubuntu/DaisyExamples/libDaisy/src/hid/usb.h **** #include <stdlib.h>
   6:/home/ubuntu/DaisyExamples/libDaisy/src/hid/usb.h **** 
   7:/home/ubuntu/DaisyExamples/libDaisy/src/hid/usb.h **** namespace daisy
   8:/home/ubuntu/DaisyExamples/libDaisy/src/hid/usb.h **** /** @addtogroup human_interface
   9:/home/ubuntu/DaisyExamples/libDaisy/src/hid/usb.h ****     @{
  10:/home/ubuntu/DaisyExamples/libDaisy/src/hid/usb.h **** */
  11:/home/ubuntu/DaisyExamples/libDaisy/src/hid/usb.h **** 
  12:/home/ubuntu/DaisyExamples/libDaisy/src/hid/usb.h **** {
  13:/home/ubuntu/DaisyExamples/libDaisy/src/hid/usb.h **** /** 
  14:/home/ubuntu/DaisyExamples/libDaisy/src/hid/usb.h ****     @brief Interface for initializing and using the USB Peripherals on the daisy
  15:/home/ubuntu/DaisyExamples/libDaisy/src/hid/usb.h ****     @author Stephen Hensley
  16:/home/ubuntu/DaisyExamples/libDaisy/src/hid/usb.h ****     @date December 2019
  17:/home/ubuntu/DaisyExamples/libDaisy/src/hid/usb.h **** */
  18:/home/ubuntu/DaisyExamples/libDaisy/src/hid/usb.h **** class UsbHandle
  19:/home/ubuntu/DaisyExamples/libDaisy/src/hid/usb.h **** {
  20:/home/ubuntu/DaisyExamples/libDaisy/src/hid/usb.h ****   public:
  21:/home/ubuntu/DaisyExamples/libDaisy/src/hid/usb.h ****     /** Return values for USBHandle Functions */
  22:/home/ubuntu/DaisyExamples/libDaisy/src/hid/usb.h ****     enum class Result
  23:/home/ubuntu/DaisyExamples/libDaisy/src/hid/usb.h ****     {
  24:/home/ubuntu/DaisyExamples/libDaisy/src/hid/usb.h ****         OK,
  25:/home/ubuntu/DaisyExamples/libDaisy/src/hid/usb.h ****         ERR,
  26:/home/ubuntu/DaisyExamples/libDaisy/src/hid/usb.h ****     };
  27:/home/ubuntu/DaisyExamples/libDaisy/src/hid/usb.h **** 
  28:/home/ubuntu/DaisyExamples/libDaisy/src/hid/usb.h ****     /** Specified which of the two USB Peripherals to initialize. */
  29:/home/ubuntu/DaisyExamples/libDaisy/src/hid/usb.h ****     enum UsbPeriph
  30:/home/ubuntu/DaisyExamples/libDaisy/src/hid/usb.h ****     {
  31:/home/ubuntu/DaisyExamples/libDaisy/src/hid/usb.h ****         FS_INTERNAL, /**< Internal pin */
  32:/home/ubuntu/DaisyExamples/libDaisy/src/hid/usb.h ****         FS_EXTERNAL, /**< FS External D+ pin is Pin 38 (GPIO32). FS External D- pin is Pin 37 (GPIO
  33:/home/ubuntu/DaisyExamples/libDaisy/src/hid/usb.h ****         FS_BOTH,     /**< Both */
  34:/home/ubuntu/DaisyExamples/libDaisy/src/hid/usb.h ****     };
  35:/home/ubuntu/DaisyExamples/libDaisy/src/hid/usb.h **** 
  36:/home/ubuntu/DaisyExamples/libDaisy/src/hid/usb.h **** 
  37:/home/ubuntu/DaisyExamples/libDaisy/src/hid/usb.h ****     /** Function called upon reception of a buffer */
  38:/home/ubuntu/DaisyExamples/libDaisy/src/hid/usb.h ****     typedef void (*ReceiveCallback)(uint8_t* buff, uint32_t* len);
  39:/home/ubuntu/DaisyExamples/libDaisy/src/hid/usb.h **** 
  40:/home/ubuntu/DaisyExamples/libDaisy/src/hid/usb.h ****     UsbHandle() {}
  41:/home/ubuntu/DaisyExamples/libDaisy/src/hid/usb.h **** 
  42:/home/ubuntu/DaisyExamples/libDaisy/src/hid/usb.h ****     ~UsbHandle() {}
 114              		.loc 7 42 5 is_stmt 1 view .LVU13
 115              		.loc 7 42 5 is_stmt 0 view .LVU14
 116              	.LBE666:
 117              	.LBB667:
 118              	.LBI667:
 119              		.file 8 "/home/ubuntu/DaisyExamples/libDaisy/src/per/adc.h"
   1:/home/ubuntu/DaisyExamples/libDaisy/src/per/adc.h **** #pragma once
   2:/home/ubuntu/DaisyExamples/libDaisy/src/per/adc.h **** #ifndef DSY_ADC_H
   3:/home/ubuntu/DaisyExamples/libDaisy/src/per/adc.h **** #define DSY_ADC_H /**< Macro */
   4:/home/ubuntu/DaisyExamples/libDaisy/src/per/adc.h **** #include <stdint.h>
   5:/home/ubuntu/DaisyExamples/libDaisy/src/per/adc.h **** #include <stdlib.h>
   6:/home/ubuntu/DaisyExamples/libDaisy/src/per/adc.h **** #include "daisy_core.h"
   7:/home/ubuntu/DaisyExamples/libDaisy/src/per/adc.h **** #include "per/gpio.h"
   8:/home/ubuntu/DaisyExamples/libDaisy/src/per/adc.h **** 
   9:/home/ubuntu/DaisyExamples/libDaisy/src/per/adc.h **** #define DSY_ADC_MAX_CHANNELS 16 /**< Maximum number of ADC channels */
ARM GAS  /tmp/ccBh0qTK.s 			page 15


  10:/home/ubuntu/DaisyExamples/libDaisy/src/per/adc.h **** 
  11:/home/ubuntu/DaisyExamples/libDaisy/src/per/adc.h **** namespace daisy
  12:/home/ubuntu/DaisyExamples/libDaisy/src/per/adc.h **** {
  13:/home/ubuntu/DaisyExamples/libDaisy/src/per/adc.h **** /** @addtogroup per_analog
  14:/home/ubuntu/DaisyExamples/libDaisy/src/per/adc.h ****     @{
  15:/home/ubuntu/DaisyExamples/libDaisy/src/per/adc.h **** */
  16:/home/ubuntu/DaisyExamples/libDaisy/src/per/adc.h **** 
  17:/home/ubuntu/DaisyExamples/libDaisy/src/per/adc.h **** /* While there may not be many configuration options here,
  18:/home/ubuntu/DaisyExamples/libDaisy/src/per/adc.h **** using a struct like this allows us to add more configuration
  19:/home/ubuntu/DaisyExamples/libDaisy/src/per/adc.h **** later without breaking existing functionality.
  20:/home/ubuntu/DaisyExamples/libDaisy/src/per/adc.h **** */
  21:/home/ubuntu/DaisyExamples/libDaisy/src/per/adc.h **** 
  22:/home/ubuntu/DaisyExamples/libDaisy/src/per/adc.h **** /** @brief   Configuration Structure for an ADC Channel 
  23:/home/ubuntu/DaisyExamples/libDaisy/src/per/adc.h ****  *  @details This can be used to configure a a single input, 
  24:/home/ubuntu/DaisyExamples/libDaisy/src/per/adc.h ****  *           or a multiplexed input, allowing up to 8 inputs on 
  25:/home/ubuntu/DaisyExamples/libDaisy/src/per/adc.h ****  *           one channel.
  26:/home/ubuntu/DaisyExamples/libDaisy/src/per/adc.h ****  *  @note    Sharing data lines to multiple muxes _is_ possible, but
  27:/home/ubuntu/DaisyExamples/libDaisy/src/per/adc.h ****  *           each channel sharing data lines must be set to the maximum
  28:/home/ubuntu/DaisyExamples/libDaisy/src/per/adc.h ****  *           number of channels, even if some multiplexers have fewer
  29:/home/ubuntu/DaisyExamples/libDaisy/src/per/adc.h ****  *           inputs connected.
  30:/home/ubuntu/DaisyExamples/libDaisy/src/per/adc.h **** */
  31:/home/ubuntu/DaisyExamples/libDaisy/src/per/adc.h **** struct AdcChannelConfig
  32:/home/ubuntu/DaisyExamples/libDaisy/src/per/adc.h **** {
  33:/home/ubuntu/DaisyExamples/libDaisy/src/per/adc.h ****     /** Which pin to use for multiplexing */
  34:/home/ubuntu/DaisyExamples/libDaisy/src/per/adc.h ****     enum MuxPin
  35:/home/ubuntu/DaisyExamples/libDaisy/src/per/adc.h ****     {
  36:/home/ubuntu/DaisyExamples/libDaisy/src/per/adc.h ****         MUX_SEL_0,    /**< & */
  37:/home/ubuntu/DaisyExamples/libDaisy/src/per/adc.h ****         MUX_SEL_1,    /**< & */
  38:/home/ubuntu/DaisyExamples/libDaisy/src/per/adc.h ****         MUX_SEL_2,    /**< & */
  39:/home/ubuntu/DaisyExamples/libDaisy/src/per/adc.h ****         MUX_SEL_LAST, /**< & */
  40:/home/ubuntu/DaisyExamples/libDaisy/src/per/adc.h ****     };
  41:/home/ubuntu/DaisyExamples/libDaisy/src/per/adc.h **** 
  42:/home/ubuntu/DaisyExamples/libDaisy/src/per/adc.h ****     /** \brief per channel conversion speed added to fixed time based on bitdepth, etc. */
  43:/home/ubuntu/DaisyExamples/libDaisy/src/per/adc.h ****     enum ConversionSpeed
  44:/home/ubuntu/DaisyExamples/libDaisy/src/per/adc.h ****     {
  45:/home/ubuntu/DaisyExamples/libDaisy/src/per/adc.h ****         SPEED_1CYCLES_5,
  46:/home/ubuntu/DaisyExamples/libDaisy/src/per/adc.h ****         SPEED_2CYCLES_5,
  47:/home/ubuntu/DaisyExamples/libDaisy/src/per/adc.h ****         SPEED_8CYCLES_5,
  48:/home/ubuntu/DaisyExamples/libDaisy/src/per/adc.h ****         SPEED_16CYCLES_5,
  49:/home/ubuntu/DaisyExamples/libDaisy/src/per/adc.h ****         SPEED_32CYCLES_5,
  50:/home/ubuntu/DaisyExamples/libDaisy/src/per/adc.h ****         SPEED_64CYCLES_5,
  51:/home/ubuntu/DaisyExamples/libDaisy/src/per/adc.h ****         SPEED_387CYCLES_5,
  52:/home/ubuntu/DaisyExamples/libDaisy/src/per/adc.h ****         SPEED_810CYCLES_5,
  53:/home/ubuntu/DaisyExamples/libDaisy/src/per/adc.h ****     };
  54:/home/ubuntu/DaisyExamples/libDaisy/src/per/adc.h **** 
  55:/home/ubuntu/DaisyExamples/libDaisy/src/per/adc.h ****     /** Initializes a single ADC pin as an ADC. 
  56:/home/ubuntu/DaisyExamples/libDaisy/src/per/adc.h ****     \param pin Pin to init.
  57:/home/ubuntu/DaisyExamples/libDaisy/src/per/adc.h ****     \param speed conversion speed for this pin defaults to 8.5 cycles
  58:/home/ubuntu/DaisyExamples/libDaisy/src/per/adc.h ****      */
  59:/home/ubuntu/DaisyExamples/libDaisy/src/per/adc.h ****     void InitSingle(dsy_gpio_pin pin, ConversionSpeed speed = SPEED_8CYCLES_5);
  60:/home/ubuntu/DaisyExamples/libDaisy/src/per/adc.h **** 
  61:/home/ubuntu/DaisyExamples/libDaisy/src/per/adc.h ****     /** 
  62:/home/ubuntu/DaisyExamples/libDaisy/src/per/adc.h ****     Initializes a single ADC pin as a Multiplexed ADC.
  63:/home/ubuntu/DaisyExamples/libDaisy/src/per/adc.h ****     Requires a CD405X Multiplexer connected to the pin.
  64:/home/ubuntu/DaisyExamples/libDaisy/src/per/adc.h ****     You only need to supply the mux pins that are required,
  65:/home/ubuntu/DaisyExamples/libDaisy/src/per/adc.h ****     e.g. a 4052 mux would only require mux_0 and mux_1.
  66:/home/ubuntu/DaisyExamples/libDaisy/src/per/adc.h ****     Internal Callbacks handle the pin addressing.
ARM GAS  /tmp/ccBh0qTK.s 			page 16


  67:/home/ubuntu/DaisyExamples/libDaisy/src/per/adc.h ****     \param adc_pin &
  68:/home/ubuntu/DaisyExamples/libDaisy/src/per/adc.h ****     \param mux_channels must be 1-8
  69:/home/ubuntu/DaisyExamples/libDaisy/src/per/adc.h ****     \param mux_0 First mux pin
  70:/home/ubuntu/DaisyExamples/libDaisy/src/per/adc.h ****     \param mux_1 Second mux pin
  71:/home/ubuntu/DaisyExamples/libDaisy/src/per/adc.h ****     \param mux_2 Third mux pin
  72:/home/ubuntu/DaisyExamples/libDaisy/src/per/adc.h ****     \param speed conversion speed for this pin defaults to 8.5 cycles
  73:/home/ubuntu/DaisyExamples/libDaisy/src/per/adc.h ****     */
  74:/home/ubuntu/DaisyExamples/libDaisy/src/per/adc.h ****     void InitMux(dsy_gpio_pin    adc_pin,
  75:/home/ubuntu/DaisyExamples/libDaisy/src/per/adc.h ****                  size_t          mux_channels,
  76:/home/ubuntu/DaisyExamples/libDaisy/src/per/adc.h ****                  dsy_gpio_pin    mux_0,
  77:/home/ubuntu/DaisyExamples/libDaisy/src/per/adc.h ****                  dsy_gpio_pin    mux_1 = {DSY_GPIOX, 0},
  78:/home/ubuntu/DaisyExamples/libDaisy/src/per/adc.h ****                  dsy_gpio_pin    mux_2 = {DSY_GPIOX, 0},
  79:/home/ubuntu/DaisyExamples/libDaisy/src/per/adc.h ****                  ConversionSpeed speed = SPEED_8CYCLES_5);
  80:/home/ubuntu/DaisyExamples/libDaisy/src/per/adc.h **** 
  81:/home/ubuntu/DaisyExamples/libDaisy/src/per/adc.h ****     dsy_gpio        pin_;                   /**< & */
  82:/home/ubuntu/DaisyExamples/libDaisy/src/per/adc.h ****     dsy_gpio        mux_pin_[MUX_SEL_LAST]; /**< & */
  83:/home/ubuntu/DaisyExamples/libDaisy/src/per/adc.h ****     uint8_t         mux_channels_;          /**< & */
  84:/home/ubuntu/DaisyExamples/libDaisy/src/per/adc.h ****     ConversionSpeed speed_;
  85:/home/ubuntu/DaisyExamples/libDaisy/src/per/adc.h **** };
  86:/home/ubuntu/DaisyExamples/libDaisy/src/per/adc.h **** 
  87:/home/ubuntu/DaisyExamples/libDaisy/src/per/adc.h **** /**
  88:/home/ubuntu/DaisyExamples/libDaisy/src/per/adc.h ****    @brief Handler for analog to digital conversion
  89:/home/ubuntu/DaisyExamples/libDaisy/src/per/adc.h **** */
  90:/home/ubuntu/DaisyExamples/libDaisy/src/per/adc.h **** class AdcHandle
  91:/home/ubuntu/DaisyExamples/libDaisy/src/per/adc.h **** {
  92:/home/ubuntu/DaisyExamples/libDaisy/src/per/adc.h ****   public:
  93:/home/ubuntu/DaisyExamples/libDaisy/src/per/adc.h ****     /** Supported oversampling amounts */
  94:/home/ubuntu/DaisyExamples/libDaisy/src/per/adc.h ****     enum OverSampling
  95:/home/ubuntu/DaisyExamples/libDaisy/src/per/adc.h ****     {
  96:/home/ubuntu/DaisyExamples/libDaisy/src/per/adc.h ****         OVS_NONE, /**< & */
  97:/home/ubuntu/DaisyExamples/libDaisy/src/per/adc.h ****         OVS_4,    /**< & */
  98:/home/ubuntu/DaisyExamples/libDaisy/src/per/adc.h ****         OVS_8,    /**< & */
  99:/home/ubuntu/DaisyExamples/libDaisy/src/per/adc.h ****         OVS_16,   /**< & */
 100:/home/ubuntu/DaisyExamples/libDaisy/src/per/adc.h ****         OVS_32,   /**< & */
 101:/home/ubuntu/DaisyExamples/libDaisy/src/per/adc.h ****         OVS_64,   /**< & */
 102:/home/ubuntu/DaisyExamples/libDaisy/src/per/adc.h ****         OVS_128,  /**< & */
 103:/home/ubuntu/DaisyExamples/libDaisy/src/per/adc.h ****         OVS_256,  /**< & */
 104:/home/ubuntu/DaisyExamples/libDaisy/src/per/adc.h ****         OVS_512,  /**< & */
 105:/home/ubuntu/DaisyExamples/libDaisy/src/per/adc.h ****         OVS_1024, /**< & */
 106:/home/ubuntu/DaisyExamples/libDaisy/src/per/adc.h ****         OVS_LAST, /**< & */
 107:/home/ubuntu/DaisyExamples/libDaisy/src/per/adc.h ****     };
 108:/home/ubuntu/DaisyExamples/libDaisy/src/per/adc.h **** 
 109:/home/ubuntu/DaisyExamples/libDaisy/src/per/adc.h ****     AdcHandle() {}
 110:/home/ubuntu/DaisyExamples/libDaisy/src/per/adc.h ****     ~AdcHandle() {}
 120              		.loc 8 110 5 is_stmt 1 view .LVU15
 121              		.loc 8 110 5 is_stmt 0 view .LVU16
 122              	.LBE667:
 123              	.LBB668:
 124              	.LBI668:
 125              		.file 9 "/home/ubuntu/DaisyExamples/libDaisy/src/hid/audio.h"
   1:/home/ubuntu/DaisyExamples/libDaisy/src/hid/audio.h **** #ifndef DSY_AUDIO_H
   2:/home/ubuntu/DaisyExamples/libDaisy/src/hid/audio.h **** #define DSY_AUDIO_H /**< & */
   3:/home/ubuntu/DaisyExamples/libDaisy/src/hid/audio.h **** 
   4:/home/ubuntu/DaisyExamples/libDaisy/src/hid/audio.h **** #include "per/sai.h"
   5:/home/ubuntu/DaisyExamples/libDaisy/src/hid/audio.h **** 
   6:/home/ubuntu/DaisyExamples/libDaisy/src/hid/audio.h **** namespace daisy
   7:/home/ubuntu/DaisyExamples/libDaisy/src/hid/audio.h **** {
ARM GAS  /tmp/ccBh0qTK.s 			page 17


   8:/home/ubuntu/DaisyExamples/libDaisy/src/hid/audio.h **** /** @brief Audio Engine Handle
   9:/home/ubuntu/DaisyExamples/libDaisy/src/hid/audio.h ****  *  @ingroup audio 
  10:/home/ubuntu/DaisyExamples/libDaisy/src/hid/audio.h ****  *  @details This class allows for higher level access to an audio engine.
  11:/home/ubuntu/DaisyExamples/libDaisy/src/hid/audio.h ****  *           If you're using a SOM like the DaisySeed or DaisyPatchSM (or any 
  12:/home/ubuntu/DaisyExamples/libDaisy/src/hid/audio.h ****  *            board that includes one of those objects) then the intialization
  13:/home/ubuntu/DaisyExamples/libDaisy/src/hid/audio.h ****  *            is already taken  care of.
  14:/home/ubuntu/DaisyExamples/libDaisy/src/hid/audio.h ****  *           If you're setting up your own custom hardware, or need to make changes
  15:/home/ubuntu/DaisyExamples/libDaisy/src/hid/audio.h ****  *           you will have to take the following steps:
  16:/home/ubuntu/DaisyExamples/libDaisy/src/hid/audio.h ****  *             1. Create and Initialize an SaiHandle or two depending on your requirements
  17:/home/ubuntu/DaisyExamples/libDaisy/src/hid/audio.h ****  *             2. Initialize the Audio Handle with the desired settings and the Initialized SaiHand
  18:/home/ubuntu/DaisyExamples/libDaisy/src/hid/audio.h ****  *             3. If the connected codec requires special configuration or initialization, do so
  19:/home/ubuntu/DaisyExamples/libDaisy/src/hid/audio.h ****  *             4. Write a callback method using either the AudioCallback or the InterleavingAudioCa
  20:/home/ubuntu/DaisyExamples/libDaisy/src/hid/audio.h ****  *             5. Start the Audio using one of the StartAudio function
  21:/home/ubuntu/DaisyExamples/libDaisy/src/hid/audio.h ****  */
  22:/home/ubuntu/DaisyExamples/libDaisy/src/hid/audio.h **** class AudioHandle
  23:/home/ubuntu/DaisyExamples/libDaisy/src/hid/audio.h **** {
  24:/home/ubuntu/DaisyExamples/libDaisy/src/hid/audio.h ****   public:
  25:/home/ubuntu/DaisyExamples/libDaisy/src/hid/audio.h ****     /** Manually configurable details about the Audio Engine */
  26:/home/ubuntu/DaisyExamples/libDaisy/src/hid/audio.h ****     /** TODO: Figure out how to get samplerate in here. */
  27:/home/ubuntu/DaisyExamples/libDaisy/src/hid/audio.h ****     struct Config
  28:/home/ubuntu/DaisyExamples/libDaisy/src/hid/audio.h ****     {
  29:/home/ubuntu/DaisyExamples/libDaisy/src/hid/audio.h ****         /** number of samples to process per callback */
  30:/home/ubuntu/DaisyExamples/libDaisy/src/hid/audio.h ****         size_t blocksize;
  31:/home/ubuntu/DaisyExamples/libDaisy/src/hid/audio.h **** 
  32:/home/ubuntu/DaisyExamples/libDaisy/src/hid/audio.h ****         /**< Sample rate of audio */
  33:/home/ubuntu/DaisyExamples/libDaisy/src/hid/audio.h ****         SaiHandle::Config::SampleRate samplerate;
  34:/home/ubuntu/DaisyExamples/libDaisy/src/hid/audio.h **** 
  35:/home/ubuntu/DaisyExamples/libDaisy/src/hid/audio.h ****         /** factor for adjustment before and after callback for hardware that may have extra headro
  36:/home/ubuntu/DaisyExamples/libDaisy/src/hid/audio.h ****         float postgain;
  37:/home/ubuntu/DaisyExamples/libDaisy/src/hid/audio.h **** 
  38:/home/ubuntu/DaisyExamples/libDaisy/src/hid/audio.h ****         /** factor for additional one-sided compensation to audio path for hardware that may
  39:/home/ubuntu/DaisyExamples/libDaisy/src/hid/audio.h ****          *  have unequal input/output ranges
  40:/home/ubuntu/DaisyExamples/libDaisy/src/hid/audio.h ****          */
  41:/home/ubuntu/DaisyExamples/libDaisy/src/hid/audio.h ****         float output_compensation;
  42:/home/ubuntu/DaisyExamples/libDaisy/src/hid/audio.h **** 
  43:/home/ubuntu/DaisyExamples/libDaisy/src/hid/audio.h ****         /** Sets default values for config struct */
  44:/home/ubuntu/DaisyExamples/libDaisy/src/hid/audio.h ****         Config()
  45:/home/ubuntu/DaisyExamples/libDaisy/src/hid/audio.h ****         : blocksize(48),
  46:/home/ubuntu/DaisyExamples/libDaisy/src/hid/audio.h ****           samplerate(SaiHandle::Config::SampleRate::SAI_48KHZ),
  47:/home/ubuntu/DaisyExamples/libDaisy/src/hid/audio.h ****           postgain(1.f),
  48:/home/ubuntu/DaisyExamples/libDaisy/src/hid/audio.h ****           output_compensation(1.f)
  49:/home/ubuntu/DaisyExamples/libDaisy/src/hid/audio.h ****         {
  50:/home/ubuntu/DaisyExamples/libDaisy/src/hid/audio.h ****         }
  51:/home/ubuntu/DaisyExamples/libDaisy/src/hid/audio.h ****     };
  52:/home/ubuntu/DaisyExamples/libDaisy/src/hid/audio.h **** 
  53:/home/ubuntu/DaisyExamples/libDaisy/src/hid/audio.h ****     enum class Result
  54:/home/ubuntu/DaisyExamples/libDaisy/src/hid/audio.h ****     {
  55:/home/ubuntu/DaisyExamples/libDaisy/src/hid/audio.h ****         OK,
  56:/home/ubuntu/DaisyExamples/libDaisy/src/hid/audio.h ****         ERR,
  57:/home/ubuntu/DaisyExamples/libDaisy/src/hid/audio.h ****     };
  58:/home/ubuntu/DaisyExamples/libDaisy/src/hid/audio.h **** 
  59:/home/ubuntu/DaisyExamples/libDaisy/src/hid/audio.h ****     /** Non-Interleaving input buffer
  60:/home/ubuntu/DaisyExamples/libDaisy/src/hid/audio.h ****      * Buffer arranged by float[chn][sample] 
  61:/home/ubuntu/DaisyExamples/libDaisy/src/hid/audio.h ****      * const so that the user can't modify the input
  62:/home/ubuntu/DaisyExamples/libDaisy/src/hid/audio.h ****      */
  63:/home/ubuntu/DaisyExamples/libDaisy/src/hid/audio.h ****     typedef const float* const* InputBuffer;
  64:/home/ubuntu/DaisyExamples/libDaisy/src/hid/audio.h **** 
ARM GAS  /tmp/ccBh0qTK.s 			page 18


  65:/home/ubuntu/DaisyExamples/libDaisy/src/hid/audio.h ****     /** Non-Interleaving output buffer
  66:/home/ubuntu/DaisyExamples/libDaisy/src/hid/audio.h ****      * Arranged by float[chn][sample] 
  67:/home/ubuntu/DaisyExamples/libDaisy/src/hid/audio.h ****      */
  68:/home/ubuntu/DaisyExamples/libDaisy/src/hid/audio.h ****     typedef float** OutputBuffer;
  69:/home/ubuntu/DaisyExamples/libDaisy/src/hid/audio.h **** 
  70:/home/ubuntu/DaisyExamples/libDaisy/src/hid/audio.h ****     /** Type for a Non-Interleaving audio callback 
  71:/home/ubuntu/DaisyExamples/libDaisy/src/hid/audio.h ****      * Non-Interleaving audio callbacks in daisy will be of this type
  72:/home/ubuntu/DaisyExamples/libDaisy/src/hid/audio.h ****      */
  73:/home/ubuntu/DaisyExamples/libDaisy/src/hid/audio.h ****     typedef void (*AudioCallback)(InputBuffer  in,
  74:/home/ubuntu/DaisyExamples/libDaisy/src/hid/audio.h ****                                   OutputBuffer out,
  75:/home/ubuntu/DaisyExamples/libDaisy/src/hid/audio.h ****                                   size_t       size);
  76:/home/ubuntu/DaisyExamples/libDaisy/src/hid/audio.h **** 
  77:/home/ubuntu/DaisyExamples/libDaisy/src/hid/audio.h ****     /** Interleaving Input buffer
  78:/home/ubuntu/DaisyExamples/libDaisy/src/hid/audio.h ****      ** audio is prepared as { L0, R0, L1, R1, . . . LN, RN }]
  79:/home/ubuntu/DaisyExamples/libDaisy/src/hid/audio.h ****      ** this is const, as the user shouldn't modify it
  80:/home/ubuntu/DaisyExamples/libDaisy/src/hid/audio.h ****     */
  81:/home/ubuntu/DaisyExamples/libDaisy/src/hid/audio.h ****     typedef const float* InterleavingInputBuffer;
  82:/home/ubuntu/DaisyExamples/libDaisy/src/hid/audio.h **** 
  83:/home/ubuntu/DaisyExamples/libDaisy/src/hid/audio.h ****     /** Interleaving Output buffer 
  84:/home/ubuntu/DaisyExamples/libDaisy/src/hid/audio.h ****      ** audio is prepared as { L0, R0, L1, R1, . . . LN, RN }
  85:/home/ubuntu/DaisyExamples/libDaisy/src/hid/audio.h ****     */
  86:/home/ubuntu/DaisyExamples/libDaisy/src/hid/audio.h ****     typedef float* InterleavingOutputBuffer;
  87:/home/ubuntu/DaisyExamples/libDaisy/src/hid/audio.h **** 
  88:/home/ubuntu/DaisyExamples/libDaisy/src/hid/audio.h ****     /** Interleaving Audio Callback 
  89:/home/ubuntu/DaisyExamples/libDaisy/src/hid/audio.h ****      * Interleaving audio callbacks in daisy must be of this type
  90:/home/ubuntu/DaisyExamples/libDaisy/src/hid/audio.h ****      */
  91:/home/ubuntu/DaisyExamples/libDaisy/src/hid/audio.h ****     typedef void (*InterleavingAudioCallback)(InterleavingInputBuffer  in,
  92:/home/ubuntu/DaisyExamples/libDaisy/src/hid/audio.h ****                                               InterleavingOutputBuffer out,
  93:/home/ubuntu/DaisyExamples/libDaisy/src/hid/audio.h ****                                               size_t                   size);
  94:/home/ubuntu/DaisyExamples/libDaisy/src/hid/audio.h **** 
  95:/home/ubuntu/DaisyExamples/libDaisy/src/hid/audio.h ****     AudioHandle() : pimpl_(nullptr) {}
  96:/home/ubuntu/DaisyExamples/libDaisy/src/hid/audio.h ****     ~AudioHandle() {}
 126              		.loc 9 96 5 is_stmt 1 view .LVU17
 127              		.loc 9 96 5 is_stmt 0 view .LVU18
 128              	.LBE668:
 129              	.LBE664:
 130              		.loc 4 89 3 view .LVU19
 131 0000 7047     		bx	lr
 132              		.cfi_endproc
 133              	.LFE5440:
 135              		.weak	_ZN16clevelandmusicco8HothouseD1Ev
 136              		.thumb_set _ZN16clevelandmusicco8HothouseD1Ev,_ZN16clevelandmusicco8HothouseD2Ev
 137 0002 00BF     		.section	.text._ZN5daisy11OledDisplayINS_13SSD130xDriverILj128ELj64ENS_24SSD130x4WireSpiTransportE
 138              		.align	1
 139              		.p2align 2,,3
 140              		.weak	_ZN5daisy11OledDisplayINS_13SSD130xDriverILj128ELj64ENS_24SSD130x4WireSpiTransportEEEED2Ev
 141              		.syntax unified
 142              		.thumb
 143              		.thumb_func
 144              		.fpu fpv5-d16
 146              	_ZN5daisy11OledDisplayINS_13SSD130xDriverILj128ELj64ENS_24SSD130x4WireSpiTransportEEEED2Ev:
 147              	.LVL6:
 148              	.LFB5443:
  18:/home/ubuntu/DaisyExamples/libDaisy/src/hid/disp/oled_display.h **** 
 149              		.loc 2 18 13 is_stmt 1 view -0
 150              		.cfi_startproc
 151              		@ args = 0, pretend = 0, frame = 0
ARM GAS  /tmp/ccBh0qTK.s 			page 19


 152              		@ frame_needed = 0, uses_anonymous_args = 0
 153              		@ link register save eliminated.
 154              	.LBB669:
 155              	.LBI669:
 156              		.file 10 "/home/ubuntu/DaisyExamples/libDaisy/src/hid/disp/display.h"
   1:/home/ubuntu/DaisyExamples/libDaisy/src/hid/disp/display.h **** #pragma once
   2:/home/ubuntu/DaisyExamples/libDaisy/src/hid/disp/display.h **** #ifndef DSY_DISPLAY_H
   3:/home/ubuntu/DaisyExamples/libDaisy/src/hid/disp/display.h **** #define DSY_DISPLAY_H /**< Macro */
   4:/home/ubuntu/DaisyExamples/libDaisy/src/hid/disp/display.h **** #include <cmath>
   5:/home/ubuntu/DaisyExamples/libDaisy/src/hid/disp/display.h **** #include "util/oled_fonts.h"
   6:/home/ubuntu/DaisyExamples/libDaisy/src/hid/disp/display.h **** #include "daisy_core.h"
   7:/home/ubuntu/DaisyExamples/libDaisy/src/hid/disp/display.h **** #include "graphics_common.h"
   8:/home/ubuntu/DaisyExamples/libDaisy/src/hid/disp/display.h **** 
   9:/home/ubuntu/DaisyExamples/libDaisy/src/hid/disp/display.h **** #ifndef deg2rad
  10:/home/ubuntu/DaisyExamples/libDaisy/src/hid/disp/display.h **** #define deg2rad(deg) ((deg)*3.141592 / 180.0)
  11:/home/ubuntu/DaisyExamples/libDaisy/src/hid/disp/display.h **** #endif
  12:/home/ubuntu/DaisyExamples/libDaisy/src/hid/disp/display.h **** 
  13:/home/ubuntu/DaisyExamples/libDaisy/src/hid/disp/display.h **** namespace daisy
  14:/home/ubuntu/DaisyExamples/libDaisy/src/hid/disp/display.h **** {
  15:/home/ubuntu/DaisyExamples/libDaisy/src/hid/disp/display.h **** /** 
  16:/home/ubuntu/DaisyExamples/libDaisy/src/hid/disp/display.h ****  * This interface is used as a base class for all types of 1bit-per-pixel
  17:/home/ubuntu/DaisyExamples/libDaisy/src/hid/disp/display.h ****  * graphics displays.
  18:/home/ubuntu/DaisyExamples/libDaisy/src/hid/disp/display.h **** */
  19:/home/ubuntu/DaisyExamples/libDaisy/src/hid/disp/display.h **** class OneBitGraphicsDisplay
  20:/home/ubuntu/DaisyExamples/libDaisy/src/hid/disp/display.h **** {
  21:/home/ubuntu/DaisyExamples/libDaisy/src/hid/disp/display.h ****   public:
  22:/home/ubuntu/DaisyExamples/libDaisy/src/hid/disp/display.h ****     OneBitGraphicsDisplay() {}
  23:/home/ubuntu/DaisyExamples/libDaisy/src/hid/disp/display.h ****     virtual ~OneBitGraphicsDisplay() {}
  24:/home/ubuntu/DaisyExamples/libDaisy/src/hid/disp/display.h **** 
  25:/home/ubuntu/DaisyExamples/libDaisy/src/hid/disp/display.h ****     virtual uint16_t Height() const = 0;
  26:/home/ubuntu/DaisyExamples/libDaisy/src/hid/disp/display.h ****     virtual uint16_t Width() const  = 0;
  27:/home/ubuntu/DaisyExamples/libDaisy/src/hid/disp/display.h **** 
  28:/home/ubuntu/DaisyExamples/libDaisy/src/hid/disp/display.h ****     Rectangle GetBounds() const
  29:/home/ubuntu/DaisyExamples/libDaisy/src/hid/disp/display.h ****     {
  30:/home/ubuntu/DaisyExamples/libDaisy/src/hid/disp/display.h ****         return Rectangle(int16_t(Width()), int16_t(Height()));
  31:/home/ubuntu/DaisyExamples/libDaisy/src/hid/disp/display.h ****     }
  32:/home/ubuntu/DaisyExamples/libDaisy/src/hid/disp/display.h **** 
  33:/home/ubuntu/DaisyExamples/libDaisy/src/hid/disp/display.h **** 
  34:/home/ubuntu/DaisyExamples/libDaisy/src/hid/disp/display.h ****     size_t CurrentX() { return currentX_; };
  35:/home/ubuntu/DaisyExamples/libDaisy/src/hid/disp/display.h ****     size_t CurrentY() { return currentY_; };
  36:/home/ubuntu/DaisyExamples/libDaisy/src/hid/disp/display.h **** 
  37:/home/ubuntu/DaisyExamples/libDaisy/src/hid/disp/display.h ****     /** 
  38:/home/ubuntu/DaisyExamples/libDaisy/src/hid/disp/display.h ****     Fills the entire display with either on/off.
  39:/home/ubuntu/DaisyExamples/libDaisy/src/hid/disp/display.h ****     \param on Sets on or off.
  40:/home/ubuntu/DaisyExamples/libDaisy/src/hid/disp/display.h ****     */
  41:/home/ubuntu/DaisyExamples/libDaisy/src/hid/disp/display.h ****     virtual void Fill(bool on) = 0;
  42:/home/ubuntu/DaisyExamples/libDaisy/src/hid/disp/display.h **** 
  43:/home/ubuntu/DaisyExamples/libDaisy/src/hid/disp/display.h ****     /**
  44:/home/ubuntu/DaisyExamples/libDaisy/src/hid/disp/display.h ****     Sets the pixel at the specified coordinate to be on/off.
  45:/home/ubuntu/DaisyExamples/libDaisy/src/hid/disp/display.h ****     \param x   x Coordinate
  46:/home/ubuntu/DaisyExamples/libDaisy/src/hid/disp/display.h ****     \param y   y coordinate
  47:/home/ubuntu/DaisyExamples/libDaisy/src/hid/disp/display.h ****     \param on  on or off
  48:/home/ubuntu/DaisyExamples/libDaisy/src/hid/disp/display.h ****     */
  49:/home/ubuntu/DaisyExamples/libDaisy/src/hid/disp/display.h ****     virtual void DrawPixel(uint_fast8_t x, uint_fast8_t y, bool on) = 0;
  50:/home/ubuntu/DaisyExamples/libDaisy/src/hid/disp/display.h **** 
  51:/home/ubuntu/DaisyExamples/libDaisy/src/hid/disp/display.h ****     /**
  52:/home/ubuntu/DaisyExamples/libDaisy/src/hid/disp/display.h ****     Draws a line from (x1, y1) to (y1, y2)
ARM GAS  /tmp/ccBh0qTK.s 			page 20


  53:/home/ubuntu/DaisyExamples/libDaisy/src/hid/disp/display.h ****     \param x1  x Coordinate of the starting point
  54:/home/ubuntu/DaisyExamples/libDaisy/src/hid/disp/display.h ****     \param y1  y Coordinate of the starting point
  55:/home/ubuntu/DaisyExamples/libDaisy/src/hid/disp/display.h ****     \param x2  x Coordinate of the ending point
  56:/home/ubuntu/DaisyExamples/libDaisy/src/hid/disp/display.h ****     \param y2  y Coordinate of the ending point
  57:/home/ubuntu/DaisyExamples/libDaisy/src/hid/disp/display.h ****     \param on  on or off
  58:/home/ubuntu/DaisyExamples/libDaisy/src/hid/disp/display.h ****     */
  59:/home/ubuntu/DaisyExamples/libDaisy/src/hid/disp/display.h ****     virtual void DrawLine(uint_fast8_t x1,
  60:/home/ubuntu/DaisyExamples/libDaisy/src/hid/disp/display.h ****                           uint_fast8_t y1,
  61:/home/ubuntu/DaisyExamples/libDaisy/src/hid/disp/display.h ****                           uint_fast8_t x2,
  62:/home/ubuntu/DaisyExamples/libDaisy/src/hid/disp/display.h ****                           uint_fast8_t y2,
  63:/home/ubuntu/DaisyExamples/libDaisy/src/hid/disp/display.h ****                           bool         on)
  64:/home/ubuntu/DaisyExamples/libDaisy/src/hid/disp/display.h ****         = 0;
  65:/home/ubuntu/DaisyExamples/libDaisy/src/hid/disp/display.h **** 
  66:/home/ubuntu/DaisyExamples/libDaisy/src/hid/disp/display.h ****     /**
  67:/home/ubuntu/DaisyExamples/libDaisy/src/hid/disp/display.h ****     Draws a rectangle based on two coordinates.
  68:/home/ubuntu/DaisyExamples/libDaisy/src/hid/disp/display.h ****     \param x1 x Coordinate of the first point
  69:/home/ubuntu/DaisyExamples/libDaisy/src/hid/disp/display.h ****     \param y1 y Coordinate of the first point
  70:/home/ubuntu/DaisyExamples/libDaisy/src/hid/disp/display.h ****     \param x2 x Coordinate of the second point
  71:/home/ubuntu/DaisyExamples/libDaisy/src/hid/disp/display.h ****     \param y2 y Coordinate of the second point
  72:/home/ubuntu/DaisyExamples/libDaisy/src/hid/disp/display.h ****     \param on on or off
  73:/home/ubuntu/DaisyExamples/libDaisy/src/hid/disp/display.h ****     \param fill fill the rectangle or draw only the outline
  74:/home/ubuntu/DaisyExamples/libDaisy/src/hid/disp/display.h ****     */
  75:/home/ubuntu/DaisyExamples/libDaisy/src/hid/disp/display.h ****     virtual void DrawRect(uint_fast8_t x1,
  76:/home/ubuntu/DaisyExamples/libDaisy/src/hid/disp/display.h ****                           uint_fast8_t y1,
  77:/home/ubuntu/DaisyExamples/libDaisy/src/hid/disp/display.h ****                           uint_fast8_t x2,
  78:/home/ubuntu/DaisyExamples/libDaisy/src/hid/disp/display.h ****                           uint_fast8_t y2,
  79:/home/ubuntu/DaisyExamples/libDaisy/src/hid/disp/display.h ****                           bool         on,
  80:/home/ubuntu/DaisyExamples/libDaisy/src/hid/disp/display.h ****                           bool         fill = false)
  81:/home/ubuntu/DaisyExamples/libDaisy/src/hid/disp/display.h ****         = 0;
  82:/home/ubuntu/DaisyExamples/libDaisy/src/hid/disp/display.h **** 
  83:/home/ubuntu/DaisyExamples/libDaisy/src/hid/disp/display.h ****     /**
  84:/home/ubuntu/DaisyExamples/libDaisy/src/hid/disp/display.h ****     Draws a rectangle.
  85:/home/ubuntu/DaisyExamples/libDaisy/src/hid/disp/display.h ****     \param rect the rectangle
  86:/home/ubuntu/DaisyExamples/libDaisy/src/hid/disp/display.h ****     \param on   on or off
  87:/home/ubuntu/DaisyExamples/libDaisy/src/hid/disp/display.h ****     \param fill fill the rectangle or draw only the outline
  88:/home/ubuntu/DaisyExamples/libDaisy/src/hid/disp/display.h ****     */
  89:/home/ubuntu/DaisyExamples/libDaisy/src/hid/disp/display.h ****     void DrawRect(const Rectangle& rect, bool on, bool fill = false)
  90:/home/ubuntu/DaisyExamples/libDaisy/src/hid/disp/display.h ****     {
  91:/home/ubuntu/DaisyExamples/libDaisy/src/hid/disp/display.h ****         DrawRect(rect.GetX(),
  92:/home/ubuntu/DaisyExamples/libDaisy/src/hid/disp/display.h ****                  rect.GetY(),
  93:/home/ubuntu/DaisyExamples/libDaisy/src/hid/disp/display.h ****                  rect.GetRight(),
  94:/home/ubuntu/DaisyExamples/libDaisy/src/hid/disp/display.h ****                  rect.GetBottom(),
  95:/home/ubuntu/DaisyExamples/libDaisy/src/hid/disp/display.h ****                  on,
  96:/home/ubuntu/DaisyExamples/libDaisy/src/hid/disp/display.h ****                  fill);
  97:/home/ubuntu/DaisyExamples/libDaisy/src/hid/disp/display.h ****     }
  98:/home/ubuntu/DaisyExamples/libDaisy/src/hid/disp/display.h **** 
  99:/home/ubuntu/DaisyExamples/libDaisy/src/hid/disp/display.h ****     /**
 100:/home/ubuntu/DaisyExamples/libDaisy/src/hid/disp/display.h ****     Draws an arc around the specified coordinate
 101:/home/ubuntu/DaisyExamples/libDaisy/src/hid/disp/display.h ****     \param x           x Coordinate of the center of the arc
 102:/home/ubuntu/DaisyExamples/libDaisy/src/hid/disp/display.h ****     \param y           y Coordinate of the center of the arc
 103:/home/ubuntu/DaisyExamples/libDaisy/src/hid/disp/display.h ****     \param radius      radius of the arc
 104:/home/ubuntu/DaisyExamples/libDaisy/src/hid/disp/display.h ****     \param start_angle angle where to start the arc
 105:/home/ubuntu/DaisyExamples/libDaisy/src/hid/disp/display.h ****     \param sweep       total angle of the arc
 106:/home/ubuntu/DaisyExamples/libDaisy/src/hid/disp/display.h ****     \param on  on or off
 107:/home/ubuntu/DaisyExamples/libDaisy/src/hid/disp/display.h ****     */
 108:/home/ubuntu/DaisyExamples/libDaisy/src/hid/disp/display.h ****     virtual void DrawArc(uint_fast8_t x,
 109:/home/ubuntu/DaisyExamples/libDaisy/src/hid/disp/display.h ****                          uint_fast8_t y,
ARM GAS  /tmp/ccBh0qTK.s 			page 21


 110:/home/ubuntu/DaisyExamples/libDaisy/src/hid/disp/display.h ****                          uint_fast8_t radius,
 111:/home/ubuntu/DaisyExamples/libDaisy/src/hid/disp/display.h ****                          int_fast16_t start_angle,
 112:/home/ubuntu/DaisyExamples/libDaisy/src/hid/disp/display.h ****                          int_fast16_t sweep,
 113:/home/ubuntu/DaisyExamples/libDaisy/src/hid/disp/display.h ****                          bool         on)
 114:/home/ubuntu/DaisyExamples/libDaisy/src/hid/disp/display.h ****         = 0;
 115:/home/ubuntu/DaisyExamples/libDaisy/src/hid/disp/display.h **** 
 116:/home/ubuntu/DaisyExamples/libDaisy/src/hid/disp/display.h ****     /**
 117:/home/ubuntu/DaisyExamples/libDaisy/src/hid/disp/display.h ****     Draws a circle around the specified coordinate
 118:/home/ubuntu/DaisyExamples/libDaisy/src/hid/disp/display.h ****     \param x           x Coordinate of the center of the circle
 119:/home/ubuntu/DaisyExamples/libDaisy/src/hid/disp/display.h ****     \param y           y Coordinate of the center of the circle
 120:/home/ubuntu/DaisyExamples/libDaisy/src/hid/disp/display.h ****     \param radius      radius of the circle
 121:/home/ubuntu/DaisyExamples/libDaisy/src/hid/disp/display.h ****     \param on  on or off
 122:/home/ubuntu/DaisyExamples/libDaisy/src/hid/disp/display.h ****     */
 123:/home/ubuntu/DaisyExamples/libDaisy/src/hid/disp/display.h ****     void
 124:/home/ubuntu/DaisyExamples/libDaisy/src/hid/disp/display.h ****     DrawCircle(uint_fast8_t x, uint_fast8_t y, uint_fast8_t radius, bool on)
 125:/home/ubuntu/DaisyExamples/libDaisy/src/hid/disp/display.h ****     {
 126:/home/ubuntu/DaisyExamples/libDaisy/src/hid/disp/display.h ****         DrawArc(x, y, radius, 0, 360, on);
 127:/home/ubuntu/DaisyExamples/libDaisy/src/hid/disp/display.h ****     };
 128:/home/ubuntu/DaisyExamples/libDaisy/src/hid/disp/display.h **** 
 129:/home/ubuntu/DaisyExamples/libDaisy/src/hid/disp/display.h ****     /** 
 130:/home/ubuntu/DaisyExamples/libDaisy/src/hid/disp/display.h ****     Writes the character with the specific FontDef
 131:/home/ubuntu/DaisyExamples/libDaisy/src/hid/disp/display.h ****     to the display buffer at the current Cursor position.
 132:/home/ubuntu/DaisyExamples/libDaisy/src/hid/disp/display.h ****     \param ch character to be written
 133:/home/ubuntu/DaisyExamples/libDaisy/src/hid/disp/display.h ****     \param font font to be written in
 134:/home/ubuntu/DaisyExamples/libDaisy/src/hid/disp/display.h ****     \param on    on or off
 135:/home/ubuntu/DaisyExamples/libDaisy/src/hid/disp/display.h ****     \return &
 136:/home/ubuntu/DaisyExamples/libDaisy/src/hid/disp/display.h ****     */
 137:/home/ubuntu/DaisyExamples/libDaisy/src/hid/disp/display.h ****     virtual char WriteChar(char ch, FontDef font, bool on) = 0;
 138:/home/ubuntu/DaisyExamples/libDaisy/src/hid/disp/display.h **** 
 139:/home/ubuntu/DaisyExamples/libDaisy/src/hid/disp/display.h ****     /** 
 140:/home/ubuntu/DaisyExamples/libDaisy/src/hid/disp/display.h ****     Similar to WriteChar, except it will handle an entire String.
 141:/home/ubuntu/DaisyExamples/libDaisy/src/hid/disp/display.h ****     Wrapping does not happen automatically, so the width
 142:/home/ubuntu/DaisyExamples/libDaisy/src/hid/disp/display.h ****     of the string must be kept within the dimensions of the screen.
 143:/home/ubuntu/DaisyExamples/libDaisy/src/hid/disp/display.h ****     \param str string to be written
 144:/home/ubuntu/DaisyExamples/libDaisy/src/hid/disp/display.h ****     \param font font to use
 145:/home/ubuntu/DaisyExamples/libDaisy/src/hid/disp/display.h ****     \param on  on or off
 146:/home/ubuntu/DaisyExamples/libDaisy/src/hid/disp/display.h ****     \return &
 147:/home/ubuntu/DaisyExamples/libDaisy/src/hid/disp/display.h ****     */
 148:/home/ubuntu/DaisyExamples/libDaisy/src/hid/disp/display.h ****     virtual char WriteString(const char* str, FontDef font, bool on) = 0;
 149:/home/ubuntu/DaisyExamples/libDaisy/src/hid/disp/display.h **** 
 150:/home/ubuntu/DaisyExamples/libDaisy/src/hid/disp/display.h ****     /** 
 151:/home/ubuntu/DaisyExamples/libDaisy/src/hid/disp/display.h ****     Similar to WriteString but justified within a bounding box.
 152:/home/ubuntu/DaisyExamples/libDaisy/src/hid/disp/display.h ****     \param str          string to be written
 153:/home/ubuntu/DaisyExamples/libDaisy/src/hid/disp/display.h ****     \param font         font to use
 154:/home/ubuntu/DaisyExamples/libDaisy/src/hid/disp/display.h ****     \param boundingBox  the bounding box to draw the text in
 155:/home/ubuntu/DaisyExamples/libDaisy/src/hid/disp/display.h ****     \param alignment    the alignment to use
 156:/home/ubuntu/DaisyExamples/libDaisy/src/hid/disp/display.h ****     \param on           on or off
 157:/home/ubuntu/DaisyExamples/libDaisy/src/hid/disp/display.h ****     \return The rectangle that was drawn to
 158:/home/ubuntu/DaisyExamples/libDaisy/src/hid/disp/display.h ****     */
 159:/home/ubuntu/DaisyExamples/libDaisy/src/hid/disp/display.h ****     virtual Rectangle WriteStringAligned(const char*    str,
 160:/home/ubuntu/DaisyExamples/libDaisy/src/hid/disp/display.h ****                                          const FontDef& font,
 161:/home/ubuntu/DaisyExamples/libDaisy/src/hid/disp/display.h ****                                          Rectangle      boundingBox,
 162:/home/ubuntu/DaisyExamples/libDaisy/src/hid/disp/display.h ****                                          Alignment      alignment,
 163:/home/ubuntu/DaisyExamples/libDaisy/src/hid/disp/display.h ****                                          bool           on)
 164:/home/ubuntu/DaisyExamples/libDaisy/src/hid/disp/display.h ****         = 0;
 165:/home/ubuntu/DaisyExamples/libDaisy/src/hid/disp/display.h **** 
 166:/home/ubuntu/DaisyExamples/libDaisy/src/hid/disp/display.h ****     /** 
ARM GAS  /tmp/ccBh0qTK.s 			page 22


 167:/home/ubuntu/DaisyExamples/libDaisy/src/hid/disp/display.h ****     Moves the 'Cursor' position used for WriteChar, and WriteStr to the specified coordinate.
 168:/home/ubuntu/DaisyExamples/libDaisy/src/hid/disp/display.h ****     \param x x pos
 169:/home/ubuntu/DaisyExamples/libDaisy/src/hid/disp/display.h ****     \param y y pos
 170:/home/ubuntu/DaisyExamples/libDaisy/src/hid/disp/display.h ****     */
 171:/home/ubuntu/DaisyExamples/libDaisy/src/hid/disp/display.h ****     void SetCursor(uint16_t x, uint16_t y)
 172:/home/ubuntu/DaisyExamples/libDaisy/src/hid/disp/display.h ****     {
 173:/home/ubuntu/DaisyExamples/libDaisy/src/hid/disp/display.h ****         currentX_ = (x >= Width()) ? Width() - 1 : x;
 174:/home/ubuntu/DaisyExamples/libDaisy/src/hid/disp/display.h ****         currentY_ = (y >= Height()) ? Height() - 1 : y;
 175:/home/ubuntu/DaisyExamples/libDaisy/src/hid/disp/display.h ****     }
 176:/home/ubuntu/DaisyExamples/libDaisy/src/hid/disp/display.h **** 
 177:/home/ubuntu/DaisyExamples/libDaisy/src/hid/disp/display.h ****     /** 
 178:/home/ubuntu/DaisyExamples/libDaisy/src/hid/disp/display.h ****     Writes the current display buffer to the OLED device using SPI or I2C depending on 
 179:/home/ubuntu/DaisyExamples/libDaisy/src/hid/disp/display.h ****     how the object was initialized.
 180:/home/ubuntu/DaisyExamples/libDaisy/src/hid/disp/display.h ****     */
 181:/home/ubuntu/DaisyExamples/libDaisy/src/hid/disp/display.h ****     virtual void Update() = 0;
 182:/home/ubuntu/DaisyExamples/libDaisy/src/hid/disp/display.h **** 
 183:/home/ubuntu/DaisyExamples/libDaisy/src/hid/disp/display.h ****   protected:
 184:/home/ubuntu/DaisyExamples/libDaisy/src/hid/disp/display.h ****     uint16_t currentX_;
 185:/home/ubuntu/DaisyExamples/libDaisy/src/hid/disp/display.h ****     uint16_t currentY_;
 186:/home/ubuntu/DaisyExamples/libDaisy/src/hid/disp/display.h **** };
 187:/home/ubuntu/DaisyExamples/libDaisy/src/hid/disp/display.h **** 
 188:/home/ubuntu/DaisyExamples/libDaisy/src/hid/disp/display.h **** /** This class is intended as a intermediary class for your actual implementation of the OneBitGrap
 189:/home/ubuntu/DaisyExamples/libDaisy/src/hid/disp/display.h ****  *  interface. It uses the CRTP design pattern where the template argument is the child class. It p
 190:/home/ubuntu/DaisyExamples/libDaisy/src/hid/disp/display.h ****  *  implementations for most of the functions, except DrawPixel(), Update() and Fill(), which you'l
 191:/home/ubuntu/DaisyExamples/libDaisy/src/hid/disp/display.h ****  *  to provide in your child class.
 192:/home/ubuntu/DaisyExamples/libDaisy/src/hid/disp/display.h ****  *  The main goal of this class is to provide common drawing functions without relying on massive a
 193:/home/ubuntu/DaisyExamples/libDaisy/src/hid/disp/display.h ****  *  virtual function calls that would result in a performance loss. To achieve this, any drawing fu
 194:/home/ubuntu/DaisyExamples/libDaisy/src/hid/disp/display.h ****  *  is implemented here and internally calls other drawing functions (e.g. DrawRect() which interna
 195:/home/ubuntu/DaisyExamples/libDaisy/src/hid/disp/display.h ****  *  DrawPixel() and DrawLine()) makes these calls via the qualified name of these functions to expl
 196:/home/ubuntu/DaisyExamples/libDaisy/src/hid/disp/display.h ****  *  suppress the virtual dispatch mechanism like this:
 197:/home/ubuntu/DaisyExamples/libDaisy/src/hid/disp/display.h ****  * 
 198:/home/ubuntu/DaisyExamples/libDaisy/src/hid/disp/display.h ****  *      ChildType::DrawPixel(...); // no virtual function call; direct call into the child class fu
 199:/home/ubuntu/DaisyExamples/libDaisy/src/hid/disp/display.h ****  *  
 200:/home/ubuntu/DaisyExamples/libDaisy/src/hid/disp/display.h ****  *  To create a custom OneBitGraphicsDisplay implementation, you can 
 201:/home/ubuntu/DaisyExamples/libDaisy/src/hid/disp/display.h ****  *  A) inherit from OneBitGraphicsDisplay directly and provide all the drawing functions yourself
 202:/home/ubuntu/DaisyExamples/libDaisy/src/hid/disp/display.h ****  *  B) Inherit from OneBitGraphicsDisplayImpl and only provide DrawPixel(), Fill() and Update()
 203:/home/ubuntu/DaisyExamples/libDaisy/src/hid/disp/display.h ****  *     like this:
 204:/home/ubuntu/DaisyExamples/libDaisy/src/hid/disp/display.h ****  *  
 205:/home/ubuntu/DaisyExamples/libDaisy/src/hid/disp/display.h ****  *      class MyDisplayClass : public OneBitGraphicsDisplayImpl<MyDisplayClass> 
 206:/home/ubuntu/DaisyExamples/libDaisy/src/hid/disp/display.h ****  *      {
 207:/home/ubuntu/DaisyExamples/libDaisy/src/hid/disp/display.h ****  *      public:
 208:/home/ubuntu/DaisyExamples/libDaisy/src/hid/disp/display.h ****  *          void Fill() override { ... };
 209:/home/ubuntu/DaisyExamples/libDaisy/src/hid/disp/display.h ****  *          void DrawPixel(uint_fast8_t x, uint_fast8_t y, bool on) override { ... };
 210:/home/ubuntu/DaisyExamples/libDaisy/src/hid/disp/display.h ****  *          void Update() override { ... }
 211:/home/ubuntu/DaisyExamples/libDaisy/src/hid/disp/display.h ****  *      };
 212:/home/ubuntu/DaisyExamples/libDaisy/src/hid/disp/display.h ****  *  
 213:/home/ubuntu/DaisyExamples/libDaisy/src/hid/disp/display.h ****  */
 214:/home/ubuntu/DaisyExamples/libDaisy/src/hid/disp/display.h **** template <class ChildType>
 215:/home/ubuntu/DaisyExamples/libDaisy/src/hid/disp/display.h **** class OneBitGraphicsDisplayImpl : public OneBitGraphicsDisplay
 216:/home/ubuntu/DaisyExamples/libDaisy/src/hid/disp/display.h **** {
 217:/home/ubuntu/DaisyExamples/libDaisy/src/hid/disp/display.h ****   public:
 218:/home/ubuntu/DaisyExamples/libDaisy/src/hid/disp/display.h ****     OneBitGraphicsDisplayImpl() {}
 219:/home/ubuntu/DaisyExamples/libDaisy/src/hid/disp/display.h ****     virtual ~OneBitGraphicsDisplayImpl() {}
 157              		.loc 10 219 13 view .LVU21
 158              	.LBB670:
 159              	.LBI670:
  23:/home/ubuntu/DaisyExamples/libDaisy/src/hid/disp/display.h **** 
ARM GAS  /tmp/ccBh0qTK.s 			page 23


 160              		.loc 10 23 13 view .LVU22
  23:/home/ubuntu/DaisyExamples/libDaisy/src/hid/disp/display.h **** 
 161              		.loc 10 23 13 is_stmt 0 view .LVU23
 162              	.LBE670:
 163              	.LBE669:
  18:/home/ubuntu/DaisyExamples/libDaisy/src/hid/disp/oled_display.h **** 
 164              		.loc 2 18 29 view .LVU24
 165 0000 7047     		bx	lr
 166              		.cfi_endproc
 167              	.LFE5443:
 169              		.weak	_ZN5daisy11OledDisplayINS_13SSD130xDriverILj128ELj64ENS_24SSD130x4WireSpiTransportEEEED1Ev
 170              		.thumb_set _ZN5daisy11OledDisplayINS_13SSD130xDriverILj128ELj64ENS_24SSD130x4WireSpiTransportEEEED
 171 0002 00BF     		.section	.text._ZNK5daisy11OledDisplayINS_13SSD130xDriverILj128ELj64ENS_24SSD130x4WireSpiTransport
 172              		.align	1
 173              		.p2align 2,,3
 174              		.weak	_ZNK5daisy11OledDisplayINS_13SSD130xDriverILj128ELj64ENS_24SSD130x4WireSpiTransportEEEE6Heig
 175              		.syntax unified
 176              		.thumb
 177              		.thumb_func
 178              		.fpu fpv5-d16
 180              	_ZNK5daisy11OledDisplayINS_13SSD130xDriverILj128ELj64ENS_24SSD130x4WireSpiTransportEEEE6HeightEv:
 181              	.LVL7:
 182              	.LFB5446:
  27:/home/ubuntu/DaisyExamples/libDaisy/src/hid/disp/oled_display.h ****     uint16_t Width() const override { return driver_.Width(); }
 183              		.loc 2 27 14 is_stmt 1 view -0
 184              		.cfi_startproc
 185              		@ args = 0, pretend = 0, frame = 0
 186              		@ frame_needed = 0, uses_anonymous_args = 0
 187              		@ link register save eliminated.
  27:/home/ubuntu/DaisyExamples/libDaisy/src/hid/disp/oled_display.h ****     uint16_t Width() const override { return driver_.Width(); }
 188              		.loc 2 27 65 is_stmt 0 view .LVU26
 189 0000 4020     		movs	r0, #64
 190              	.LVL8:
  27:/home/ubuntu/DaisyExamples/libDaisy/src/hid/disp/oled_display.h ****     uint16_t Width() const override { return driver_.Width(); }
 191              		.loc 2 27 65 view .LVU27
 192 0002 7047     		bx	lr
 193              		.cfi_endproc
 194              	.LFE5446:
 196              		.section	.text._ZNK5daisy11OledDisplayINS_13SSD130xDriverILj128ELj64ENS_24SSD130x4WireSpiTransport
 197              		.align	1
 198              		.p2align 2,,3
 199              		.weak	_ZNK5daisy11OledDisplayINS_13SSD130xDriverILj128ELj64ENS_24SSD130x4WireSpiTransportEEEE5Widt
 200              		.syntax unified
 201              		.thumb
 202              		.thumb_func
 203              		.fpu fpv5-d16
 205              	_ZNK5daisy11OledDisplayINS_13SSD130xDriverILj128ELj64ENS_24SSD130x4WireSpiTransportEEEE5WidthEv:
 206              	.LVL9:
 207              	.LFB5447:
  28:/home/ubuntu/DaisyExamples/libDaisy/src/hid/disp/oled_display.h **** 
 208              		.loc 2 28 14 is_stmt 1 view -0
 209              		.cfi_startproc
 210              		@ args = 0, pretend = 0, frame = 0
 211              		@ frame_needed = 0, uses_anonymous_args = 0
 212              		@ link register save eliminated.
  28:/home/ubuntu/DaisyExamples/libDaisy/src/hid/disp/oled_display.h **** 
 213              		.loc 2 28 63 is_stmt 0 view .LVU29
ARM GAS  /tmp/ccBh0qTK.s 			page 24


 214 0000 8020     		movs	r0, #128
 215              	.LVL10:
  28:/home/ubuntu/DaisyExamples/libDaisy/src/hid/disp/oled_display.h **** 
 216              		.loc 2 28 63 view .LVU30
 217 0002 7047     		bx	lr
 218              		.cfi_endproc
 219              	.LFE5447:
 221              		.section	.text._ZN17ConvolutionReverbD2Ev,"axG",%progbits,_ZN17ConvolutionReverbD5Ev,comdat
 222              		.align	1
 223              		.p2align 2,,3
 224              		.weak	_ZN17ConvolutionReverbD2Ev
 225              		.syntax unified
 226              		.thumb
 227              		.thumb_func
 228              		.fpu fpv5-d16
 230              	_ZN17ConvolutionReverbD2Ev:
 231              	.LVL11:
 232              	.LFB4794:
 233              		.file 11 "EchoBridgeWithUSB.cpp"
   1:EchoBridgeWithUSB.cpp **** #include "daisysp.h"
   2:EchoBridgeWithUSB.cpp **** #include "hothouse.h"
   3:EchoBridgeWithUSB.cpp **** #include "IRLoader.h"
   4:EchoBridgeWithUSB.cpp **** #include "DisplayManager.h"
   5:EchoBridgeWithUSB.cpp **** #include "shy_fft.h"  // Include the ShyFFT library
   6:EchoBridgeWithUSB.cpp **** #include <string.h>
   7:EchoBridgeWithUSB.cpp **** 
   8:EchoBridgeWithUSB.cpp **** using clevelandmusicco::Hothouse;
   9:EchoBridgeWithUSB.cpp **** using daisy::AudioHandle;
  10:EchoBridgeWithUSB.cpp **** using daisy::Led;
  11:EchoBridgeWithUSB.cpp **** using daisy::SaiHandle;
  12:EchoBridgeWithUSB.cpp **** using daisy::System;
  13:EchoBridgeWithUSB.cpp **** 
  14:EchoBridgeWithUSB.cpp **** // Hothouse hardware
  15:EchoBridgeWithUSB.cpp **** Hothouse hw;
  16:EchoBridgeWithUSB.cpp **** 
  17:EchoBridgeWithUSB.cpp **** // USB/IR loading
  18:EchoBridgeWithUSB.cpp **** IRLoader irLoader;
  19:EchoBridgeWithUSB.cpp **** 
  20:EchoBridgeWithUSB.cpp **** // OLED display
  21:EchoBridgeWithUSB.cpp **** using MyOledDisplay = daisy::OledDisplay<daisy::SSD130x4WireSpi128x64Driver>;
  22:EchoBridgeWithUSB.cpp **** MyOledDisplay display;
  23:EchoBridgeWithUSB.cpp **** 
  24:EchoBridgeWithUSB.cpp **** // Display manager
  25:EchoBridgeWithUSB.cpp **** DisplayManager displayMgr(display);
  26:EchoBridgeWithUSB.cpp **** 
  27:EchoBridgeWithUSB.cpp **** // LEDs
  28:EchoBridgeWithUSB.cpp **** Led led_bypass;
  29:EchoBridgeWithUSB.cpp **** Led led_freeze;
  30:EchoBridgeWithUSB.cpp **** Led led_usb;     // LED to indicate USB status
  31:EchoBridgeWithUSB.cpp **** Led led_stereo;  // LED to indicate stereo mode
  32:EchoBridgeWithUSB.cpp **** 
  33:EchoBridgeWithUSB.cpp **** // State variables
  34:EchoBridgeWithUSB.cpp **** bool bypass = true;
  35:EchoBridgeWithUSB.cpp **** bool freeze = false;
  36:EchoBridgeWithUSB.cpp **** bool usbMounted = false;
  37:EchoBridgeWithUSB.cpp **** bool irLoaded = false;
  38:EchoBridgeWithUSB.cpp **** bool isStereoInput = false; // Flag for stereo detection
ARM GAS  /tmp/ccBh0qTK.s 			page 25


  39:EchoBridgeWithUSB.cpp **** 
  40:EchoBridgeWithUSB.cpp **** // Define max IR length as a global constant so it can be accessed from anywhere
  41:EchoBridgeWithUSB.cpp **** static const size_t MAX_IR_LENGTH = 4096;
  42:EchoBridgeWithUSB.cpp **** 
  43:EchoBridgeWithUSB.cpp **** // Convolution implementation (now with stereo support and using ShyFFT)
  44:EchoBridgeWithUSB.cpp **** class ConvolutionReverb {
  45:EchoBridgeWithUSB.cpp **** private:
  46:EchoBridgeWithUSB.cpp ****     // FFT size - reduced to save memory
  47:EchoBridgeWithUSB.cpp ****     static const size_t FFT_SIZE = 512;
  48:EchoBridgeWithUSB.cpp ****     static const size_t FFT_SIZE_X2 = FFT_SIZE * 2;
  49:EchoBridgeWithUSB.cpp ****     
  50:EchoBridgeWithUSB.cpp ****     // IR parameters - reduced max length to save memory
  51:EchoBridgeWithUSB.cpp ****     float* irBuffer;        // Left/mono IR
  52:EchoBridgeWithUSB.cpp ****     float* irBufferRight;   // Right IR for true stereo
  53:EchoBridgeWithUSB.cpp ****     size_t irLength;
  54:EchoBridgeWithUSB.cpp ****     
  55:EchoBridgeWithUSB.cpp ****     // FFT buffers
  56:EchoBridgeWithUSB.cpp ****     ShyFFT<float, FFT_SIZE> fft;  // Properly instantiate the template with float type and FFT_SIZE
  57:EchoBridgeWithUSB.cpp ****     float fftTimeIn[FFT_SIZE];
  58:EchoBridgeWithUSB.cpp ****     float fftTimeOut[FFT_SIZE];
  59:EchoBridgeWithUSB.cpp ****     float fftFreqReal[FFT_SIZE];
  60:EchoBridgeWithUSB.cpp ****     float fftFreqImag[FFT_SIZE];
  61:EchoBridgeWithUSB.cpp ****     float fftFreqRealRight[FFT_SIZE];
  62:EchoBridgeWithUSB.cpp ****     float fftFreqImagRight[FFT_SIZE];
  63:EchoBridgeWithUSB.cpp ****     
  64:EchoBridgeWithUSB.cpp ****     // IR frequency domain
  65:EchoBridgeWithUSB.cpp ****     float irFreqReal[FFT_SIZE];
  66:EchoBridgeWithUSB.cpp ****     float irFreqImag[FFT_SIZE];
  67:EchoBridgeWithUSB.cpp ****     float irFreqRealRight[FFT_SIZE];
  68:EchoBridgeWithUSB.cpp ****     float irFreqImagRight[FFT_SIZE];
  69:EchoBridgeWithUSB.cpp ****     
  70:EchoBridgeWithUSB.cpp ****     // Input/output buffers
  71:EchoBridgeWithUSB.cpp ****     float inputBuffer[FFT_SIZE];
  72:EchoBridgeWithUSB.cpp ****     float inputBufferRight[FFT_SIZE];
  73:EchoBridgeWithUSB.cpp ****     float outputBuffer[FFT_SIZE_X2];
  74:EchoBridgeWithUSB.cpp ****     float outputBufferRight[FFT_SIZE_X2];
  75:EchoBridgeWithUSB.cpp ****     size_t inputBufferPos;
  76:EchoBridgeWithUSB.cpp ****     size_t outputBufferPos;
  77:EchoBridgeWithUSB.cpp ****     
  78:EchoBridgeWithUSB.cpp ****     // Predelay buffer - reduced size to save memory
  79:EchoBridgeWithUSB.cpp ****     static const size_t MAX_PREDELAY_SAMPLES = 24000; // 0.5s at 48kHz
  80:EchoBridgeWithUSB.cpp ****     float predelayBuffer[MAX_PREDELAY_SAMPLES];
  81:EchoBridgeWithUSB.cpp ****     float predelayBufferRight[MAX_PREDELAY_SAMPLES];
  82:EchoBridgeWithUSB.cpp ****     size_t predelayBufferPos;
  83:EchoBridgeWithUSB.cpp ****     size_t predelayInSamples;
  84:EchoBridgeWithUSB.cpp ****     
  85:EchoBridgeWithUSB.cpp ****     // Parameters
  86:EchoBridgeWithUSB.cpp ****     float dryWet;           // Dry/wet mix (0.0 - 1.0)
  87:EchoBridgeWithUSB.cpp ****     float predelayMs;       // Predelay in milliseconds
  88:EchoBridgeWithUSB.cpp ****     float irLengthFactor;   // IR length factor (0.0 - 1.0)
  89:EchoBridgeWithUSB.cpp ****     float lowCutFreq;       // Low cut frequency
  90:EchoBridgeWithUSB.cpp ****     float highCutFreq;      // High cut frequency
  91:EchoBridgeWithUSB.cpp ****     float stereoWidth;      // Stereo width (0.0 - 2.0)
  92:EchoBridgeWithUSB.cpp ****     float sampleRate;       // Sample rate
  93:EchoBridgeWithUSB.cpp ****     bool trueStereoIR;      // True if using separate L/R IRs
  94:EchoBridgeWithUSB.cpp ****     
  95:EchoBridgeWithUSB.cpp ****     // Filters
ARM GAS  /tmp/ccBh0qTK.s 			page 26


  96:EchoBridgeWithUSB.cpp ****     daisysp::Svf lowCutFilterL;
  97:EchoBridgeWithUSB.cpp ****     daisysp::Svf highCutFilterL;
  98:EchoBridgeWithUSB.cpp ****     daisysp::Svf lowCutFilterR;
  99:EchoBridgeWithUSB.cpp ****     daisysp::Svf highCutFilterR;
 100:EchoBridgeWithUSB.cpp ****     
 101:EchoBridgeWithUSB.cpp ****     // Helper function to update IR in frequency domain
 102:EchoBridgeWithUSB.cpp ****     bool UpdateIRFrequencyDomain() {
 103:EchoBridgeWithUSB.cpp ****         // Use stack-allocated buffers instead of heap to avoid fragmentation
 104:EchoBridgeWithUSB.cpp ****         float paddedIR[FFT_SIZE];
 105:EchoBridgeWithUSB.cpp ****         float paddedIRRight[FFT_SIZE];
 106:EchoBridgeWithUSB.cpp ****         
 107:EchoBridgeWithUSB.cpp ****         // Clear the buffers
 108:EchoBridgeWithUSB.cpp ****         memset(paddedIR, 0, FFT_SIZE * sizeof(float));
 109:EchoBridgeWithUSB.cpp ****         memset(paddedIRRight, 0, FFT_SIZE * sizeof(float));
 110:EchoBridgeWithUSB.cpp ****         
 111:EchoBridgeWithUSB.cpp ****         // Apply IR length factor
 112:EchoBridgeWithUSB.cpp ****         size_t effectiveIrLength = (size_t)(irLength * irLengthFactor);
 113:EchoBridgeWithUSB.cpp ****         if (effectiveIrLength > irLength) effectiveIrLength = irLength;
 114:EchoBridgeWithUSB.cpp ****         if (effectiveIrLength > FFT_SIZE) effectiveIrLength = FFT_SIZE;
 115:EchoBridgeWithUSB.cpp ****         
 116:EchoBridgeWithUSB.cpp ****         // Copy the IR data
 117:EchoBridgeWithUSB.cpp ****         memcpy(paddedIR, irBuffer, effectiveIrLength * sizeof(float));
 118:EchoBridgeWithUSB.cpp ****         if (trueStereoIR) {
 119:EchoBridgeWithUSB.cpp ****             memcpy(paddedIRRight, irBufferRight, effectiveIrLength * sizeof(float));
 120:EchoBridgeWithUSB.cpp ****         } else {
 121:EchoBridgeWithUSB.cpp ****             memcpy(paddedIRRight, irBuffer, effectiveIrLength * sizeof(float));
 122:EchoBridgeWithUSB.cpp ****         }
 123:EchoBridgeWithUSB.cpp ****         
 124:EchoBridgeWithUSB.cpp ****         // Transform IR to frequency domain
 125:EchoBridgeWithUSB.cpp ****         fft.Direct(paddedIR, fftTimeOut);
 126:EchoBridgeWithUSB.cpp ****         for (size_t i = 0; i < FFT_SIZE; i++) {
 127:EchoBridgeWithUSB.cpp ****             irFreqReal[i] = fftTimeOut[i];
 128:EchoBridgeWithUSB.cpp ****             irFreqImag[i] = 0.0f;
 129:EchoBridgeWithUSB.cpp ****         }
 130:EchoBridgeWithUSB.cpp ****         
 131:EchoBridgeWithUSB.cpp ****         fft.Direct(paddedIRRight, fftTimeOut);
 132:EchoBridgeWithUSB.cpp ****         for (size_t i = 0; i < FFT_SIZE; i++) {
 133:EchoBridgeWithUSB.cpp ****             irFreqRealRight[i] = fftTimeOut[i];
 134:EchoBridgeWithUSB.cpp ****             irFreqImagRight[i] = 0.0f;
 135:EchoBridgeWithUSB.cpp ****         }
 136:EchoBridgeWithUSB.cpp ****         
 137:EchoBridgeWithUSB.cpp ****         return true;
 138:EchoBridgeWithUSB.cpp ****     }
 139:EchoBridgeWithUSB.cpp ****     
 140:EchoBridgeWithUSB.cpp **** public:
 141:EchoBridgeWithUSB.cpp ****     ConvolutionReverb() : 
 142:EchoBridgeWithUSB.cpp ****         irBuffer(nullptr),
 143:EchoBridgeWithUSB.cpp ****         irBufferRight(nullptr),
 144:EchoBridgeWithUSB.cpp ****         irLength(0),
 145:EchoBridgeWithUSB.cpp ****         inputBufferPos(0),
 146:EchoBridgeWithUSB.cpp ****         outputBufferPos(0),
 147:EchoBridgeWithUSB.cpp ****         predelayBufferPos(0),
 148:EchoBridgeWithUSB.cpp ****         predelayInSamples(0),
 149:EchoBridgeWithUSB.cpp ****         dryWet(0.5f),
 150:EchoBridgeWithUSB.cpp ****         predelayMs(0.0f),
 151:EchoBridgeWithUSB.cpp ****         irLengthFactor(1.0f),
 152:EchoBridgeWithUSB.cpp ****         lowCutFreq(100.0f),
ARM GAS  /tmp/ccBh0qTK.s 			page 27


 153:EchoBridgeWithUSB.cpp ****         highCutFreq(10000.0f),
 154:EchoBridgeWithUSB.cpp ****         stereoWidth(1.0f),
 155:EchoBridgeWithUSB.cpp ****         sampleRate(48000.0f),
 156:EchoBridgeWithUSB.cpp ****         trueStereoIR(false)
 157:EchoBridgeWithUSB.cpp ****     {
 158:EchoBridgeWithUSB.cpp ****         // Initialize FFT
 159:EchoBridgeWithUSB.cpp ****         fft.Init();
 160:EchoBridgeWithUSB.cpp ****         
 161:EchoBridgeWithUSB.cpp ****         // Clear buffers
 162:EchoBridgeWithUSB.cpp ****         memset(inputBuffer, 0, sizeof(inputBuffer));
 163:EchoBridgeWithUSB.cpp ****         memset(inputBufferRight, 0, sizeof(inputBufferRight));
 164:EchoBridgeWithUSB.cpp ****         memset(outputBuffer, 0, sizeof(outputBuffer));
 165:EchoBridgeWithUSB.cpp ****         memset(outputBufferRight, 0, sizeof(outputBufferRight));
 166:EchoBridgeWithUSB.cpp ****         memset(predelayBuffer, 0, sizeof(predelayBuffer));
 167:EchoBridgeWithUSB.cpp ****         memset(predelayBufferRight, 0, sizeof(predelayBufferRight));
 168:EchoBridgeWithUSB.cpp ****         
 169:EchoBridgeWithUSB.cpp ****         // Initialize filters
 170:EchoBridgeWithUSB.cpp ****         lowCutFilterL.Init(sampleRate);
 171:EchoBridgeWithUSB.cpp ****         highCutFilterL.Init(sampleRate);
 172:EchoBridgeWithUSB.cpp ****         lowCutFilterR.Init(sampleRate);
 173:EchoBridgeWithUSB.cpp ****         highCutFilterR.Init(sampleRate);
 174:EchoBridgeWithUSB.cpp ****         
 175:EchoBridgeWithUSB.cpp ****         // Set filter parameters
 176:EchoBridgeWithUSB.cpp ****         UpdateFilters();
 177:EchoBridgeWithUSB.cpp ****     }
 178:EchoBridgeWithUSB.cpp ****     
 179:EchoBridgeWithUSB.cpp ****     ~ConvolutionReverb() {
 234              		.loc 11 179 5 is_stmt 1 view -0
 235              		.cfi_startproc
 236              		@ args = 0, pretend = 0, frame = 0
 237              		@ frame_needed = 0, uses_anonymous_args = 0
 238              	.LBB671:
 180:EchoBridgeWithUSB.cpp ****         // Free IR buffers
 181:EchoBridgeWithUSB.cpp ****         if (irBuffer) {
 239              		.loc 11 181 9 view .LVU32
 240              	.LBE671:
 179:EchoBridgeWithUSB.cpp ****         // Free IR buffers
 241              		.loc 11 179 5 is_stmt 0 view .LVU33
 242 0000 10B5     		push	{r4, lr}
 243              		.cfi_def_cfa_offset 8
 244              		.cfi_offset 4, -8
 245              		.cfi_offset 14, -4
 179:EchoBridgeWithUSB.cpp ****         // Free IR buffers
 246              		.loc 11 179 5 view .LVU34
 247 0002 0446     		mov	r4, r0
 248              	.LBB678:
 249              		.loc 11 181 13 view .LVU35
 250 0004 0068     		ldr	r0, [r0]
 251              	.LVL12:
 252              		.loc 11 181 9 view .LVU36
 253 0006 18B1     		cbz	r0, .L9
 182:EchoBridgeWithUSB.cpp ****             delete[] irBuffer;
 254              		.loc 11 182 13 is_stmt 1 discriminator 1 view .LVU37
 255              		.loc 11 182 22 is_stmt 0 discriminator 1 view .LVU38
 256 0008 FFF7FEFF 		bl	_ZdaPv
 257              	.LVL13:
 183:EchoBridgeWithUSB.cpp ****             irBuffer = nullptr;
ARM GAS  /tmp/ccBh0qTK.s 			page 28


 258              		.loc 11 183 13 is_stmt 1 discriminator 1 view .LVU39
 259              		.loc 11 183 22 is_stmt 0 discriminator 1 view .LVU40
 260 000c 0023     		movs	r3, #0
 261 000e 2360     		str	r3, [r4]
 262              	.L9:
 184:EchoBridgeWithUSB.cpp ****         }
 185:EchoBridgeWithUSB.cpp ****         
 186:EchoBridgeWithUSB.cpp ****         if (irBufferRight) {
 263              		.loc 11 186 9 is_stmt 1 view .LVU41
 264              		.loc 11 186 13 is_stmt 0 view .LVU42
 265 0010 6068     		ldr	r0, [r4, #4]
 266              		.loc 11 186 9 view .LVU43
 267 0012 08B1     		cbz	r0, .L10
 187:EchoBridgeWithUSB.cpp ****             delete[] irBufferRight;
 268              		.loc 11 187 13 is_stmt 1 discriminator 1 view .LVU44
 269              		.loc 11 187 22 is_stmt 0 discriminator 1 view .LVU45
 270 0014 FFF7FEFF 		bl	_ZdaPv
 271              	.LVL14:
 188:EchoBridgeWithUSB.cpp ****             irBufferRight = nullptr;
 272              		.loc 11 188 13 is_stmt 1 discriminator 1 view .LVU46
 273              	.L10:
 274              	.LBB672:
 275              	.LBI672:
 276              		.file 12 "/home/ubuntu/DaisyExamples/DaisySP/Source/Filters/svf.h"
   1:/home/ubuntu/DaisyExamples/DaisySP/Source/Filters/svf.h **** /*
   2:/home/ubuntu/DaisyExamples/DaisySP/Source/Filters/svf.h **** Copyright (c) 2020 Electrosmith, Corp
   3:/home/ubuntu/DaisyExamples/DaisySP/Source/Filters/svf.h **** 
   4:/home/ubuntu/DaisyExamples/DaisySP/Source/Filters/svf.h **** Use of this source code is governed by an MIT-style
   5:/home/ubuntu/DaisyExamples/DaisySP/Source/Filters/svf.h **** license that can be found in the LICENSE file or at
   6:/home/ubuntu/DaisyExamples/DaisySP/Source/Filters/svf.h **** https://opensource.org/licenses/MIT.
   7:/home/ubuntu/DaisyExamples/DaisySP/Source/Filters/svf.h **** */
   8:/home/ubuntu/DaisyExamples/DaisySP/Source/Filters/svf.h **** 
   9:/home/ubuntu/DaisyExamples/DaisySP/Source/Filters/svf.h **** #pragma once
  10:/home/ubuntu/DaisyExamples/DaisySP/Source/Filters/svf.h **** #ifndef DSY_SVF_H
  11:/home/ubuntu/DaisyExamples/DaisySP/Source/Filters/svf.h **** #define DSY_SVF_H
  12:/home/ubuntu/DaisyExamples/DaisySP/Source/Filters/svf.h **** 
  13:/home/ubuntu/DaisyExamples/DaisySP/Source/Filters/svf.h **** namespace daisysp
  14:/home/ubuntu/DaisyExamples/DaisySP/Source/Filters/svf.h **** {
  15:/home/ubuntu/DaisyExamples/DaisySP/Source/Filters/svf.h **** /**      Double Sampled, Stable State Variable Filter
  16:/home/ubuntu/DaisyExamples/DaisySP/Source/Filters/svf.h **** 
  17:/home/ubuntu/DaisyExamples/DaisySP/Source/Filters/svf.h **** Credit to Andrew Simper from musicdsp.org
  18:/home/ubuntu/DaisyExamples/DaisySP/Source/Filters/svf.h **** 
  19:/home/ubuntu/DaisyExamples/DaisySP/Source/Filters/svf.h **** This is his "State Variable Filter (Double Sampled, Stable)"
  20:/home/ubuntu/DaisyExamples/DaisySP/Source/Filters/svf.h **** 
  21:/home/ubuntu/DaisyExamples/DaisySP/Source/Filters/svf.h **** Additional thanks to Laurent de Soras for stability limit, and 
  22:/home/ubuntu/DaisyExamples/DaisySP/Source/Filters/svf.h **** Stefan Diedrichsen for the correct notch output
  23:/home/ubuntu/DaisyExamples/DaisySP/Source/Filters/svf.h **** 
  24:/home/ubuntu/DaisyExamples/DaisySP/Source/Filters/svf.h **** Ported by: Stephen Hensley
  25:/home/ubuntu/DaisyExamples/DaisySP/Source/Filters/svf.h **** */
  26:/home/ubuntu/DaisyExamples/DaisySP/Source/Filters/svf.h **** class Svf
  27:/home/ubuntu/DaisyExamples/DaisySP/Source/Filters/svf.h **** {
  28:/home/ubuntu/DaisyExamples/DaisySP/Source/Filters/svf.h ****   public:
  29:/home/ubuntu/DaisyExamples/DaisySP/Source/Filters/svf.h ****     Svf() {}
  30:/home/ubuntu/DaisyExamples/DaisySP/Source/Filters/svf.h ****     ~Svf() {}
 277              		.loc 12 30 5 view .LVU47
 278              		.loc 12 30 5 is_stmt 0 view .LVU48
 279              	.LBE672:
ARM GAS  /tmp/ccBh0qTK.s 			page 29


 280              	.LBB673:
 281              	.LBI673:
 282              		.loc 12 30 5 is_stmt 1 view .LVU49
 283              		.loc 12 30 5 is_stmt 0 view .LVU50
 284              	.LBE673:
 285              	.LBB674:
 286              	.LBI674:
 287              		.loc 12 30 5 is_stmt 1 view .LVU51
 288              		.loc 12 30 5 is_stmt 0 view .LVU52
 289              	.LBE674:
 290              	.LBB675:
 291              	.LBI675:
 292              		.loc 12 30 5 is_stmt 1 view .LVU53
 293              		.loc 12 30 5 is_stmt 0 view .LVU54
 294              	.LBE675:
 295              	.LBB676:
 296              	.LBI676:
 297              		.file 13 "shy_fft.h"
   1:shy_fft.h     **** // Copyright 2014 Emilie Gillet.
   2:shy_fft.h     **** //
   3:shy_fft.h     **** // Author: Emilie Gillet (emilie.o.gillet@gmail.com)
   4:shy_fft.h     **** //
   5:shy_fft.h     **** // Permission is hereby granted, free of charge, to any person obtaining a copy
   6:shy_fft.h     **** // of this software and associated documentation files (the "Software"), to deal
   7:shy_fft.h     **** // in the Software without restriction, including without limitation the rights
   8:shy_fft.h     **** // to use, copy, modify, merge, publish, distribute, sublicense, and/or sell
   9:shy_fft.h     **** // copies of the Software, and to permit persons to whom the Software is
  10:shy_fft.h     **** // furnished to do so, subject to the following conditions:
  11:shy_fft.h     **** //
  12:shy_fft.h     **** // The above copyright notice and this permission notice shall be included in
  13:shy_fft.h     **** // all copies or substantial portions of the Software.
  14:shy_fft.h     **** //
  15:shy_fft.h     **** // THE SOFTWARE IS PROVIDED "AS IS", WITHOUT WARRANTY OF ANY KIND, EXPRESS OR
  16:shy_fft.h     **** // IMPLIED, INCLUDING BUT NOT LIMITED TO THE WARRANTIES OF MERCHANTABILITY,
  17:shy_fft.h     **** // FITNESS FOR A PARTICULAR PURPOSE AND NONINFRINGEMENT. IN NO EVENT SHALL THE
  18:shy_fft.h     **** // AUTHORS OR COPYRIGHT HOLDERS BE LIABLE FOR ANY CLAIM, DAMAGES OR OTHER
  19:shy_fft.h     **** // LIABILITY, WHETHER IN AN ACTION OF CONTRACT, TORT OR OTHERWISE, ARISING FROM,
  20:shy_fft.h     **** // OUT OF OR IN CONNECTION WITH THE SOFTWARE OR THE USE OR OTHER DEALINGS IN
  21:shy_fft.h     **** // THE SOFTWARE.
  22:shy_fft.h     **** //
  23:shy_fft.h     **** // See http://creativecommons.org/licenses/MIT/ for more information.
  24:shy_fft.h     **** //
  25:shy_fft.h     **** // -----------------------------------------------------------------------------
  26:shy_fft.h     **** //
  27:shy_fft.h     **** // A modest implementation of real FFT for embedded audio applications,
  28:shy_fft.h     **** // largely based on Laurent de Soras' FFTReal.
  29:shy_fft.h     **** //
  30:shy_fft.h     **** // Improvements:
  31:shy_fft.h     **** // * No dynamic allocations.
  32:shy_fft.h     **** // * No additional buffering (can use the input buffer as a workspace).
  33:shy_fft.h     **** // * No big bitrev lookup table.
  34:shy_fft.h     **** // * Keep the fixed size template signature, but also provide method for
  35:shy_fft.h     **** //   variable size (up to the fixed size).
  36:shy_fft.h     **** 
  37:shy_fft.h     **** #ifndef STMLIB_FFT_SHY_FFT_H_
  38:shy_fft.h     **** #define STMLIB_FFT_SHY_FFT_H_
  39:shy_fft.h     **** 
ARM GAS  /tmp/ccBh0qTK.s 			page 30


  40:shy_fft.h     **** #include <algorithm>
  41:shy_fft.h     **** #include <cmath>
  42:shy_fft.h     **** 
  43:shy_fft.h     **** // Compile-time log 2
  44:shy_fft.h     **** template <size_t x>
  45:shy_fft.h     **** struct Log2
  46:shy_fft.h     **** {
  47:shy_fft.h     ****     enum
  48:shy_fft.h     ****     {
  49:shy_fft.h     ****         value = Log2<x / 2>::value + 1
  50:shy_fft.h     ****     };
  51:shy_fft.h     ****     typedef char CheckPowerOf2[((x & (x - 1)) == 0 ? 1 : -1)];
  52:shy_fft.h     **** };
  53:shy_fft.h     **** 
  54:shy_fft.h     **** template <>
  55:shy_fft.h     **** struct Log2<1>
  56:shy_fft.h     **** {
  57:shy_fft.h     ****     enum
  58:shy_fft.h     ****     {
  59:shy_fft.h     ****         value = 0
  60:shy_fft.h     ****     };
  61:shy_fft.h     **** };
  62:shy_fft.h     **** 
  63:shy_fft.h     **** 
  64:shy_fft.h     **** // Bit reversal LUT size.
  65:shy_fft.h     **** template <size_t>
  66:shy_fft.h     **** struct BitReversalLut
  67:shy_fft.h     **** {
  68:shy_fft.h     ****     enum
  69:shy_fft.h     ****     {
  70:shy_fft.h     ****         size = 1
  71:shy_fft.h     ****     };
  72:shy_fft.h     **** };
  73:shy_fft.h     **** template <>
  74:shy_fft.h     **** struct BitReversalLut<3>
  75:shy_fft.h     **** {
  76:shy_fft.h     ****     enum
  77:shy_fft.h     ****     {
  78:shy_fft.h     ****         size = 2
  79:shy_fft.h     ****     };
  80:shy_fft.h     **** };
  81:shy_fft.h     **** template <>
  82:shy_fft.h     **** struct BitReversalLut<4>
  83:shy_fft.h     **** {
  84:shy_fft.h     ****     enum
  85:shy_fft.h     ****     {
  86:shy_fft.h     ****         size = 4
  87:shy_fft.h     ****     };
  88:shy_fft.h     **** };
  89:shy_fft.h     **** template <>
  90:shy_fft.h     **** struct BitReversalLut<5>
  91:shy_fft.h     **** {
  92:shy_fft.h     ****     enum
  93:shy_fft.h     ****     {
  94:shy_fft.h     ****         size = 8
  95:shy_fft.h     ****     };
  96:shy_fft.h     **** };
ARM GAS  /tmp/ccBh0qTK.s 			page 31


  97:shy_fft.h     **** template <>
  98:shy_fft.h     **** struct BitReversalLut<6>
  99:shy_fft.h     **** {
 100:shy_fft.h     ****     enum
 101:shy_fft.h     ****     {
 102:shy_fft.h     ****         size = 16
 103:shy_fft.h     ****     };
 104:shy_fft.h     **** };
 105:shy_fft.h     **** template <>
 106:shy_fft.h     **** struct BitReversalLut<7>
 107:shy_fft.h     **** {
 108:shy_fft.h     ****     enum
 109:shy_fft.h     ****     {
 110:shy_fft.h     ****         size = 32
 111:shy_fft.h     ****     };
 112:shy_fft.h     **** };
 113:shy_fft.h     **** template <>
 114:shy_fft.h     **** struct BitReversalLut<8>
 115:shy_fft.h     **** {
 116:shy_fft.h     ****     enum
 117:shy_fft.h     ****     {
 118:shy_fft.h     ****         size = 64
 119:shy_fft.h     ****     };
 120:shy_fft.h     **** };
 121:shy_fft.h     **** 
 122:shy_fft.h     **** 
 123:shy_fft.h     **** // Typed math functions and constants.
 124:shy_fft.h     **** template <typename T>
 125:shy_fft.h     **** struct Math
 126:shy_fft.h     **** {
 127:shy_fft.h     ****     inline T pi() const;
 128:shy_fft.h     ****     inline T sqrt_2_div_2() const;
 129:shy_fft.h     ****     inline T cos(T x);
 130:shy_fft.h     ****     inline T sin(T x);
 131:shy_fft.h     **** };
 132:shy_fft.h     **** 
 133:shy_fft.h     **** template <>
 134:shy_fft.h     **** struct Math<float>
 135:shy_fft.h     **** {
 136:shy_fft.h     ****     inline float pi() const { return 3.141592653589793f; }
 137:shy_fft.h     ****     inline float sqrt_2_div_2() const { return 0.7071067811865476f; }
 138:shy_fft.h     ****     inline float cos(float x) { return cosf(x); }
 139:shy_fft.h     ****     inline float sin(float x) { return sinf(x); }
 140:shy_fft.h     **** };
 141:shy_fft.h     **** 
 142:shy_fft.h     **** template <>
 143:shy_fft.h     **** struct Math<double>
 144:shy_fft.h     **** {
 145:shy_fft.h     ****     inline double pi() const { return 3.141592653589793; }
 146:shy_fft.h     ****     inline float  sqrt_2_div_2() const { return 0.7071067811865476; }
 147:shy_fft.h     ****     inline double cos(double x) { return cos(x); }
 148:shy_fft.h     ****     inline double sin(double x) { return sin(x); }
 149:shy_fft.h     **** };
 150:shy_fft.h     **** 
 151:shy_fft.h     **** 
 152:shy_fft.h     **** // Look-up table for trigonometric data.
 153:shy_fft.h     **** template <typename T, size_t num_passes>
ARM GAS  /tmp/ccBh0qTK.s 			page 32


 154:shy_fft.h     **** class LutPhasor
 155:shy_fft.h     **** {
 156:shy_fft.h     ****   public:
 157:shy_fft.h     ****     LutPhasor() {}
 158:shy_fft.h     ****     ~LutPhasor() {}
 159:shy_fft.h     **** 
 160:shy_fft.h     ****     void Init()
 161:shy_fft.h     ****     {
 162:shy_fft.h     ****         Math<T> math;
 163:shy_fft.h     **** 
 164:shy_fft.h     ****         for(size_t pass = 3; pass < num_passes; ++pass)
 165:shy_fft.h     ****         {
 166:shy_fft.h     ****             size_t pass_size = 1L << (pass - 1);
 167:shy_fft.h     ****             T*     pass_ptr  = &trig_lut_[(1L << (pass - 1)) - 4];
 168:shy_fft.h     ****             T      increment = math.pi() / (pass_size << 1);
 169:shy_fft.h     ****             T      phase     = 0.0;
 170:shy_fft.h     ****             for(size_t i = 0; i < pass_size; ++i)
 171:shy_fft.h     ****             {
 172:shy_fft.h     ****                 pass_ptr[i] = math.cos(phase);
 173:shy_fft.h     ****                 phase += increment;
 174:shy_fft.h     ****             }
 175:shy_fft.h     ****         }
 176:shy_fft.h     ****     }
 177:shy_fft.h     **** 
 178:shy_fft.h     ****     inline void Start(size_t pass)
 179:shy_fft.h     ****     {
 180:shy_fft.h     ****         size_t pass_size = 1 << (pass - 1);
 181:shy_fft.h     ****         cos_ptr_         = &trig_lut_[pass_size - 4 + 1];
 182:shy_fft.h     ****         sin_ptr_         = &trig_lut_[pass_size + pass_size - 4 - 1];
 183:shy_fft.h     ****     }
 184:shy_fft.h     **** 
 185:shy_fft.h     ****     inline void Rotate()
 186:shy_fft.h     ****     {
 187:shy_fft.h     ****         ++cos_ptr_;
 188:shy_fft.h     ****         --sin_ptr_;
 189:shy_fft.h     ****     }
 190:shy_fft.h     **** 
 191:shy_fft.h     ****     inline T cos() const { return *cos_ptr_; }
 192:shy_fft.h     ****     inline T sin() const { return *sin_ptr_; }
 193:shy_fft.h     **** 
 194:shy_fft.h     ****   private:
 195:shy_fft.h     ****     T  trig_lut_[(1 << (num_passes - 1)) - 4];
 196:shy_fft.h     ****     T* cos_ptr_;
 197:shy_fft.h     ****     T* sin_ptr_;
 198:shy_fft.h     **** };
 199:shy_fft.h     **** 
 200:shy_fft.h     **** template <typename T>
 201:shy_fft.h     **** struct LutPhasor<T, 0>
 202:shy_fft.h     **** {
 203:shy_fft.h     ****     void Init(){};
 204:shy_fft.h     **** };
 205:shy_fft.h     **** template <typename T>
 206:shy_fft.h     **** struct LutPhasor<T, 1>
 207:shy_fft.h     **** {
 208:shy_fft.h     ****     void Init(){};
 209:shy_fft.h     **** };
 210:shy_fft.h     **** template <typename T>
ARM GAS  /tmp/ccBh0qTK.s 			page 33


 211:shy_fft.h     **** struct LutPhasor<T, 2>
 212:shy_fft.h     **** {
 213:shy_fft.h     ****     void Init(){};
 214:shy_fft.h     **** };
 215:shy_fft.h     **** 
 216:shy_fft.h     **** template <typename T>
 217:shy_fft.h     **** struct LutPhasor<T, 3>
 218:shy_fft.h     **** {
 219:shy_fft.h     ****     void     Init(){};
 220:shy_fft.h     ****     void     Start(size_t){};
 221:shy_fft.h     ****     void     Rotate(){};
 222:shy_fft.h     ****     inline T cos() const { return 1.0; }
 223:shy_fft.h     ****     inline T sin() const { return 0.0; }
 224:shy_fft.h     **** };
 225:shy_fft.h     **** 
 226:shy_fft.h     **** 
 227:shy_fft.h     **** // Another way of generating roots of unity.
 228:shy_fft.h     **** template <typename T, size_t num_passes>
 229:shy_fft.h     **** class RotationPhasor
 230:shy_fft.h     **** {
 231:shy_fft.h     ****   public:
 232:shy_fft.h     ****     RotationPhasor() {}
 233:shy_fft.h     ****     ~RotationPhasor() {}
 234:shy_fft.h     **** 
 235:shy_fft.h     ****     void Init()
 236:shy_fft.h     ****     {
 237:shy_fft.h     ****         Math<T> math;
 238:shy_fft.h     ****         for(size_t pass = 3; pass < num_passes; ++pass)
 239:shy_fft.h     ****         {
 240:shy_fft.h     ****             size_t index            = (pass - 3) << 1;
 241:shy_fft.h     ****             T      angle            = math.pi() / (1 << pass);
 242:shy_fft.h     ****             sin_cos_lut_[index]     = math.cos(angle);
 243:shy_fft.h     ****             sin_cos_lut_[index + 1] = math.sin(angle);
 244:shy_fft.h     ****         }
 245:shy_fft.h     ****     }
 246:shy_fft.h     **** 
 247:shy_fft.h     ****     inline void Start(size_t pass)
 248:shy_fft.h     ****     {
 249:shy_fft.h     ****         size_t index = (pass - 3) << 1;
 250:shy_fft.h     ****         cos_ = real_ = sin_cos_lut_[index];
 251:shy_fft.h     ****         sin_ = imag_ = sin_cos_lut_[index + 1];
 252:shy_fft.h     ****     }
 253:shy_fft.h     **** 
 254:shy_fft.h     ****     inline void Rotate()
 255:shy_fft.h     ****     {
 256:shy_fft.h     ****         T temp = cos_ * real_ - sin_ * imag_;
 257:shy_fft.h     ****         sin_   = cos_ * imag_ + sin_ * real_;
 258:shy_fft.h     ****         cos_   = temp;
 259:shy_fft.h     ****     }
 260:shy_fft.h     **** 
 261:shy_fft.h     ****     inline T cos() const { return cos_; }
 262:shy_fft.h     ****     inline T sin() const { return sin_; }
 263:shy_fft.h     **** 
 264:shy_fft.h     ****   private:
 265:shy_fft.h     ****     T sin_cos_lut_[(num_passes - 3) << 1];
 266:shy_fft.h     ****     T cos_;
 267:shy_fft.h     ****     T sin_;
ARM GAS  /tmp/ccBh0qTK.s 			page 34


 268:shy_fft.h     ****     T real_;
 269:shy_fft.h     ****     T imag_;
 270:shy_fft.h     **** };
 271:shy_fft.h     **** 
 272:shy_fft.h     **** template <typename T>
 273:shy_fft.h     **** struct RotationPhasor<T, 0>
 274:shy_fft.h     **** {
 275:shy_fft.h     ****     void Init(){};
 276:shy_fft.h     **** };
 277:shy_fft.h     **** template <typename T>
 278:shy_fft.h     **** struct RotationPhasor<T, 1>
 279:shy_fft.h     **** {
 280:shy_fft.h     ****     void Init(){};
 281:shy_fft.h     **** };
 282:shy_fft.h     **** template <typename T>
 283:shy_fft.h     **** struct RotationPhasor<T, 2>
 284:shy_fft.h     **** {
 285:shy_fft.h     ****     void Init(){};
 286:shy_fft.h     **** };
 287:shy_fft.h     **** 
 288:shy_fft.h     **** template <typename T>
 289:shy_fft.h     **** struct RotationPhasor<T, 3>
 290:shy_fft.h     **** {
 291:shy_fft.h     ****     void     Init(){};
 292:shy_fft.h     ****     void     Start(size_t){};
 293:shy_fft.h     ****     void     Rotate(){};
 294:shy_fft.h     ****     inline T cos() const { return 1.0; }
 295:shy_fft.h     ****     inline T sin() const { return 0.0; }
 296:shy_fft.h     **** };
 297:shy_fft.h     **** 
 298:shy_fft.h     **** // Direct transform
 299:shy_fft.h     **** template <typename T, size_t num_passes, typename Phasor>
 300:shy_fft.h     **** struct DirectTransform
 301:shy_fft.h     **** {
 302:shy_fft.h     ****   private:
 303:shy_fft.h     ****     enum
 304:shy_fft.h     ****     {
 305:shy_fft.h     ****         size = 1 << num_passes
 306:shy_fft.h     ****     };
 307:shy_fft.h     **** 
 308:shy_fft.h     ****   public:
 309:shy_fft.h     ****     void operator()(T* input, T* output, const uint8_t* bit_rev, Phasor* phasor)
 310:shy_fft.h     ****     {
 311:shy_fft.h     ****         T*      s;
 312:shy_fft.h     ****         T*      d;
 313:shy_fft.h     ****         Math<T> math;
 314:shy_fft.h     **** 
 315:shy_fft.h     ****         // First and second pass.
 316:shy_fft.h     ****         d = output;
 317:shy_fft.h     ****         for(size_t i = 0; i < size; i += 4)
 318:shy_fft.h     ****         {
 319:shy_fft.h     ****             const T* s  = input;
 320:shy_fft.h     ****             size_t   r0 = num_passes <= 8
 321:shy_fft.h     ****                             ? bit_rev[i >> 2]
 322:shy_fft.h     ****                             : ((bit_rev[i & 0xff] << 8) | bit_rev[i >> 8])
 323:shy_fft.h     ****                                   >> (16 - num_passes);
 324:shy_fft.h     ****             size_t r1 = r0 + 2 * (size >> 2);
ARM GAS  /tmp/ccBh0qTK.s 			page 35


 325:shy_fft.h     ****             size_t r2 = r0 + 1 * (size >> 2);
 326:shy_fft.h     ****             size_t r3 = r0 + 3 * (size >> 2);
 327:shy_fft.h     **** 
 328:shy_fft.h     ****             d[1] = s[r0] - s[r1];
 329:shy_fft.h     ****             d[3] = s[r2] - s[r3];
 330:shy_fft.h     ****             T a  = s[r0] + s[r1];
 331:shy_fft.h     ****             T b  = s[r2] + s[r3];
 332:shy_fft.h     ****             d[0] = a + b;
 333:shy_fft.h     ****             d[2] = a - b;
 334:shy_fft.h     ****             d += 4;
 335:shy_fft.h     ****         }
 336:shy_fft.h     **** 
 337:shy_fft.h     ****         // Third pass.
 338:shy_fft.h     ****         s = output;
 339:shy_fft.h     ****         d = input;
 340:shy_fft.h     ****         for(size_t i = 0; i < size; i += 8)
 341:shy_fft.h     ****         {
 342:shy_fft.h     ****             T v;
 343:shy_fft.h     **** 
 344:shy_fft.h     ****             d[i]     = s[i] + s[i + 4];
 345:shy_fft.h     ****             d[i + 4] = s[i] - s[i + 4];
 346:shy_fft.h     ****             d[i + 2] = s[i + 2];
 347:shy_fft.h     ****             d[i + 6] = s[i + 6];
 348:shy_fft.h     **** 
 349:shy_fft.h     ****             v        = (s[i + 5] - s[i + 7]) * math.sqrt_2_div_2();
 350:shy_fft.h     ****             d[i + 1] = s[i + 1] + v;
 351:shy_fft.h     ****             d[i + 3] = s[i + 1] - v;
 352:shy_fft.h     **** 
 353:shy_fft.h     ****             v        = (s[i + 5] + s[i + 7]) * math.sqrt_2_div_2();
 354:shy_fft.h     ****             d[i + 5] = v + s[i + 3];
 355:shy_fft.h     ****             d[i + 7] = v - s[i + 3];
 356:shy_fft.h     ****         }
 357:shy_fft.h     **** 
 358:shy_fft.h     ****         // Remaining passes.
 359:shy_fft.h     ****         for(size_t pass = 3; pass < num_passes; ++pass)
 360:shy_fft.h     ****         {
 361:shy_fft.h     ****             // Flip source and destination pointers
 362:shy_fft.h     ****             {
 363:shy_fft.h     ****                 T* tmp = s;
 364:shy_fft.h     ****                 s      = d;
 365:shy_fft.h     ****                 d      = tmp;
 366:shy_fft.h     ****             }
 367:shy_fft.h     **** 
 368:shy_fft.h     ****             size_t n   = 1 << pass;
 369:shy_fft.h     ****             size_t n_2 = n >> 1;
 370:shy_fft.h     **** 
 371:shy_fft.h     ****             for(size_t i = 0; i < size; i += (n << 1))
 372:shy_fft.h     ****             {
 373:shy_fft.h     ****                 T* s1r = s + i;
 374:shy_fft.h     ****                 T* s2r = s1r + n;
 375:shy_fft.h     ****                 T* dr  = d + i;
 376:shy_fft.h     ****                 T* di  = dr + n;
 377:shy_fft.h     **** 
 378:shy_fft.h     ****                 dr[0]   = s1r[0] + s2r[0];
 379:shy_fft.h     ****                 di[0]   = s1r[0] - s2r[0];
 380:shy_fft.h     ****                 dr[n_2] = s1r[n_2];
 381:shy_fft.h     ****                 di[n_2] = s2r[n_2];
ARM GAS  /tmp/ccBh0qTK.s 			page 36


 382:shy_fft.h     ****                 T* s1i  = s1r + n_2;
 383:shy_fft.h     ****                 T* s2i  = s1i + n;
 384:shy_fft.h     ****                 phasor->Start(pass);
 385:shy_fft.h     ****                 for(size_t j = 1; j < n_2; ++j)
 386:shy_fft.h     ****                 {
 387:shy_fft.h     ****                     T c = phasor->cos();
 388:shy_fft.h     ****                     T s = phasor->sin();
 389:shy_fft.h     ****                     T v;
 390:shy_fft.h     **** 
 391:shy_fft.h     ****                     v      = s2r[j] * c - s2i[j] * s;
 392:shy_fft.h     ****                     dr[j]  = s1r[j] + v;
 393:shy_fft.h     ****                     di[-j] = s1r[j] - v;
 394:shy_fft.h     **** 
 395:shy_fft.h     ****                     v         = s2r[j] * s + s2i[j] * c;
 396:shy_fft.h     ****                     di[j]     = v + s1i[j];
 397:shy_fft.h     ****                     di[n - j] = v - s1i[j];
 398:shy_fft.h     ****                     phasor->Rotate();
 399:shy_fft.h     ****                 }
 400:shy_fft.h     ****             }
 401:shy_fft.h     ****         }
 402:shy_fft.h     **** 
 403:shy_fft.h     ****         // Annoying additional data copy step.
 404:shy_fft.h     ****         if(d != output)
 405:shy_fft.h     ****         {
 406:shy_fft.h     ****             std::copy(&d[0], &d[size], &output[0]);
 407:shy_fft.h     ****         }
 408:shy_fft.h     ****     }
 409:shy_fft.h     **** 
 410:shy_fft.h     ****     // The exact same thing but with "num_passes" as a run-time argument.
 411:shy_fft.h     ****     void operator()(T*             input,
 412:shy_fft.h     ****                     T*             output,
 413:shy_fft.h     ****                     const uint8_t* bit_rev,
 414:shy_fft.h     ****                     Phasor*        phasor,
 415:shy_fft.h     ****                     size_t         rt_num_passes)
 416:shy_fft.h     ****     {
 417:shy_fft.h     ****         T*      s;
 418:shy_fft.h     ****         T*      d;
 419:shy_fft.h     ****         Math<T> math;
 420:shy_fft.h     ****         size_t  rt_size = 1 << rt_num_passes;
 421:shy_fft.h     ****         // First and second pass.
 422:shy_fft.h     ****         d = output;
 423:shy_fft.h     ****         for(size_t i = 0; i < rt_size; i += 4)
 424:shy_fft.h     ****         {
 425:shy_fft.h     ****             const T* s  = input;
 426:shy_fft.h     ****             size_t   r0 = ((bit_rev[i & 0xff] << 8) | bit_rev[i >> 8])
 427:shy_fft.h     ****                         >> (16 - rt_num_passes);
 428:shy_fft.h     ****             size_t r1 = r0 + 2 * (rt_size >> 2);
 429:shy_fft.h     ****             size_t r2 = r0 + 1 * (rt_size >> 2);
 430:shy_fft.h     ****             size_t r3 = r0 + 3 * (rt_size >> 2);
 431:shy_fft.h     **** 
 432:shy_fft.h     ****             d[1] = s[r0] - s[r1];
 433:shy_fft.h     ****             d[3] = s[r2] - s[r3];
 434:shy_fft.h     ****             T a  = s[r0] + s[r1];
 435:shy_fft.h     ****             T b  = s[r2] + s[r3];
 436:shy_fft.h     ****             d[0] = a + b;
 437:shy_fft.h     ****             d[2] = a - b;
 438:shy_fft.h     ****             d += 4;
ARM GAS  /tmp/ccBh0qTK.s 			page 37


 439:shy_fft.h     ****         }
 440:shy_fft.h     **** 
 441:shy_fft.h     ****         // Third pass.
 442:shy_fft.h     ****         s = output;
 443:shy_fft.h     ****         d = input;
 444:shy_fft.h     ****         for(size_t i = 0; i < rt_size; i += 8)
 445:shy_fft.h     ****         {
 446:shy_fft.h     ****             T v;
 447:shy_fft.h     **** 
 448:shy_fft.h     ****             d[i]     = s[i] + s[i + 4];
 449:shy_fft.h     ****             d[i + 4] = s[i] - s[i + 4];
 450:shy_fft.h     ****             d[i + 2] = s[i + 2];
 451:shy_fft.h     ****             d[i + 6] = s[i + 6];
 452:shy_fft.h     **** 
 453:shy_fft.h     ****             v        = (s[i + 5] - s[i + 7]) * math.sqrt_2_div_2();
 454:shy_fft.h     ****             d[i + 1] = s[i + 1] + v;
 455:shy_fft.h     ****             d[i + 3] = s[i + 1] - v;
 456:shy_fft.h     **** 
 457:shy_fft.h     ****             v        = (s[i + 5] + s[i + 7]) * math.sqrt_2_div_2();
 458:shy_fft.h     ****             d[i + 5] = v + s[i + 3];
 459:shy_fft.h     ****             d[i + 7] = v - s[i + 3];
 460:shy_fft.h     ****         }
 461:shy_fft.h     **** 
 462:shy_fft.h     ****         // Remaining passes.
 463:shy_fft.h     ****         for(size_t pass = 3; pass < rt_num_passes; ++pass)
 464:shy_fft.h     ****         {
 465:shy_fft.h     ****             // Flip source and destination pointers
 466:shy_fft.h     ****             {
 467:shy_fft.h     ****                 T* tmp = s;
 468:shy_fft.h     ****                 s      = d;
 469:shy_fft.h     ****                 d      = tmp;
 470:shy_fft.h     ****             }
 471:shy_fft.h     **** 
 472:shy_fft.h     ****             size_t n   = 1 << pass;
 473:shy_fft.h     ****             size_t n_2 = n >> 1;
 474:shy_fft.h     **** 
 475:shy_fft.h     ****             for(size_t i = 0; i < rt_size; i += (n << 1))
 476:shy_fft.h     ****             {
 477:shy_fft.h     ****                 T* s1r = s + i;
 478:shy_fft.h     ****                 T* s2r = s1r + n;
 479:shy_fft.h     ****                 T* dr  = d + i;
 480:shy_fft.h     ****                 T* di  = dr + n;
 481:shy_fft.h     **** 
 482:shy_fft.h     ****                 dr[0]   = s1r[0] + s2r[0];
 483:shy_fft.h     ****                 di[0]   = s1r[0] - s2r[0];
 484:shy_fft.h     ****                 dr[n_2] = s1r[n_2];
 485:shy_fft.h     ****                 di[n_2] = s2r[n_2];
 486:shy_fft.h     ****                 T* s1i  = s1r + n_2;
 487:shy_fft.h     ****                 T* s2i  = s1i + n;
 488:shy_fft.h     ****                 phasor->Start(pass);
 489:shy_fft.h     ****                 for(size_t j = 1; j < n_2; ++j)
 490:shy_fft.h     ****                 {
 491:shy_fft.h     ****                     T c = phasor->cos();
 492:shy_fft.h     ****                     T s = phasor->sin();
 493:shy_fft.h     ****                     T v;
 494:shy_fft.h     **** 
 495:shy_fft.h     ****                     v      = s2r[j] * c - s2i[j] * s;
ARM GAS  /tmp/ccBh0qTK.s 			page 38


 496:shy_fft.h     ****                     dr[j]  = s1r[j] + v;
 497:shy_fft.h     ****                     di[-j] = s1r[j] - v;
 498:shy_fft.h     **** 
 499:shy_fft.h     ****                     v         = s2r[j] * s + s2i[j] * c;
 500:shy_fft.h     ****                     di[j]     = v + s1i[j];
 501:shy_fft.h     ****                     di[n - j] = v - s1i[j];
 502:shy_fft.h     ****                     phasor->Rotate();
 503:shy_fft.h     ****                 }
 504:shy_fft.h     ****             }
 505:shy_fft.h     ****         }
 506:shy_fft.h     **** 
 507:shy_fft.h     ****         // Annoying additional data copy step.
 508:shy_fft.h     ****         if(d != output)
 509:shy_fft.h     ****         {
 510:shy_fft.h     ****             std::copy(&d[0], &d[rt_size], &output[0]);
 511:shy_fft.h     ****         }
 512:shy_fft.h     ****     }
 513:shy_fft.h     **** };
 514:shy_fft.h     **** 
 515:shy_fft.h     **** template <typename T, typename Phasor>
 516:shy_fft.h     **** struct DirectTransform<T, 0, Phasor>
 517:shy_fft.h     **** {
 518:shy_fft.h     ****     void operator()(const T* i, T* o, T*, const uint8_t*, Phasor*)
 519:shy_fft.h     ****     {
 520:shy_fft.h     ****         o[0] = i[0];
 521:shy_fft.h     ****     }
 522:shy_fft.h     **** };
 523:shy_fft.h     **** 
 524:shy_fft.h     **** template <typename T, typename Phasor>
 525:shy_fft.h     **** struct DirectTransform<T, 1, Phasor>
 526:shy_fft.h     **** {
 527:shy_fft.h     ****     void operator()(const T* i, T* o, T*, const uint8_t*, Phasor*)
 528:shy_fft.h     ****     {
 529:shy_fft.h     ****         o[0] = i[0] + i[1];
 530:shy_fft.h     ****         o[1] = i[0] - i[1];
 531:shy_fft.h     ****     }
 532:shy_fft.h     **** };
 533:shy_fft.h     **** 
 534:shy_fft.h     **** template <typename T, typename Phasor>
 535:shy_fft.h     **** struct DirectTransform<T, 2, Phasor>
 536:shy_fft.h     **** {
 537:shy_fft.h     ****     void operator()(const T* i, T* o, T*, const uint8_t*, Phasor*)
 538:shy_fft.h     ****     {
 539:shy_fft.h     ****         o[1] = i[0] - i[2];
 540:shy_fft.h     ****         o[3] = i[1] - i[3];
 541:shy_fft.h     ****         T a  = i[0] + i[2];
 542:shy_fft.h     ****         T b  = i[1] + i[3];
 543:shy_fft.h     ****         o[0] = a + b;
 544:shy_fft.h     ****         o[2] = a - b;
 545:shy_fft.h     ****     }
 546:shy_fft.h     **** };
 547:shy_fft.h     **** 
 548:shy_fft.h     **** 
 549:shy_fft.h     **** // Inverse transform
 550:shy_fft.h     **** template <typename T, size_t num_passes, typename Phasor>
 551:shy_fft.h     **** struct InverseTransform
 552:shy_fft.h     **** {
ARM GAS  /tmp/ccBh0qTK.s 			page 39


 553:shy_fft.h     ****   private:
 554:shy_fft.h     ****     enum
 555:shy_fft.h     ****     {
 556:shy_fft.h     ****         size = 1 << num_passes
 557:shy_fft.h     ****     };
 558:shy_fft.h     **** 
 559:shy_fft.h     ****   public:
 560:shy_fft.h     ****     void operator()(T* input, T* output, const uint8_t* bit_rev, Phasor* phasor)
 561:shy_fft.h     ****     {
 562:shy_fft.h     ****         T*      s = (T*)(input);
 563:shy_fft.h     ****         T*      d = output;
 564:shy_fft.h     ****         Math<T> math;
 565:shy_fft.h     **** 
 566:shy_fft.h     ****         // Remaining passes.
 567:shy_fft.h     ****         for(size_t pass = num_passes - 1; pass >= 3; --pass)
 568:shy_fft.h     ****         {
 569:shy_fft.h     ****             size_t n   = 1 << pass;
 570:shy_fft.h     ****             size_t n_2 = n >> 1;
 571:shy_fft.h     **** 
 572:shy_fft.h     ****             for(size_t i = 0; i < size; i += (n << 1))
 573:shy_fft.h     ****             {
 574:shy_fft.h     ****                 T* sr  = s + i;
 575:shy_fft.h     ****                 T* si  = sr + n;
 576:shy_fft.h     ****                 T* d1r = d + i;
 577:shy_fft.h     ****                 T* d2r = d1r + n;
 578:shy_fft.h     **** 
 579:shy_fft.h     ****                 d1r[0]   = sr[0] + si[0];
 580:shy_fft.h     ****                 d2r[0]   = sr[0] - si[0];
 581:shy_fft.h     ****                 d1r[n_2] = sr[n_2] * T(2);
 582:shy_fft.h     ****                 d2r[n_2] = si[n_2] * T(2);
 583:shy_fft.h     **** 
 584:shy_fft.h     ****                 T* d1i = d1r + n_2;
 585:shy_fft.h     ****                 T* d2i = d1i + n;
 586:shy_fft.h     ****                 phasor->Start(pass);
 587:shy_fft.h     ****                 for(size_t j = 1; j < n_2; ++j)
 588:shy_fft.h     ****                 {
 589:shy_fft.h     ****                     d1r[j] = sr[j] + si[-j];
 590:shy_fft.h     ****                     d1i[j] = si[j] - si[n - j];
 591:shy_fft.h     **** 
 592:shy_fft.h     ****                     T c  = phasor->cos();
 593:shy_fft.h     ****                     T s  = phasor->sin();
 594:shy_fft.h     ****                     T vr = sr[j] - si[-j];
 595:shy_fft.h     ****                     T vi = si[j] + si[n - j];
 596:shy_fft.h     **** 
 597:shy_fft.h     ****                     d2r[j] = vr * c + vi * s;
 598:shy_fft.h     ****                     d2i[j] = vi * c - vr * s;
 599:shy_fft.h     ****                     phasor->Rotate();
 600:shy_fft.h     ****                 }
 601:shy_fft.h     ****             }
 602:shy_fft.h     **** 
 603:shy_fft.h     ****             // Flip source and destination pointers for the next pass.
 604:shy_fft.h     ****             if(d == output)
 605:shy_fft.h     ****             {
 606:shy_fft.h     ****                 s = output;
 607:shy_fft.h     ****                 d = input;
 608:shy_fft.h     ****             }
 609:shy_fft.h     ****             else
ARM GAS  /tmp/ccBh0qTK.s 			page 40


 610:shy_fft.h     ****             {
 611:shy_fft.h     ****                 s = input;
 612:shy_fft.h     ****                 d = output;
 613:shy_fft.h     ****             }
 614:shy_fft.h     ****         }
 615:shy_fft.h     **** 
 616:shy_fft.h     ****         // Copy data if necessary.
 617:shy_fft.h     ****         if(d == output)
 618:shy_fft.h     ****         {
 619:shy_fft.h     ****             std::copy(&s[0], &s[size], &output[0]);
 620:shy_fft.h     ****         }
 621:shy_fft.h     **** 
 622:shy_fft.h     ****         s = output;
 623:shy_fft.h     ****         d = input;
 624:shy_fft.h     ****         for(size_t i = 0; i < size; i += 8)
 625:shy_fft.h     ****         {
 626:shy_fft.h     ****             T vr, vi;
 627:shy_fft.h     ****             d[i]     = s[i] + s[i + 4];
 628:shy_fft.h     ****             d[i + 4] = s[i] - s[i + 4];
 629:shy_fft.h     ****             d[i + 2] = s[i + 2] * T(2);
 630:shy_fft.h     ****             d[i + 6] = s[i + 6] * T(2);
 631:shy_fft.h     ****             d[i + 1] = s[i + 1] + s[i + 3];
 632:shy_fft.h     ****             d[i + 3] = s[i + 5] - s[i + 7];
 633:shy_fft.h     ****             vr       = s[i + 1] - s[i + 3];
 634:shy_fft.h     ****             vi       = s[i + 5] + s[i + 7];
 635:shy_fft.h     ****             d[i + 5] = (vr + vi) * math.sqrt_2_div_2();
 636:shy_fft.h     ****             d[i + 7] = (vi - vr) * math.sqrt_2_div_2();
 637:shy_fft.h     ****         }
 638:shy_fft.h     **** 
 639:shy_fft.h     ****         // First and second pass.
 640:shy_fft.h     ****         s = input;
 641:shy_fft.h     ****         d = output;
 642:shy_fft.h     ****         for(size_t i = 0; i < size; i += 4)
 643:shy_fft.h     ****         {
 644:shy_fft.h     ****             size_t r0 = num_passes <= 8
 645:shy_fft.h     ****                             ? bit_rev[i >> 2]
 646:shy_fft.h     ****                             : ((bit_rev[i & 0xff] << 8) | bit_rev[i >> 8])
 647:shy_fft.h     ****                                   >> (16 - num_passes);
 648:shy_fft.h     ****             size_t r1 = r0 + 2 * (size >> 2);
 649:shy_fft.h     ****             size_t r2 = r0 + 1 * (size >> 2);
 650:shy_fft.h     ****             size_t r3 = r0 + 3 * (size >> 2);
 651:shy_fft.h     **** 
 652:shy_fft.h     ****             T b_0 = s[0] + s[2];
 653:shy_fft.h     ****             T b_2 = s[0] - s[2];
 654:shy_fft.h     ****             T b_1 = s[1] * T(2);
 655:shy_fft.h     ****             T b_3 = s[3] * T(2);
 656:shy_fft.h     **** 
 657:shy_fft.h     ****             d[r0] = b_0 + b_1;
 658:shy_fft.h     ****             d[r1] = b_0 - b_1;
 659:shy_fft.h     ****             d[r2] = b_2 + b_3;
 660:shy_fft.h     ****             d[r3] = b_2 - b_3;
 661:shy_fft.h     ****             s += 4;
 662:shy_fft.h     ****         }
 663:shy_fft.h     ****     }
 664:shy_fft.h     **** 
 665:shy_fft.h     ****     void operator()(T*             input,
 666:shy_fft.h     ****                     T*             output,
ARM GAS  /tmp/ccBh0qTK.s 			page 41


 667:shy_fft.h     ****                     const uint8_t* bit_rev,
 668:shy_fft.h     ****                     Phasor*        phasor,
 669:shy_fft.h     ****                     size_t         rt_num_passes)
 670:shy_fft.h     ****     {
 671:shy_fft.h     ****         T*      s = (T*)(input);
 672:shy_fft.h     ****         T*      d = output;
 673:shy_fft.h     ****         Math<T> math;
 674:shy_fft.h     **** 
 675:shy_fft.h     ****         size_t rt_size = 1 << rt_num_passes;
 676:shy_fft.h     **** 
 677:shy_fft.h     ****         // Remaining passes.
 678:shy_fft.h     ****         for(size_t pass = rt_num_passes - 1; pass >= 3; --pass)
 679:shy_fft.h     ****         {
 680:shy_fft.h     ****             size_t n   = 1 << pass;
 681:shy_fft.h     ****             size_t n_2 = n >> 1;
 682:shy_fft.h     **** 
 683:shy_fft.h     ****             for(size_t i = 0; i < rt_size; i += (n << 1))
 684:shy_fft.h     ****             {
 685:shy_fft.h     ****                 T* sr  = s + i;
 686:shy_fft.h     ****                 T* si  = sr + n;
 687:shy_fft.h     ****                 T* d1r = d + i;
 688:shy_fft.h     ****                 T* d2r = d1r + n;
 689:shy_fft.h     **** 
 690:shy_fft.h     ****                 d1r[0]   = sr[0] + si[0];
 691:shy_fft.h     ****                 d2r[0]   = sr[0] - si[0];
 692:shy_fft.h     ****                 d1r[n_2] = sr[n_2] * T(2);
 693:shy_fft.h     ****                 d2r[n_2] = si[n_2] * T(2);
 694:shy_fft.h     **** 
 695:shy_fft.h     ****                 T* d1i = d1r + n_2;
 696:shy_fft.h     ****                 T* d2i = d1i + n;
 697:shy_fft.h     ****                 phasor->Start(pass);
 698:shy_fft.h     ****                 for(size_t j = 1; j < n_2; ++j)
 699:shy_fft.h     ****                 {
 700:shy_fft.h     ****                     d1r[j] = sr[j] + si[-j];
 701:shy_fft.h     ****                     d1i[j] = si[j] - si[n - j];
 702:shy_fft.h     **** 
 703:shy_fft.h     ****                     T c  = phasor->cos();
 704:shy_fft.h     ****                     T s  = phasor->sin();
 705:shy_fft.h     ****                     T vr = sr[j] - si[-j];
 706:shy_fft.h     ****                     T vi = si[j] + si[n - j];
 707:shy_fft.h     **** 
 708:shy_fft.h     ****                     d2r[j] = vr * c + vi * s;
 709:shy_fft.h     ****                     d2i[j] = vi * c - vr * s;
 710:shy_fft.h     ****                     phasor->Rotate();
 711:shy_fft.h     ****                 }
 712:shy_fft.h     ****             }
 713:shy_fft.h     **** 
 714:shy_fft.h     ****             // Flip source and destination pointers for the next pass.
 715:shy_fft.h     ****             if(d == output)
 716:shy_fft.h     ****             {
 717:shy_fft.h     ****                 s = output;
 718:shy_fft.h     ****                 d = input;
 719:shy_fft.h     ****             }
 720:shy_fft.h     ****             else
 721:shy_fft.h     ****             {
 722:shy_fft.h     ****                 s = input;
 723:shy_fft.h     ****                 d = output;
ARM GAS  /tmp/ccBh0qTK.s 			page 42


 724:shy_fft.h     ****             }
 725:shy_fft.h     ****         }
 726:shy_fft.h     **** 
 727:shy_fft.h     ****         // Copy data if necessary.
 728:shy_fft.h     ****         if(d == output)
 729:shy_fft.h     ****         {
 730:shy_fft.h     ****             std::copy(&s[0], &s[rt_size], &output[0]);
 731:shy_fft.h     ****         }
 732:shy_fft.h     **** 
 733:shy_fft.h     ****         s = output;
 734:shy_fft.h     ****         d = input;
 735:shy_fft.h     ****         for(size_t i = 0; i < rt_size; i += 8)
 736:shy_fft.h     ****         {
 737:shy_fft.h     ****             T vr, vi;
 738:shy_fft.h     ****             d[i]     = s[i] + s[i + 4];
 739:shy_fft.h     ****             d[i + 4] = s[i] - s[i + 4];
 740:shy_fft.h     ****             d[i + 2] = s[i + 2] * T(2);
 741:shy_fft.h     ****             d[i + 6] = s[i + 6] * T(2);
 742:shy_fft.h     ****             d[i + 1] = s[i + 1] + s[i + 3];
 743:shy_fft.h     ****             d[i + 3] = s[i + 5] - s[i + 7];
 744:shy_fft.h     ****             vr       = s[i + 1] - s[i + 3];
 745:shy_fft.h     ****             vi       = s[i + 5] + s[i + 7];
 746:shy_fft.h     ****             d[i + 5] = (vr + vi) * math.sqrt_2_div_2();
 747:shy_fft.h     ****             d[i + 7] = (vi - vr) * math.sqrt_2_div_2();
 748:shy_fft.h     ****         }
 749:shy_fft.h     **** 
 750:shy_fft.h     ****         // First and second pass.
 751:shy_fft.h     ****         s = input;
 752:shy_fft.h     ****         d = output;
 753:shy_fft.h     ****         for(size_t i = 0; i < rt_size; i += 4)
 754:shy_fft.h     ****         {
 755:shy_fft.h     ****             size_t r0 = ((bit_rev[i & 0xff] << 8) | bit_rev[i >> 8])
 756:shy_fft.h     ****                         >> (16 - rt_num_passes);
 757:shy_fft.h     ****             size_t r1 = r0 + 2 * (rt_size >> 2);
 758:shy_fft.h     ****             size_t r2 = r0 + 1 * (rt_size >> 2);
 759:shy_fft.h     ****             size_t r3 = r0 + 3 * (rt_size >> 2);
 760:shy_fft.h     **** 
 761:shy_fft.h     ****             T b_0 = s[0] + s[2];
 762:shy_fft.h     ****             T b_2 = s[0] - s[2];
 763:shy_fft.h     ****             T b_1 = s[1] * T(2);
 764:shy_fft.h     ****             T b_3 = s[3] * T(2);
 765:shy_fft.h     **** 
 766:shy_fft.h     ****             d[r0] = b_0 + b_1;
 767:shy_fft.h     ****             d[r1] = b_0 - b_1;
 768:shy_fft.h     ****             d[r2] = b_2 + b_3;
 769:shy_fft.h     ****             d[r3] = b_2 - b_3;
 770:shy_fft.h     ****             s += 4;
 771:shy_fft.h     ****         }
 772:shy_fft.h     ****     }
 773:shy_fft.h     **** };
 774:shy_fft.h     **** 
 775:shy_fft.h     **** template <typename T, typename Phasor>
 776:shy_fft.h     **** struct InverseTransform<T, 0, Phasor>
 777:shy_fft.h     **** {
 778:shy_fft.h     ****     void operator()(const T* i, T* o, T*, const uint8_t*, Phasor*)
 779:shy_fft.h     ****     {
 780:shy_fft.h     ****         o[0] = i[0];
ARM GAS  /tmp/ccBh0qTK.s 			page 43


 781:shy_fft.h     ****     }
 782:shy_fft.h     **** };
 783:shy_fft.h     **** 
 784:shy_fft.h     **** template <typename T, typename Phasor>
 785:shy_fft.h     **** struct InverseTransform<T, 1, Phasor>
 786:shy_fft.h     **** {
 787:shy_fft.h     ****     void operator()(const T* i, T* o, T*, const uint8_t*, Phasor*)
 788:shy_fft.h     ****     {
 789:shy_fft.h     ****         o[0] = i[0] + i[1];
 790:shy_fft.h     ****         o[1] = i[0] - i[1];
 791:shy_fft.h     ****     }
 792:shy_fft.h     **** };
 793:shy_fft.h     **** 
 794:shy_fft.h     **** template <typename T, typename Phasor>
 795:shy_fft.h     **** struct InverseTransform<T, 2, Phasor>
 796:shy_fft.h     **** {
 797:shy_fft.h     ****     void operator()(const T* i, T* o, T*, const uint8_t*, Phasor*)
 798:shy_fft.h     ****     {
 799:shy_fft.h     ****         T a = i[0] + i[2];
 800:shy_fft.h     ****         T b = i[0] - i[2];
 801:shy_fft.h     **** 
 802:shy_fft.h     ****         o[0] = a + i[1] * T(2);
 803:shy_fft.h     ****         o[2] = a - i[1] * T(2);
 804:shy_fft.h     ****         o[1] = b + i[3] * T(2);
 805:shy_fft.h     ****         o[3] = b - i[3] * T(2);
 806:shy_fft.h     ****     }
 807:shy_fft.h     **** };
 808:shy_fft.h     **** 
 809:shy_fft.h     **** 
 810:shy_fft.h     **** template <typename T                               = float,
 811:shy_fft.h     ****           size_t size                              = 16,
 812:shy_fft.h     ****           template <typename, size_t> class Phasor = LutPhasor>
 813:shy_fft.h     **** class ShyFFT
 814:shy_fft.h     **** {
 815:shy_fft.h     ****   public:
 816:shy_fft.h     ****     enum
 817:shy_fft.h     ****     {
 818:shy_fft.h     ****         num_passes = Log2<size>::value,
 819:shy_fft.h     ****         max_size   = size
 820:shy_fft.h     ****     };
 821:shy_fft.h     **** 
 822:shy_fft.h     ****   private:
 823:shy_fft.h     ****     typedef Phasor<T, num_passes> PhasorType;
 824:shy_fft.h     **** 
 825:shy_fft.h     ****   public:
 826:shy_fft.h     ****     ShyFFT() {}
 827:shy_fft.h     ****     ~ShyFFT() {}
 298              		.loc 13 827 5 is_stmt 1 view .LVU55
 299              	.LBB677:
 300              	.LBI677:
 158:shy_fft.h     **** 
 301              		.loc 13 158 5 view .LVU56
 158:shy_fft.h     **** 
 302              		.loc 13 158 5 is_stmt 0 view .LVU57
 303              	.LBE677:
 304              	.LBE676:
 305              	.LBE678:
ARM GAS  /tmp/ccBh0qTK.s 			page 44


 189:EchoBridgeWithUSB.cpp ****         }
 190:EchoBridgeWithUSB.cpp ****     }
 306              		.loc 11 190 5 view .LVU58
 307 0018 2046     		mov	r0, r4
 308 001a 10BD     		pop	{r4, pc}
 309              		.loc 11 190 5 view .LVU59
 310              		.cfi_endproc
 311              	.LFE4794:
 313              		.weak	_ZN17ConvolutionReverbD1Ev
 314              		.thumb_set _ZN17ConvolutionReverbD1Ev,_ZN17ConvolutionReverbD2Ev
 315              		.section	.text._ZN5daisy11OledDisplayINS_13SSD130xDriverILj128ELj64ENS_24SSD130x4WireSpiTransportE
 316              		.align	1
 317              		.p2align 2,,3
 318              		.weak	_ZN5daisy11OledDisplayINS_13SSD130xDriverILj128ELj64ENS_24SSD130x4WireSpiTransportEEEED0Ev
 319              		.syntax unified
 320              		.thumb
 321              		.thumb_func
 322              		.fpu fpv5-d16
 324              	_ZN5daisy11OledDisplayINS_13SSD130xDriverILj128ELj64ENS_24SSD130x4WireSpiTransportEEEED0Ev:
 325              	.LVL15:
 326              	.LFB5445:
  18:/home/ubuntu/DaisyExamples/libDaisy/src/hid/disp/oled_display.h **** 
 327              		.loc 2 18 13 is_stmt 1 view -0
 328              		.cfi_startproc
 329              		@ args = 0, pretend = 0, frame = 0
 330              		@ frame_needed = 0, uses_anonymous_args = 0
  18:/home/ubuntu/DaisyExamples/libDaisy/src/hid/disp/oled_display.h **** 
 331              		.loc 2 18 13 is_stmt 0 view .LVU61
 332 0000 10B5     		push	{r4, lr}
 333              		.cfi_def_cfa_offset 8
 334              		.cfi_offset 4, -8
 335              		.cfi_offset 14, -4
  18:/home/ubuntu/DaisyExamples/libDaisy/src/hid/disp/oled_display.h **** 
 336              		.loc 2 18 13 view .LVU62
 337 0002 0446     		mov	r4, r0
 338              	.LVL16:
 339              	.LBB679:
 340              	.LBI679:
  18:/home/ubuntu/DaisyExamples/libDaisy/src/hid/disp/oled_display.h **** 
 341              		.loc 2 18 13 is_stmt 1 view .LVU63
 342              	.LBB680:
 343              	.LBI680:
 344              		.loc 10 219 13 view .LVU64
 345              	.LBB681:
 346              	.LBI681:
  23:/home/ubuntu/DaisyExamples/libDaisy/src/hid/disp/display.h **** 
 347              		.loc 10 23 13 view .LVU65
  23:/home/ubuntu/DaisyExamples/libDaisy/src/hid/disp/display.h **** 
 348              		.loc 10 23 13 is_stmt 0 view .LVU66
 349              	.LBE681:
 350              	.LBE680:
 351              	.LBE679:
  18:/home/ubuntu/DaisyExamples/libDaisy/src/hid/disp/oled_display.h **** 
 352              		.loc 2 18 29 view .LVU67
 353 0004 40F21441 		movw	r1, #1044
 354 0008 FFF7FEFF 		bl	_ZdlPvj
 355              	.LVL17:
ARM GAS  /tmp/ccBh0qTK.s 			page 45


  18:/home/ubuntu/DaisyExamples/libDaisy/src/hid/disp/oled_display.h **** 
 356              		.loc 2 18 29 view .LVU68
 357 000c 2046     		mov	r0, r4
 358 000e 10BD     		pop	{r4, pc}
  18:/home/ubuntu/DaisyExamples/libDaisy/src/hid/disp/oled_display.h **** 
 359              		.loc 2 18 29 view .LVU69
 360              		.cfi_endproc
 361              	.LFE5445:
 363              		.section	.text._ZN8IRLoader10LoadIRFileEPKcPfPjj.part.0,"ax",%progbits
 364              		.align	1
 365              		.p2align 2,,3
 366              		.syntax unified
 367              		.thumb
 368              		.thumb_func
 369              		.fpu fpv5-d16
 371              	_ZN8IRLoader10LoadIRFileEPKcPfPjj.part.0:
 372              	.LVL18:
 373              	.LFB5457:
 374              		.file 14 "IRLoader.h"
   1:IRLoader.h    **** #pragma once
   2:IRLoader.h    **** 
   3:IRLoader.h    **** #include "daisy_seed.h"
   4:IRLoader.h    **** #include <string>
   5:IRLoader.h    **** 
   6:IRLoader.h    **** using namespace daisy;
   7:IRLoader.h    **** 
   8:IRLoader.h    **** // Class for handling USB drive mounting and IR file loading
   9:IRLoader.h    **** class IRLoader {
  10:IRLoader.h    **** public:
  11:IRLoader.h    ****     IRLoader() : usbh_(nullptr), usbMounted_(false) {}
  12:IRLoader.h    ****     
  13:IRLoader.h    ****     void Init() {
  14:IRLoader.h    ****         // Initialize USB Host
  15:IRLoader.h    ****         usbh_ = new USBHostHandle();
  16:IRLoader.h    ****         USBHostHandle::Config usbConfig;
  17:IRLoader.h    ****         usbh_->Init(usbConfig);
  18:IRLoader.h    ****     }
  19:IRLoader.h    ****     
  20:IRLoader.h    ****     void StartUSB() {
  21:IRLoader.h    ****         if (usbh_) {
  22:IRLoader.h    ****             // Process USB events to start
  23:IRLoader.h    ****             usbh_->Process();
  24:IRLoader.h    ****         }
  25:IRLoader.h    ****     }
  26:IRLoader.h    ****     
  27:IRLoader.h    ****     void Process() {
  28:IRLoader.h    ****         if (usbh_) {
  29:IRLoader.h    ****             // Process USB events
  30:IRLoader.h    ****             usbh_->Process();
  31:IRLoader.h    ****             
  32:IRLoader.h    ****             // Check if USB drive is mounted
  33:IRLoader.h    ****             bool newMounted = usbh_->GetReady();
  34:IRLoader.h    ****             if (newMounted != usbMounted_) {
  35:IRLoader.h    ****                 usbMounted_ = newMounted;
  36:IRLoader.h    ****                 // Handle mount/unmount events here if needed
  37:IRLoader.h    ****             }
  38:IRLoader.h    ****         }
ARM GAS  /tmp/ccBh0qTK.s 			page 46


  39:IRLoader.h    ****     }
  40:IRLoader.h    ****     
  41:IRLoader.h    ****     bool IsUSBMounted() const {
  42:IRLoader.h    ****         return usbMounted_;
  43:IRLoader.h    ****     }
  44:IRLoader.h    ****     
  45:IRLoader.h    ****     // Load IR file from USB drive
  46:IRLoader.h    ****     bool LoadIRFile(const char* filename, float* buffer, size_t* length, size_t maxLength) {
 375              		.loc 14 46 10 is_stmt 1 view -0
 376              		.cfi_startproc
 377              		@ args = 0, pretend = 0, frame = 560
 378              		@ frame_needed = 0, uses_anonymous_args = 0
  47:IRLoader.h    ****         if (!usbMounted_ || !usbh_) {
  48:IRLoader.h    ****             return false;
  49:IRLoader.h    ****         }
  50:IRLoader.h    ****         
  51:IRLoader.h    ****         // Open file
  52:IRLoader.h    ****         FIL file;
 379              		.loc 14 52 9 view .LVU71
  53:IRLoader.h    ****         FRESULT result = f_open(&file, filename, FA_READ);
 380              		.loc 14 53 9 view .LVU72
  46:IRLoader.h    ****         if (!usbMounted_ || !usbh_) {
 381              		.loc 14 46 10 is_stmt 0 view .LVU73
 382 0000 70B5     		push	{r4, r5, r6, lr}
 383              		.cfi_def_cfa_offset 16
 384              		.cfi_offset 4, -16
 385              		.cfi_offset 5, -12
 386              		.cfi_offset 6, -8
 387              		.cfi_offset 14, -4
 388 0002 ADF50C7D 		sub	sp, sp, #560
 389              		.cfi_def_cfa_offset 576
  46:IRLoader.h    ****         if (!usbMounted_ || !usbh_) {
 390              		.loc 14 46 10 view .LVU74
 391 0006 0D46     		mov	r5, r1
 392 0008 1646     		mov	r6, r2
 393              		.loc 14 53 32 view .LVU75
 394 000a 0146     		mov	r1, r0
 395              	.LVL19:
 396              		.loc 14 53 32 view .LVU76
 397 000c 0122     		movs	r2, #1
 398              	.LVL20:
 399              		.loc 14 53 32 view .LVU77
 400 000e 01A8     		add	r0, sp, #4
 401              	.LVL21:
  46:IRLoader.h    ****         if (!usbMounted_ || !usbh_) {
 402              		.loc 14 46 10 view .LVU78
 403 0010 1C46     		mov	r4, r3
 404              		.loc 14 53 32 view .LVU79
 405 0012 FFF7FEFF 		bl	f_open
 406              	.LVL22:
  54:IRLoader.h    ****         if (result != FR_OK) {
 407              		.loc 14 54 9 is_stmt 1 view .LVU80
 408 0016 18B1     		cbz	r0, .L21
 409              	.LVL23:
 410              	.L23:
  55:IRLoader.h    ****             return false;
 411              		.loc 14 55 20 is_stmt 0 view .LVU81
ARM GAS  /tmp/ccBh0qTK.s 			page 47


 412 0018 0020     		movs	r0, #0
  56:IRLoader.h    ****         }
  57:IRLoader.h    ****         
  58:IRLoader.h    ****         // Get file size
  59:IRLoader.h    ****         FSIZE_t fileSize = f_size(&file);
  60:IRLoader.h    ****         size_t numSamples = fileSize / sizeof(float);
  61:IRLoader.h    ****         
  62:IRLoader.h    ****         // Check if buffer is large enough
  63:IRLoader.h    ****         if (numSamples > maxLength) {
  64:IRLoader.h    ****             numSamples = maxLength;
  65:IRLoader.h    ****         }
  66:IRLoader.h    ****         
  67:IRLoader.h    ****         // Read file
  68:IRLoader.h    ****         UINT bytesRead;
  69:IRLoader.h    ****         result = f_read(&file, buffer, numSamples * sizeof(float), &bytesRead);
  70:IRLoader.h    ****         f_close(&file);
  71:IRLoader.h    ****         
  72:IRLoader.h    ****         if (result != FR_OK) {
  73:IRLoader.h    ****             return false;
  74:IRLoader.h    ****         }
  75:IRLoader.h    ****         
  76:IRLoader.h    ****         // Update length
  77:IRLoader.h    ****         *length = bytesRead / sizeof(float);
  78:IRLoader.h    ****         
  79:IRLoader.h    ****         return true;
  80:IRLoader.h    ****     }
 413              		.loc 14 80 5 view .LVU82
 414 001a 0DF50C7D 		add	sp, sp, #560
 415              		.cfi_remember_state
 416              		.cfi_def_cfa_offset 16
 417              		@ sp needed
 418 001e 70BD     		pop	{r4, r5, r6, pc}
 419              	.LVL24:
 420              	.L21:
 421              		.cfi_restore_state
  59:IRLoader.h    ****         size_t numSamples = fileSize / sizeof(float);
 422              		.loc 14 59 9 is_stmt 1 view .LVU83
  60:IRLoader.h    ****         
 423              		.loc 14 60 9 view .LVU84
  60:IRLoader.h    ****         
 424              		.loc 14 60 16 is_stmt 0 view .LVU85
 425 0020 049B     		ldr	r3, [sp, #16]
  69:IRLoader.h    ****         f_close(&file);
 426              		.loc 14 69 24 view .LVU86
 427 0022 2946     		mov	r1, r5
 428 0024 01A8     		add	r0, sp, #4
 429              	.LVL25:
  60:IRLoader.h    ****         
 430              		.loc 14 60 16 view .LVU87
 431 0026 9B08     		lsrs	r3, r3, #2
 432              	.LVL26:
  63:IRLoader.h    ****             numSamples = maxLength;
 433              		.loc 14 63 9 is_stmt 1 view .LVU88
  68:IRLoader.h    ****         result = f_read(&file, buffer, numSamples * sizeof(float), &bytesRead);
 434              		.loc 14 68 9 view .LVU89
  69:IRLoader.h    ****         f_close(&file);
 435              		.loc 14 69 9 view .LVU90
ARM GAS  /tmp/ccBh0qTK.s 			page 48


  69:IRLoader.h    ****         f_close(&file);
 436              		.loc 14 69 24 is_stmt 0 view .LVU91
 437 0028 A342     		cmp	r3, r4
 438 002a 28BF     		it	cs
 439 002c 2346     		movcs	r3, r4
 440              	.LVL27:
  69:IRLoader.h    ****         f_close(&file);
 441              		.loc 14 69 24 view .LVU92
 442 002e 9A00     		lsls	r2, r3, #2
 443 0030 6B46     		mov	r3, sp
 444 0032 FFF7FEFF 		bl	f_read
 445              	.LVL28:
  69:IRLoader.h    ****         f_close(&file);
 446              		.loc 14 69 24 view .LVU93
 447 0036 0446     		mov	r4, r0
 448              	.LVL29:
  70:IRLoader.h    ****         
 449              		.loc 14 70 16 view .LVU94
 450 0038 01A8     		add	r0, sp, #4
 451              	.LVL30:
  70:IRLoader.h    ****         
 452              		.loc 14 70 9 is_stmt 1 view .LVU95
  70:IRLoader.h    ****         
 453              		.loc 14 70 16 is_stmt 0 view .LVU96
 454 003a FFF7FEFF 		bl	f_close
 455              	.LVL31:
  72:IRLoader.h    ****             return false;
 456              		.loc 14 72 9 is_stmt 1 view .LVU97
 457 003e 002C     		cmp	r4, #0
 458 0040 EAD1     		bne	.L23
  77:IRLoader.h    ****         
 459              		.loc 14 77 9 view .LVU98
  77:IRLoader.h    ****         
 460              		.loc 14 77 29 is_stmt 0 view .LVU99
 461 0042 009B     		ldr	r3, [sp]
  79:IRLoader.h    ****     }
 462              		.loc 14 79 16 view .LVU100
 463 0044 0120     		movs	r0, #1
  77:IRLoader.h    ****         
 464              		.loc 14 77 29 view .LVU101
 465 0046 9B08     		lsrs	r3, r3, #2
  77:IRLoader.h    ****         
 466              		.loc 14 77 17 view .LVU102
 467 0048 3360     		str	r3, [r6]
  79:IRLoader.h    ****     }
 468              		.loc 14 79 9 is_stmt 1 view .LVU103
 469              		.loc 14 80 5 is_stmt 0 view .LVU104
 470 004a 0DF50C7D 		add	sp, sp, #560
 471              		.cfi_def_cfa_offset 16
 472              		@ sp needed
 473 004e 70BD     		pop	{r4, r5, r6, pc}
 474              		.loc 14 80 5 view .LVU105
 475              		.cfi_endproc
 476              	.LFE5457:
 478              		.section	.text._ZN16InverseTransformIfLj9E9LutPhasorIfLj9EEEclEPfS3_PKhPS1_j.isra.0,"axG",%progbit
 479              		.align	1
 480              		.p2align 2,,3
ARM GAS  /tmp/ccBh0qTK.s 			page 49


 481              		.syntax unified
 482              		.thumb
 483              		.thumb_func
 484              		.fpu fpv5-d16
 486              	_ZN16InverseTransformIfLj9E9LutPhasorIfLj9EEEclEPfS3_PKhPS1_j.isra.0:
 487              	.LVL32:
 488              	.LFB5469:
 665:shy_fft.h     ****                     T*             output,
 489              		.loc 13 665 10 is_stmt 1 view -0
 490              		.cfi_startproc
 491              		@ args = 4, pretend = 0, frame = 88
 492              		@ frame_needed = 0, uses_anonymous_args = 0
 665:shy_fft.h     ****                     T*             output,
 493              		.loc 13 665 10 is_stmt 0 view .LVU107
 494 0000 2DE9F04F 		push	{r4, r5, r6, r7, r8, r9, r10, fp, lr}
 495              		.cfi_def_cfa_offset 36
 496              		.cfi_offset 4, -36
 497              		.cfi_offset 5, -32
 498              		.cfi_offset 6, -28
 499              		.cfi_offset 7, -24
 500              		.cfi_offset 8, -20
 501              		.cfi_offset 9, -16
 502              		.cfi_offset 10, -12
 503              		.cfi_offset 11, -8
 504              		.cfi_offset 14, -4
 505 0004 97B0     		sub	sp, sp, #92
 506              		.cfi_def_cfa_offset 128
 665:shy_fft.h     ****                     T*             output,
 507              		.loc 13 665 10 view .LVU108
 508 0006 1592     		str	r2, [sp, #84]
 509 0008 1293     		str	r3, [sp, #72]
 675:shy_fft.h     **** 
 510              		.loc 13 675 28 view .LVU109
 511 000a 0123     		movs	r3, #1
 512              	.LVL33:
 675:shy_fft.h     **** 
 513              		.loc 13 675 28 view .LVU110
 514 000c 209A     		ldr	r2, [sp, #128]
 515              	.LVL34:
 675:shy_fft.h     **** 
 516              		.loc 13 675 28 view .LVU111
 517 000e 9340     		lsls	r3, r3, r2
 518 0010 0793     		str	r3, [sp, #28]
 519              	.LBB708:
 678:shy_fft.h     ****         {
 520              		.loc 13 678 20 view .LVU112
 521 0012 531E     		subs	r3, r2, #1
 678:shy_fft.h     ****         {
 522              		.loc 13 678 51 view .LVU113
 523 0014 022B     		cmp	r3, #2
 524              	.LBE708:
 665:shy_fft.h     ****                     T*             output,
 525              		.loc 13 665 10 view .LVU114
 526 0016 CDE91310 		strd	r1, r0, [sp, #76]
 527              	.LVL35:
 528              	.LBB778:
 678:shy_fft.h     ****         {
ARM GAS  /tmp/ccBh0qTK.s 			page 50


 529              		.loc 13 678 51 is_stmt 1 view .LVU115
 530 001a 40F28581 		bls	.L39
 531 001e 931E     		subs	r3, r2, #2
 532              	.LVL36:
 678:shy_fft.h     ****         {
 533              		.loc 13 678 51 is_stmt 0 view .LVU116
 534              	.LBE778:
 671:shy_fft.h     ****         T*      d = output;
 535              		.loc 13 671 17 view .LVU117
 536 0020 8246     		mov	r10, r0
 537              	.LBB779:
 678:shy_fft.h     ****         {
 538              		.loc 13 678 51 view .LVU118
 539 0022 1091     		str	r1, [sp, #64]
 540 0024 1193     		str	r3, [sp, #68]
 541              	.LVL37:
 542              	.L32:
 678:shy_fft.h     ****         {
 543              		.loc 13 678 51 view .LVU119
 544 0026 1199     		ldr	r1, [sp, #68]
 545              	.LBB709:
 680:shy_fft.h     ****             size_t n_2 = n >> 1;
 546              		.loc 13 680 28 view .LVU120
 547 0028 0123     		movs	r3, #1
 548              	.LBB710:
 683:shy_fft.h     ****             {
 549              		.loc 13 683 33 view .LVU121
 550 002a 079C     		ldr	r4, [sp, #28]
 551 002c 4A1C     		adds	r2, r1, #1
 552              	.LVL38:
 683:shy_fft.h     ****             {
 553              		.loc 13 683 33 view .LVU122
 554              	.LBE710:
 680:shy_fft.h     ****             size_t n_2 = n >> 1;
 555              		.loc 13 680 28 view .LVU123
 556 002e 03FA02F9 		lsl	r9, r3, r2
 557              	.LVL39:
 681:shy_fft.h     **** 
 558              		.loc 13 681 20 view .LVU124
 559 0032 29FA03F0 		lsr	r0, r9, r3
 560 0036 0890     		str	r0, [sp, #32]
 561              	.LVL40:
 562              	.LBB771:
 683:shy_fft.h     ****             {
 563              		.loc 13 683 33 is_stmt 1 view .LVU125
 564 0038 002C     		cmp	r4, #0
 565 003a 00F0B280 		beq	.L27
 566              	.LBB711:
 567              	.LBB712:
 568              	.LBB713:
 180:shy_fft.h     ****         cos_ptr_         = &trig_lut_[pass_size - 4 + 1];
 569              		.loc 13 180 30 is_stmt 0 view .LVU126
 570 003e 8B40     		lsls	r3, r3, r1
 571              	.LBE713:
 572              	.LBE712:
 686:shy_fft.h     ****                 T* d1r = d + i;
 573              		.loc 13 686 29 view .LVU127
ARM GAS  /tmp/ccBh0qTK.s 			page 51


 574 0040 0421     		movs	r1, #4
 575 0042 01FA02F4 		lsl	r4, r1, r2
 576              	.LBB720:
 577              	.LBB714:
 182:shy_fft.h     ****     }
 578              		.loc 13 182 38 view .LVU128
 579 0046 1299     		ldr	r1, [sp, #72]
 580 0048 01EBC302 		add	r2, r1, r3, lsl #3
 581              	.LVL41:
 181:shy_fft.h     ****         sin_ptr_         = &trig_lut_[pass_size + pass_size - 4 - 1];
 582              		.loc 13 181 53 view .LVU129
 583 004c 033B     		subs	r3, r3, #3
 584              	.LBE714:
 585              	.LBE720:
 686:shy_fft.h     ****                 T* d1r = d + i;
 586              		.loc 13 686 29 view .LVU130
 587 004e 0994     		str	r4, [sp, #36]
 588              	.LBB721:
 589              	.LBB715:
 182:shy_fft.h     ****     }
 590              		.loc 13 182 38 view .LVU131
 591 0050 A2F11405 		sub	r5, r2, #20
 592              	.LBE715:
 593              	.LBE721:
 594              	.LBB722:
 595              	.LBB723:
 596              	.LBB724:
 597              	.LBB725:
 188:shy_fft.h     ****     }
 598              		.loc 13 188 9 view .LVU132
 599 0054 C0EB8072 		rsb	r2, r0, r0, lsl #30
 600              	.LBE725:
 601              	.LBE724:
 602              	.LBE723:
 603              	.LBE722:
 604              	.LBB753:
 605              	.LBB716:
 181:shy_fft.h     ****         sin_ptr_         = &trig_lut_[pass_size + pass_size - 4 - 1];
 606              		.loc 13 181 38 view .LVU133
 607 0058 01EB8306 		add	r6, r1, r3, lsl #2
 608 005c 231D     		adds	r3, r4, #4
 609              	.LBE716:
 610              	.LBE753:
 611              	.LBB754:
 612              	.LBB745:
 613              	.LBB732:
 614              	.LBB726:
 188:shy_fft.h     ****     }
 615              		.loc 13 188 9 view .LVU134
 616 005e 05EB8202 		add	r2, r5, r2, lsl #2
 617 0062 1099     		ldr	r1, [sp, #64]
 618 0064 0AEB030B 		add	fp, r10, r3
 619              	.LBE726:
 620              	.LBE732:
 621              	.LBE745:
 622              	.LBE754:
 623              	.LBB755:
ARM GAS  /tmp/ccBh0qTK.s 			page 52


 624              	.LBB717:
 182:shy_fft.h     ****     }
 625              		.loc 13 182 38 view .LVU135
 626 0068 0C95     		str	r5, [sp, #48]
 627              	.LBE717:
 628              	.LBE755:
 629              	.LBB756:
 630              	.LBB746:
 631              	.LBB733:
 632              	.LBB727:
 188:shy_fft.h     ****     }
 633              		.loc 13 188 9 view .LVU136
 634 006a 0432     		adds	r2, r2, #4
 635 006c 0AEB8005 		add	r5, r10, r0, lsl #2
 636              	.LBE727:
 637              	.LBE733:
 638              	.LBE746:
 639              	.LBE756:
 640              	.LBB757:
 641              	.LBB718:
 181:shy_fft.h     ****         sin_ptr_         = &trig_lut_[pass_size + pass_size - 4 - 1];
 642              		.loc 13 181 38 view .LVU137
 643 0070 0B96     		str	r6, [sp, #44]
 644              	.LBE718:
 645              	.LBE757:
 646              	.LBB758:
 647              	.LBB747:
 648              	.LBB734:
 649              	.LBB728:
 188:shy_fft.h     ****     }
 650              		.loc 13 188 9 view .LVU138
 651 0072 0E92     		str	r2, [sp, #56]
 652 0074 03EB8002 		add	r2, r3, r0, lsl #2
 653 0078 CB18     		adds	r3, r1, r3
 654 007a A846     		mov	r8, r5
 655 007c 8A18     		adds	r2, r1, r2
 656 007e 0595     		str	r5, [sp, #20]
 657 0080 0193     		str	r3, [sp, #4]
 658 0082 6300     		lsls	r3, r4, #1
 659 0084 0292     		str	r2, [sp, #8]
 187:shy_fft.h     ****         --sin_ptr_;
 660              		.loc 13 187 9 view .LVU139
 661 0086 421E     		subs	r2, r0, #1
 662 0088 0F93     		str	r3, [sp, #60]
 663              	.LBE728:
 664              	.LBE734:
 665              	.LBE747:
 666              	.LBE758:
 667              	.LBE711:
 683:shy_fft.h     ****             {
 668              		.loc 13 683 24 view .LVU140
 669 008a 0023     		movs	r3, #0
 670              	.LBB767:
 671              	.LBB759:
 672              	.LBB748:
 673              	.LBB735:
 674              	.LBB729:
ARM GAS  /tmp/ccBh0qTK.s 			page 53


 187:shy_fft.h     ****         --sin_ptr_;
 675              		.loc 13 187 9 view .LVU141
 676 008c 06EB8202 		add	r2, r6, r2, lsl #2
 677              	.LBE729:
 678              	.LBE735:
 679              	.LBE748:
 680              	.LBE759:
 681              	.LBE767:
 683:shy_fft.h     ****             {
 682              		.loc 13 683 24 view .LVU142
 683 0090 0693     		str	r3, [sp, #24]
 684              	.LBB768:
 685              	.LBB760:
 686              	.LBB749:
 687              	.LBB736:
 688              	.LBB730:
 187:shy_fft.h     ****         --sin_ptr_;
 689              		.loc 13 187 9 view .LVU143
 690 0092 0D92     		str	r2, [sp, #52]
 691              	.LBE730:
 692              	.LBE736:
 693              	.LBE749:
 694              	.LBE760:
 695              	.LBE768:
 683:shy_fft.h     ****             {
 696              		.loc 13 683 52 view .LVU144
 697 0094 4FEA4902 		lsl	r2, r9, #1
 698 0098 4FEAC909 		lsl	r9, r9, #3
 699              	.LVL42:
 683:shy_fft.h     ****             {
 700              		.loc 13 683 52 view .LVU145
 701 009c 0A92     		str	r2, [sp, #40]
 702 009e 01EB8002 		add	r2, r1, r0, lsl #2
 703 00a2 0492     		str	r2, [sp, #16]
 704 00a4 0A1D     		adds	r2, r1, #4
 705 00a6 0392     		str	r2, [sp, #12]
 706              	.LVL43:
 707              	.L30:
 708              	.LBB769:
 690:shy_fft.h     ****                 d2r[0]   = sr[0] - si[0];
 709              		.loc 13 690 34 view .LVU146
 710 00a8 1BED017A 		vldr.32	s14, [fp, #-4]
 711 00ac DAED007A 		vldr.32	s15, [r10]
 690:shy_fft.h     ****                 d2r[0]   = sr[0] - si[0];
 712              		.loc 13 690 26 view .LVU147
 713 00b0 039C     		ldr	r4, [sp, #12]
 690:shy_fft.h     ****                 d2r[0]   = sr[0] - si[0];
 714              		.loc 13 690 34 view .LVU148
 715 00b2 77EE877A 		vadd.f32	s15, s15, s14
 692:shy_fft.h     ****                 d2r[n_2] = si[n_2] * T(2);
 716              		.loc 13 692 36 view .LVU149
 717 00b6 059B     		ldr	r3, [sp, #20]
 691:shy_fft.h     ****                 d1r[n_2] = sr[n_2] * T(2);
 718              		.loc 13 691 26 view .LVU150
 719 00b8 019D     		ldr	r5, [sp, #4]
 693:shy_fft.h     **** 
 720              		.loc 13 693 30 view .LVU151
ARM GAS  /tmp/ccBh0qTK.s 			page 54


 721 00ba 099A     		ldr	r2, [sp, #36]
 690:shy_fft.h     ****                 d2r[0]   = sr[0] - si[0];
 722              		.loc 13 690 26 view .LVU152
 723 00bc 44ED017A 		vstr.32	s15, [r4, #-4]
 691:shy_fft.h     ****                 d1r[n_2] = sr[n_2] * T(2);
 724              		.loc 13 691 34 view .LVU153
 725 00c0 DAED007A 		vldr.32	s15, [r10]
 726 00c4 1BED017A 		vldr.32	s14, [fp, #-4]
 692:shy_fft.h     ****                 d2r[n_2] = si[n_2] * T(2);
 727              		.loc 13 692 26 view .LVU154
 728 00c8 0499     		ldr	r1, [sp, #16]
 691:shy_fft.h     ****                 d1r[n_2] = sr[n_2] * T(2);
 729              		.loc 13 691 34 view .LVU155
 730 00ca 77EEC77A 		vsub.f32	s15, s15, s14
 693:shy_fft.h     **** 
 731              		.loc 13 693 26 view .LVU156
 732 00ce 029E     		ldr	r6, [sp, #8]
 691:shy_fft.h     ****                 d1r[n_2] = sr[n_2] * T(2);
 733              		.loc 13 691 26 view .LVU157
 734 00d0 45ED017A 		vstr.32	s15, [r5, #-4]
 692:shy_fft.h     ****                 d2r[n_2] = si[n_2] * T(2);
 735              		.loc 13 692 36 view .LVU158
 736 00d4 D3ED007A 		vldr.32	s15, [r3]
 693:shy_fft.h     **** 
 737              		.loc 13 693 30 view .LVU159
 738 00d8 1344     		add	r3, r3, r2
 739 00da 5244     		add	r2, r2, r10
 740              	.LVL44:
 741              	.LBB761:
 742              	.LBI712:
 178:shy_fft.h     ****     {
 743              		.loc 13 178 17 is_stmt 1 view .LVU160
 178:shy_fft.h     ****     {
 744              		.loc 13 178 17 is_stmt 0 view .LVU161
 745              	.LBE761:
 746              	.LBB762:
 698:shy_fft.h     ****                 {
 747              		.loc 13 698 37 is_stmt 1 view .LVU162
 748              	.LBE762:
 692:shy_fft.h     ****                 d2r[n_2] = si[n_2] * T(2);
 749              		.loc 13 692 36 is_stmt 0 view .LVU163
 750 00dc 77EEA77A 		vadd.f32	s15, s15, s15
 692:shy_fft.h     ****                 d2r[n_2] = si[n_2] * T(2);
 751              		.loc 13 692 26 view .LVU164
 752 00e0 C1ED007A 		vstr.32	s15, [r1]
 693:shy_fft.h     **** 
 753              		.loc 13 693 36 view .LVU165
 754 00e4 D3ED007A 		vldr.32	s15, [r3]
 755              	.LBB763:
 698:shy_fft.h     ****                 {
 756              		.loc 13 698 37 view .LVU166
 757 00e8 089B     		ldr	r3, [sp, #32]
 758              	.LBE763:
 693:shy_fft.h     **** 
 759              		.loc 13 693 36 view .LVU167
 760 00ea 77EEA77A 		vadd.f32	s15, s15, s15
 761              	.LBB764:
ARM GAS  /tmp/ccBh0qTK.s 			page 55


 698:shy_fft.h     ****                 {
 762              		.loc 13 698 37 view .LVU168
 763 00ee 012B     		cmp	r3, #1
 764              	.LBE764:
 693:shy_fft.h     **** 
 765              		.loc 13 693 26 view .LVU169
 766 00f0 46ED017A 		vstr.32	s15, [r6, #-4]
 767              	.LBB765:
 698:shy_fft.h     ****                 {
 768              		.loc 13 698 37 view .LVU170
 769 00f4 63D9     		bls	.L40
 770 00f6 0F98     		ldr	r0, [sp, #60]
 771 00f8 01F1040E 		add	lr, r1, #4
 772 00fc 0AF10403 		add	r3, r10, #4
 773 0100 5044     		add	r0, r10, r0
 774 0102 DDE90BC1 		ldrd	ip, r1, [sp, #44]
 775              	.LVL45:
 698:shy_fft.h     ****                 {
 776              		.loc 13 698 37 view .LVU171
 777 0106 0F1D     		adds	r7, r1, #4
 778 0108 5946     		mov	r1, fp
 779              	.LVL46:
 780              	.L29:
 781              	.LBB750:
 700:shy_fft.h     ****                     d1i[j] = si[j] - si[n - j];
 782              		.loc 13 700 32 view .LVU172
 783 010a 93ED007A 		vldr.32	s14, [r3]
 700:shy_fft.h     ****                     d1i[j] = si[j] - si[n - j];
 784              		.loc 13 700 36 view .LVU173
 785 010e 72ED017A 		vldmdb.32	r2!, {s15}
 786 0112 77EE877A 		vadd.f32	s15, s15, s14
 700:shy_fft.h     ****                     d1i[j] = si[j] - si[n - j];
 787              		.loc 13 700 28 view .LVU174
 788 0116 E4EC017A 		vstmia.32	r4!, {s15}
 701:shy_fft.h     **** 
 789              		.loc 13 701 36 view .LVU175
 790 011a 30ED017A 		vldmdb.32	r0!, {s14}
 701:shy_fft.h     **** 
 791              		.loc 13 701 32 view .LVU176
 792 011e D1ED007A 		vldr.32	s15, [r1]
 701:shy_fft.h     **** 
 793              		.loc 13 701 36 view .LVU177
 794 0122 77EEC77A 		vsub.f32	s15, s15, s14
 701:shy_fft.h     **** 
 795              		.loc 13 701 28 view .LVU178
 796 0126 EEEC017A 		vstmia.32	lr!, {s15}
 797              	.LBB737:
 798              	.LBI737:
 191:shy_fft.h     ****     inline T sin() const { return *sin_ptr_; }
 799              		.loc 13 191 14 is_stmt 1 view .LVU179
 800              	.LBE737:
 705:shy_fft.h     ****                     T vi = si[j] + si[n - j];
 801              		.loc 13 705 23 is_stmt 0 view .LVU180
 802 012a B3EC017A 		vldmia.32	r3!, {s14}
 803 012e D2ED005A 		vldr.32	s11, [r2]
 706:shy_fft.h     **** 
 804              		.loc 13 706 23 view .LVU181
ARM GAS  /tmp/ccBh0qTK.s 			page 56


 805 0132 90ED006A 		vldr.32	s12, [r0]
 806              	.LBE750:
 698:shy_fft.h     ****                 {
 807              		.loc 13 698 37 view .LVU182
 808 0136 4345     		cmp	r3, r8
 809              	.LBB751:
 706:shy_fft.h     **** 
 810              		.loc 13 706 23 view .LVU183
 811 0138 F1EC016A 		vldmia.32	r1!, {s13}
 705:shy_fft.h     ****                     T vi = si[j] + si[n - j];
 812              		.loc 13 705 23 view .LVU184
 813 013c 37EE657A 		vsub.f32	s14, s14, s11
 814              	.LBB739:
 815              	.LBB740:
 192:shy_fft.h     **** 
 816              		.loc 13 192 36 view .LVU185
 817 0140 77ED017A 		vldmdb.32	r7!, {s15}
 818              	.LBE740:
 819              	.LBE739:
 706:shy_fft.h     **** 
 820              		.loc 13 706 23 view .LVU186
 821 0144 76EE866A 		vadd.f32	s13, s13, s12
 822              	.LBB741:
 823              	.LBB738:
 191:shy_fft.h     ****     inline T sin() const { return *sin_ptr_; }
 824              		.loc 13 191 36 view .LVU187
 825 0148 FCEC015A 		vldmia.32	ip!, {s11}
 826              	.LVL47:
 191:shy_fft.h     ****     inline T sin() const { return *sin_ptr_; }
 827              		.loc 13 191 36 view .LVU188
 828              	.LBE738:
 829              	.LBE741:
 830              	.LBB742:
 831              	.LBI739:
 192:shy_fft.h     **** 
 832              		.loc 13 192 14 is_stmt 1 view .LVU189
 192:shy_fft.h     **** 
 833              		.loc 13 192 14 is_stmt 0 view .LVU190
 834              	.LBE742:
 709:shy_fft.h     ****                     phasor->Rotate();
 835              		.loc 13 709 37 view .LVU191
 836 014c 27EE676A 		vnmul.f32	s12, s14, s15
 708:shy_fft.h     ****                     d2i[j] = vi * c - vr * s;
 837              		.loc 13 708 42 view .LVU192
 838 0150 67EEA67A 		vmul.f32	s15, s15, s13
 839              	.LVL48:
 709:shy_fft.h     ****                     phasor->Rotate();
 840              		.loc 13 709 37 view .LVU193
 841 0154 A5EEA66A 		vfma.f32	s12, s11, s13
 708:shy_fft.h     ****                     d2i[j] = vi * c - vr * s;
 842              		.loc 13 708 37 view .LVU194
 843 0158 E5EE877A 		vfma.f32	s15, s11, s14
 708:shy_fft.h     ****                     d2i[j] = vi * c - vr * s;
 844              		.loc 13 708 28 view .LVU195
 845 015c E5EC017A 		vstmia.32	r5!, {s15}
 846              	.LVL49:
 709:shy_fft.h     ****                     phasor->Rotate();
ARM GAS  /tmp/ccBh0qTK.s 			page 57


 847              		.loc 13 709 28 view .LVU196
 848 0160 A6EC016A 		vstmia.32	r6!, {s12}
 849              	.LBB743:
 850              	.LBI724:
 185:shy_fft.h     ****     {
 851              		.loc 13 185 17 is_stmt 1 view .LVU197
 852              	.LBE743:
 853              	.LBE751:
 698:shy_fft.h     ****                 {
 854              		.loc 13 698 17 view .LVU198
 698:shy_fft.h     ****                 {
 855              		.loc 13 698 37 view .LVU199
 856 0164 D1D1     		bne	.L29
 857              	.LBB752:
 858              	.LBB744:
 859              	.LBB731:
 187:shy_fft.h     ****         --sin_ptr_;
 860              		.loc 13 187 9 is_stmt 0 view .LVU200
 861 0166 DDE90D23 		ldrd	r2, r3, [sp, #52]
 862              	.LVL50:
 863              	.L28:
 187:shy_fft.h     ****         --sin_ptr_;
 864              		.loc 13 187 9 view .LVU201
 865              	.LBE731:
 866              	.LBE744:
 867              	.LBE752:
 868              	.LBE765:
 869              	.LBE769:
 683:shy_fft.h     ****             {
 870              		.loc 13 683 13 is_stmt 1 view .LVU202
 683:shy_fft.h     ****             {
 871              		.loc 13 683 46 is_stmt 0 view .LVU203
 872 016a 0699     		ldr	r1, [sp, #24]
 683:shy_fft.h     ****             {
 873              		.loc 13 683 33 view .LVU204
 874 016c CA44     		add	r10, r10, r9
 875              	.LVL51:
 683:shy_fft.h     ****             {
 876              		.loc 13 683 46 view .LVU205
 877 016e 0A98     		ldr	r0, [sp, #40]
 683:shy_fft.h     ****             {
 878              		.loc 13 683 33 view .LVU206
 879 0170 CB44     		add	fp, fp, r9
 880 0172 C844     		add	r8, r8, r9
 683:shy_fft.h     ****             {
 881              		.loc 13 683 46 view .LVU207
 882 0174 0144     		add	r1, r1, r0
 683:shy_fft.h     ****             {
 883              		.loc 13 683 33 view .LVU208
 884 0176 0598     		ldr	r0, [sp, #20]
 885 0178 4844     		add	r0, r0, r9
 683:shy_fft.h     ****             {
 886              		.loc 13 683 46 view .LVU209
 887 017a 0691     		str	r1, [sp, #24]
 888              	.LVL52:
 683:shy_fft.h     ****             {
 889              		.loc 13 683 33 is_stmt 1 view .LVU210
ARM GAS  /tmp/ccBh0qTK.s 			page 58


 890 017c 0590     		str	r0, [sp, #20]
 891 017e 0498     		ldr	r0, [sp, #16]
 892 0180 4844     		add	r0, r0, r9
 893 0182 0490     		str	r0, [sp, #16]
 894              	.LVL53:
 683:shy_fft.h     ****             {
 895              		.loc 13 683 33 is_stmt 0 view .LVU211
 896 0184 0398     		ldr	r0, [sp, #12]
 897 0186 4844     		add	r0, r0, r9
 898 0188 0390     		str	r0, [sp, #12]
 899              	.LVL54:
 683:shy_fft.h     ****             {
 900              		.loc 13 683 33 view .LVU212
 901 018a 0198     		ldr	r0, [sp, #4]
 902 018c 4844     		add	r0, r0, r9
 903 018e 0190     		str	r0, [sp, #4]
 904              	.LVL55:
 683:shy_fft.h     ****             {
 905              		.loc 13 683 33 view .LVU213
 906 0190 0298     		ldr	r0, [sp, #8]
 907 0192 4844     		add	r0, r0, r9
 908 0194 0290     		str	r0, [sp, #8]
 909 0196 0798     		ldr	r0, [sp, #28]
 910 0198 8842     		cmp	r0, r1
 911 019a 85D8     		bhi	.L30
 912 019c 1299     		ldr	r1, [sp, #72]
 913              	.LVL56:
 683:shy_fft.h     ****             {
 914              		.loc 13 683 33 view .LVU214
 915 019e C1E9FC23 		strd	r2, r3, [r1, #1008]
 916              	.LVL57:
 917              	.L27:
 683:shy_fft.h     ****             {
 918              		.loc 13 683 33 view .LVU215
 919              	.LBE771:
 715:shy_fft.h     ****             {
 920              		.loc 13 715 13 view .LVU216
 921 01a2 139B     		ldr	r3, [sp, #76]
 922 01a4 109A     		ldr	r2, [sp, #64]
 923 01a6 9342     		cmp	r3, r2
 924 01a8 0CD0     		beq	.L41
 925              	.LBE709:
 678:shy_fft.h     ****         {
 926              		.loc 13 678 51 view .LVU217
 927 01aa 119A     		ldr	r2, [sp, #68]
 928              	.LBB773:
 715:shy_fft.h     ****             {
 929              		.loc 13 715 13 view .LVU218
 930 01ac 1093     		str	r3, [sp, #64]
 931              	.LVL58:
 715:shy_fft.h     ****             {
 932              		.loc 13 715 13 view .LVU219
 933              	.LBE773:
 678:shy_fft.h     ****         {
 934              		.loc 13 678 51 view .LVU220
 935 01ae 022A     		cmp	r2, #2
 936              	.LBB774:
ARM GAS  /tmp/ccBh0qTK.s 			page 59


 722:shy_fft.h     ****                 d = output;
 937              		.loc 13 722 19 view .LVU221
 938 01b0 DDF850A0 		ldr	r10, [sp, #80]
 939              	.LVL59:
 722:shy_fft.h     ****                 d = output;
 940              		.loc 13 722 19 view .LVU222
 941              	.LBE774:
 678:shy_fft.h     ****         {
 942              		.loc 13 678 9 is_stmt 1 view .LVU223
 678:shy_fft.h     ****         {
 943              		.loc 13 678 51 view .LVU224
 944 01b4 02F1FF33 		add	r3, r2, #-1
 945              	.LVL60:
 678:shy_fft.h     ****         {
 946              		.loc 13 678 51 is_stmt 0 view .LVU225
 947 01b8 0CD9     		bls	.L54
 948              	.LVL61:
 949              	.L42:
 678:shy_fft.h     ****         {
 950              		.loc 13 678 51 view .LVU226
 951 01ba 1193     		str	r3, [sp, #68]
 952              	.LVL62:
 678:shy_fft.h     ****         {
 953              		.loc 13 678 51 view .LVU227
 954 01bc 33E7     		b	.L32
 955              	.LVL63:
 956              	.L40:
 957              	.LBB775:
 958              	.LBB772:
 959              	.LBB770:
 960              	.LBB766:
 961              	.LBB719:
 181:shy_fft.h     ****         sin_ptr_         = &trig_lut_[pass_size + pass_size - 4 - 1];
 962              		.loc 13 181 26 view .LVU228
 963 01be DDE90B23 		ldrd	r2, r3, [sp, #44]
 964              	.LVL64:
 181:shy_fft.h     ****         sin_ptr_         = &trig_lut_[pass_size + pass_size - 4 - 1];
 965              		.loc 13 181 26 view .LVU229
 966 01c2 D2E7     		b	.L28
 967              	.LVL65:
 968              	.L41:
 181:shy_fft.h     ****         sin_ptr_         = &trig_lut_[pass_size + pass_size - 4 - 1];
 969              		.loc 13 181 26 view .LVU230
 970              	.LBE719:
 971              	.LBE766:
 972              	.LBE770:
 973              	.LBE772:
 974              	.LBE775:
 678:shy_fft.h     ****         {
 975              		.loc 13 678 51 view .LVU231
 976 01c4 119A     		ldr	r2, [sp, #68]
 977              	.LBB776:
 718:shy_fft.h     ****             }
 978              		.loc 13 718 19 view .LVU232
 979 01c6 DDE913A3 		ldrd	r10, r3, [sp, #76]
 980              	.LBE776:
 678:shy_fft.h     ****         {
ARM GAS  /tmp/ccBh0qTK.s 			page 60


 981              		.loc 13 678 51 view .LVU233
 982 01ca 022A     		cmp	r2, #2
 983              	.LBB777:
 718:shy_fft.h     ****             }
 984              		.loc 13 718 19 view .LVU234
 985 01cc 1093     		str	r3, [sp, #64]
 986              	.LVL66:
 718:shy_fft.h     ****             }
 987              		.loc 13 718 19 view .LVU235
 988              	.LBE777:
 678:shy_fft.h     ****         {
 989              		.loc 13 678 9 is_stmt 1 view .LVU236
 678:shy_fft.h     ****         {
 990              		.loc 13 678 51 view .LVU237
 991 01ce 02F1FF33 		add	r3, r2, #-1
 992              	.LVL67:
 678:shy_fft.h     ****         {
 993              		.loc 13 678 51 is_stmt 0 view .LVU238
 994 01d2 F2D8     		bhi	.L42
 995              	.LVL68:
 996              	.L54:
 678:shy_fft.h     ****         {
 997              		.loc 13 678 51 view .LVU239
 998              	.LBE779:
 728:shy_fft.h     ****         {
 999              		.loc 13 728 9 view .LVU240
 1000 01d4 139B     		ldr	r3, [sp, #76]
 1001 01d6 109A     		ldr	r2, [sp, #64]
 1002 01d8 9342     		cmp	r3, r2
 1003 01da 00F0A780 		beq	.L26
 1004              	.LVL69:
 1005              	.L33:
 1006              	.LBB780:
 735:shy_fft.h     ****         {
 1007              		.loc 13 735 29 is_stmt 1 view .LVU241
 1008 01de 079B     		ldr	r3, [sp, #28]
 1009 01e0 002B     		cmp	r3, #0
 1010 01e2 00F09E80 		beq	.L25
 1011 01e6 139A     		ldr	r2, [sp, #76]
 1012 01e8 013B     		subs	r3, r3, #1
 1013 01ea 02F12001 		add	r1, r2, #32
 1014 01ee DB08     		lsrs	r3, r3, #3
 1015 01f0 01EB4311 		add	r1, r1, r3, lsl #5
 1016 01f4 1346     		mov	r3, r2
 1017 01f6 149A     		ldr	r2, [sp, #80]
 1018              	.LVL70:
 1019              	.L36:
 1020              	.LBB781:
 738:shy_fft.h     ****             d[i + 4] = s[i] - s[i + 4];
 1021              		.loc 13 738 29 is_stmt 0 view .LVU242
 1022 01f8 D3ED007A 		vldr.32	s15, [r3]
 1023              	.LBE781:
 735:shy_fft.h     ****         {
 1024              		.loc 13 735 29 view .LVU243
 1025 01fc 2032     		adds	r2, r2, #32
 1026              	.LBB782:
 738:shy_fft.h     ****             d[i + 4] = s[i] - s[i + 4];
ARM GAS  /tmp/ccBh0qTK.s 			page 61


 1027              		.loc 13 738 29 view .LVU244
 1028 01fe 93ED047A 		vldr.32	s14, [r3, #16]
 1029              	.LBE782:
 735:shy_fft.h     ****         {
 1030              		.loc 13 735 29 view .LVU245
 1031 0202 2033     		adds	r3, r3, #32
 1032              	.LBB783:
 746:shy_fft.h     ****             d[i + 7] = (vi - vr) * math.sqrt_2_div_2();
 1033              		.loc 13 746 34 view .LVU246
 1034 0204 9FED4E6A 		vldr.32	s12, .L55
 738:shy_fft.h     ****             d[i + 4] = s[i] - s[i + 4];
 1035              		.loc 13 738 29 view .LVU247
 1036 0208 77EE877A 		vadd.f32	s15, s15, s14
 1037              	.LBE783:
 735:shy_fft.h     ****         {
 1038              		.loc 13 735 29 view .LVU248
 1039 020c 9942     		cmp	r1, r3
 1040              	.LBB784:
 738:shy_fft.h     ****             d[i + 4] = s[i] - s[i + 4];
 1041              		.loc 13 738 22 view .LVU249
 1042 020e 42ED087A 		vstr.32	s15, [r2, #-32]
 739:shy_fft.h     ****             d[i + 2] = s[i + 2] * T(2);
 1043              		.loc 13 739 29 view .LVU250
 1044 0212 13ED047A 		vldr.32	s14, [r3, #-16]
 1045 0216 53ED087A 		vldr.32	s15, [r3, #-32]
 1046 021a 77EEC77A 		vsub.f32	s15, s15, s14
 739:shy_fft.h     ****             d[i + 2] = s[i + 2] * T(2);
 1047              		.loc 13 739 22 view .LVU251
 1048 021e 42ED047A 		vstr.32	s15, [r2, #-16]
 740:shy_fft.h     ****             d[i + 6] = s[i + 6] * T(2);
 1049              		.loc 13 740 33 view .LVU252
 1050 0222 53ED067A 		vldr.32	s15, [r3, #-24]
 1051 0226 77EEA77A 		vadd.f32	s15, s15, s15
 740:shy_fft.h     ****             d[i + 6] = s[i + 6] * T(2);
 1052              		.loc 13 740 22 view .LVU253
 1053 022a 42ED067A 		vstr.32	s15, [r2, #-24]
 741:shy_fft.h     ****             d[i + 1] = s[i + 1] + s[i + 3];
 1054              		.loc 13 741 33 view .LVU254
 1055 022e 53ED027A 		vldr.32	s15, [r3, #-8]
 1056 0232 77EEA77A 		vadd.f32	s15, s15, s15
 741:shy_fft.h     ****             d[i + 1] = s[i + 1] + s[i + 3];
 1057              		.loc 13 741 22 view .LVU255
 1058 0236 42ED027A 		vstr.32	s15, [r2, #-8]
 742:shy_fft.h     ****             d[i + 3] = s[i + 5] - s[i + 7];
 1059              		.loc 13 742 33 view .LVU256
 1060 023a 13ED057A 		vldr.32	s14, [r3, #-20]
 1061 023e 53ED077A 		vldr.32	s15, [r3, #-28]
 1062 0242 77EE877A 		vadd.f32	s15, s15, s14
 742:shy_fft.h     ****             d[i + 3] = s[i + 5] - s[i + 7];
 1063              		.loc 13 742 22 view .LVU257
 1064 0246 42ED077A 		vstr.32	s15, [r2, #-28]
 743:shy_fft.h     ****             vr       = s[i + 1] - s[i + 3];
 1065              		.loc 13 743 33 view .LVU258
 1066 024a 13ED017A 		vldr.32	s14, [r3, #-4]
 1067 024e 53ED037A 		vldr.32	s15, [r3, #-12]
 1068 0252 77EEC77A 		vsub.f32	s15, s15, s14
 743:shy_fft.h     ****             vr       = s[i + 1] - s[i + 3];
ARM GAS  /tmp/ccBh0qTK.s 			page 62


 1069              		.loc 13 743 22 view .LVU259
 1070 0256 42ED057A 		vstr.32	s15, [r2, #-20]
 745:shy_fft.h     ****             d[i + 5] = (vr + vi) * math.sqrt_2_div_2();
 1071              		.loc 13 745 22 view .LVU260
 1072 025a 53ED016A 		vldr.32	s13, [r3, #-4]
 744:shy_fft.h     ****             vi       = s[i + 5] + s[i + 7];
 1073              		.loc 13 744 22 view .LVU261
 1074 025e 13ED077A 		vldr.32	s14, [r3, #-28]
 1075 0262 53ED055A 		vldr.32	s11, [r3, #-20]
 745:shy_fft.h     ****             d[i + 5] = (vr + vi) * math.sqrt_2_div_2();
 1076              		.loc 13 745 22 view .LVU262
 1077 0266 53ED037A 		vldr.32	s15, [r3, #-12]
 744:shy_fft.h     ****             vi       = s[i + 5] + s[i + 7];
 1078              		.loc 13 744 22 view .LVU263
 1079 026a 37EE657A 		vsub.f32	s14, s14, s11
 1080              	.LVL71:
 745:shy_fft.h     ****             d[i + 5] = (vr + vi) * math.sqrt_2_div_2();
 1081              		.loc 13 745 22 view .LVU264
 1082 026e 77EEA67A 		vadd.f32	s15, s15, s13
 1083              	.LVL72:
 745:shy_fft.h     ****             d[i + 5] = (vr + vi) * math.sqrt_2_div_2();
 1084              		.loc 13 745 22 view .LVU265
 1085              	.LBE784:
 1086              	.LBE780:
 137:shy_fft.h     ****     inline float cos(float x) { return cosf(x); }
 1087              		.loc 13 137 41 is_stmt 1 view .LVU266
 1088              	.LBB787:
 1089              	.LBB785:
 746:shy_fft.h     ****             d[i + 7] = (vi - vr) * math.sqrt_2_div_2();
 1090              		.loc 13 746 28 is_stmt 0 view .LVU267
 1091 0272 77EE276A 		vadd.f32	s13, s14, s15
 747:shy_fft.h     ****         }
 1092              		.loc 13 747 28 view .LVU268
 1093 0276 77EEC77A 		vsub.f32	s15, s15, s14
 1094              	.LVL73:
 746:shy_fft.h     ****             d[i + 7] = (vi - vr) * math.sqrt_2_div_2();
 1095              		.loc 13 746 34 view .LVU269
 1096 027a 26EE867A 		vmul.f32	s14, s13, s12
 1097              	.LVL74:
 747:shy_fft.h     ****         }
 1098              		.loc 13 747 34 view .LVU270
 1099 027e 67EE867A 		vmul.f32	s15, s15, s12
 746:shy_fft.h     ****             d[i + 7] = (vi - vr) * math.sqrt_2_div_2();
 1100              		.loc 13 746 22 view .LVU271
 1101 0282 02ED037A 		vstr.32	s14, [r2, #-12]
 1102              	.LVL75:
 746:shy_fft.h     ****             d[i + 7] = (vi - vr) * math.sqrt_2_div_2();
 1103              		.loc 13 746 22 view .LVU272
 1104              	.LBE785:
 1105              	.LBE787:
 137:shy_fft.h     ****     inline float cos(float x) { return cosf(x); }
 1106              		.loc 13 137 41 is_stmt 1 view .LVU273
 1107              	.LBB788:
 1108              	.LBB786:
 747:shy_fft.h     ****         }
 1109              		.loc 13 747 22 is_stmt 0 view .LVU274
 1110 0286 42ED017A 		vstr.32	s15, [r2, #-4]
ARM GAS  /tmp/ccBh0qTK.s 			page 63


 1111              	.LBE786:
 735:shy_fft.h     ****         {
 1112              		.loc 13 735 9 is_stmt 1 view .LVU275
 735:shy_fft.h     ****         {
 1113              		.loc 13 735 29 view .LVU276
 1114 028a B5D1     		bne	.L36
 1115              	.LBE788:
 1116              	.LBB789:
 1117              	.LBB790:
 756:shy_fft.h     ****             size_t r1 = r0 + 2 * (rt_size >> 2);
 1118              		.loc 13 756 32 is_stmt 0 view .LVU277
 1119 028c 209B     		ldr	r3, [sp, #128]
 1120 028e 0021     		movs	r1, #0
 1121 0290 149A     		ldr	r2, [sp, #80]
 1122 0292 C3F11005 		rsb	r5, r3, #16
 757:shy_fft.h     ****             size_t r2 = r0 + 1 * (rt_size >> 2);
 1123              		.loc 13 757 43 view .LVU278
 1124 0296 079B     		ldr	r3, [sp, #28]
 1125 0298 1032     		adds	r2, r2, #16
 757:shy_fft.h     ****             size_t r2 = r0 + 1 * (rt_size >> 2);
 1126              		.loc 13 757 32 view .LVU279
 1127 029a 139F     		ldr	r7, [sp, #76]
 757:shy_fft.h     ****             size_t r2 = r0 + 1 * (rt_size >> 2);
 1128              		.loc 13 757 43 view .LVU280
 1129 029c 9C08     		lsrs	r4, r3, #2
 757:shy_fft.h     ****             size_t r2 = r0 + 1 * (rt_size >> 2);
 1130              		.loc 13 757 32 view .LVU281
 1131 029e 9E46     		mov	lr, r3
 1132 02a0 DDF854C0 		ldr	ip, [sp, #84]
 1133 02a4 6600     		lsls	r6, r4, #1
 1134              	.L38:
 1135              	.LVL76:
 761:shy_fft.h     ****             T b_2 = s[0] - s[2];
 1136              		.loc 13 761 29 view .LVU282
 1137 02a6 12ED026A 		vldr.32	s12, [r2, #-8]
 755:shy_fft.h     ****                         >> (16 - rt_num_passes);
 1138              		.loc 13 755 37 view .LVU283
 1139 02aa C8B2     		uxtb	r0, r1
 761:shy_fft.h     ****             T b_2 = s[0] - s[2];
 1140              		.loc 13 761 22 view .LVU284
 1141 02ac 52ED047A 		vldr.32	s15, [r2, #-16]
 755:shy_fft.h     ****                         >> (16 - rt_num_passes);
 1142              		.loc 13 755 63 view .LVU285
 1143 02b0 0B0A     		lsrs	r3, r1, #8
 755:shy_fft.h     ****                         >> (16 - rt_num_passes);
 1144              		.loc 13 755 43 view .LVU286
 1145 02b2 1CF80000 		ldrb	r0, [ip, r0]	@ zero_extendqisi2
 766:shy_fft.h     ****             d[r1] = b_0 - b_1;
 1146              		.loc 13 766 25 view .LVU287
 1147 02b6 F0EE006A 		vmov.f32	s13, #2.0e+0
 761:shy_fft.h     ****             T b_2 = s[0] - s[2];
 1148              		.loc 13 761 15 view .LVU288
 1149 02ba 37EE867A 		vadd.f32	s14, s15, s12
 755:shy_fft.h     ****                         >> (16 - rt_num_passes);
 1150              		.loc 13 755 67 view .LVU289
 1151 02be 1CF80330 		ldrb	r3, [ip, r3]	@ zero_extendqisi2
 762:shy_fft.h     ****             T b_1 = s[1] * T(2);
ARM GAS  /tmp/ccBh0qTK.s 			page 64


 1152              		.loc 13 762 15 view .LVU290
 1153 02c2 77EEC67A 		vsub.f32	s15, s15, s12
 763:shy_fft.h     ****             T b_3 = s[3] * T(2);
 1154              		.loc 13 763 22 view .LVU291
 1155 02c6 52ED035A 		vldr.32	s11, [r2, #-12]
 755:shy_fft.h     ****                         >> (16 - rt_num_passes);
 1156              		.loc 13 755 51 view .LVU292
 1157 02ca 43EA0023 		orr	r3, r3, r0, lsl #8
 764:shy_fft.h     **** 
 1158              		.loc 13 764 22 view .LVU293
 1159 02ce 12ED016A 		vldr.32	s12, [r2, #-4]
 766:shy_fft.h     ****             d[r1] = b_0 - b_1;
 1160              		.loc 13 766 25 view .LVU294
 1161 02d2 B0EE475A 		vmov.f32	s10, s14
 1162              	.LBE790:
 753:shy_fft.h     ****         {
 1163              		.loc 13 753 42 view .LVU295
 1164 02d6 0431     		adds	r1, r1, #4
 1165              	.LVL77:
 1166              	.LBB791:
 767:shy_fft.h     ****             d[r2] = b_2 + b_3;
 1167              		.loc 13 767 25 view .LVU296
 1168 02d8 A5EEE67A 		vfms.f32	s14, s11, s13
 756:shy_fft.h     ****             size_t r1 = r0 + 2 * (rt_size >> 2);
 1169              		.loc 13 756 25 view .LVU297
 1170 02dc 2B41     		asrs	r3, r3, r5
 1171              	.LVL78:
 756:shy_fft.h     ****             size_t r1 = r0 + 2 * (rt_size >> 2);
 1172              		.loc 13 756 25 view .LVU298
 1173              	.LBE791:
 753:shy_fft.h     ****         {
 1174              		.loc 13 753 29 view .LVU299
 1175 02de 8E45     		cmp	lr, r1
 1176 02e0 02F11002 		add	r2, r2, #16
 1177              	.LVL79:
 1178              	.LBB792:
 766:shy_fft.h     ****             d[r1] = b_0 - b_1;
 1179              		.loc 13 766 25 view .LVU300
 1180 02e4 A5EEA65A 		vfma.f32	s10, s11, s13
 757:shy_fft.h     ****             size_t r2 = r0 + 1 * (rt_size >> 2);
 1181              		.loc 13 757 20 view .LVU301
 1182 02e8 03EB0600 		add	r0, r3, r6
 1183              	.LVL80:
 768:shy_fft.h     ****             d[r3] = b_2 - b_3;
 1184              		.loc 13 768 25 view .LVU302
 1185 02ec F0EE675A 		vmov.f32	s11, s15
 758:shy_fft.h     ****             size_t r3 = r0 + 3 * (rt_size >> 2);
 1186              		.loc 13 758 20 view .LVU303
 1187 02f0 03EB0409 		add	r9, r3, r4
 769:shy_fft.h     ****             s += 4;
 1188              		.loc 13 769 25 view .LVU304
 1189 02f4 E6EE667A 		vfms.f32	s15, s12, s13
 759:shy_fft.h     **** 
 1190              		.loc 13 759 20 view .LVU305
 1191 02f8 04EB0008 		add	r8, r4, r0
 766:shy_fft.h     ****             d[r1] = b_0 - b_1;
 1192              		.loc 13 766 14 view .LVU306
ARM GAS  /tmp/ccBh0qTK.s 			page 65


 1193 02fc 07EB8303 		add	r3, r7, r3, lsl #2
 1194              	.LVL81:
 768:shy_fft.h     ****             d[r3] = b_2 - b_3;
 1195              		.loc 13 768 25 view .LVU307
 1196 0300 E6EE265A 		vfma.f32	s11, s12, s13
 1197              	.LVL82:
 767:shy_fft.h     ****             d[r2] = b_2 + b_3;
 1198              		.loc 13 767 14 view .LVU308
 1199 0304 07EB8000 		add	r0, r7, r0, lsl #2
 1200              	.LVL83:
 768:shy_fft.h     ****             d[r3] = b_2 - b_3;
 1201              		.loc 13 768 14 view .LVU309
 1202 0308 07EB8909 		add	r9, r7, r9, lsl #2
 1203              	.LVL84:
 766:shy_fft.h     ****             d[r1] = b_0 - b_1;
 1204              		.loc 13 766 19 view .LVU310
 1205 030c 83ED005A 		vstr.32	s10, [r3]
 1206              	.LVL85:
 769:shy_fft.h     ****             s += 4;
 1207              		.loc 13 769 14 view .LVU311
 1208 0310 07EB8803 		add	r3, r7, r8, lsl #2
 767:shy_fft.h     ****             d[r2] = b_2 + b_3;
 1209              		.loc 13 767 19 view .LVU312
 1210 0314 80ED007A 		vstr.32	s14, [r0]
 768:shy_fft.h     ****             d[r3] = b_2 - b_3;
 1211              		.loc 13 768 19 view .LVU313
 1212 0318 C9ED005A 		vstr.32	s11, [r9]
 769:shy_fft.h     ****             s += 4;
 1213              		.loc 13 769 19 view .LVU314
 1214 031c C3ED007A 		vstr.32	s15, [r3]
 1215              	.LVL86:
 769:shy_fft.h     ****             s += 4;
 1216              		.loc 13 769 19 view .LVU315
 1217              	.LBE792:
 753:shy_fft.h     ****         {
 1218              		.loc 13 753 9 is_stmt 1 view .LVU316
 753:shy_fft.h     ****         {
 1219              		.loc 13 753 29 view .LVU317
 1220 0320 C1D8     		bhi	.L38
 1221              	.LVL87:
 1222              	.L25:
 753:shy_fft.h     ****         {
 1223              		.loc 13 753 29 is_stmt 0 view .LVU318
 1224              	.LBE789:
 772:shy_fft.h     **** };
 1225              		.loc 13 772 5 view .LVU319
 1226 0322 17B0     		add	sp, sp, #92
 1227              		.cfi_remember_state
 1228              		.cfi_def_cfa_offset 36
 1229              		@ sp needed
 1230 0324 BDE8F08F 		pop	{r4, r5, r6, r7, r8, r9, r10, fp, pc}
 1231              	.LVL88:
 1232              	.L39:
 1233              		.cfi_restore_state
 671:shy_fft.h     ****         T*      d = output;
 1234              		.loc 13 671 17 view .LVU320
 1235 0328 DDF850A0 		ldr	r10, [sp, #80]
ARM GAS  /tmp/ccBh0qTK.s 			page 66


 1236              	.LVL89:
 1237              	.L26:
 730:shy_fft.h     ****         }
 1238              		.loc 13 730 32 view .LVU321
 1239 032c 0422     		movs	r2, #4
 1240              	.LVL90:
 1241              	.LBB793:
 1242              	.LBI793:
 1243              		.file 15 "/usr/include/newlib/c++/10.3.1/bits/stl_algobase.h"
   1:/usr/include/newlib/c++/10.3.1/bits/stl_algobase.h **** // Core algorithmic facilities -*- C++ -*-
   2:/usr/include/newlib/c++/10.3.1/bits/stl_algobase.h **** 
   3:/usr/include/newlib/c++/10.3.1/bits/stl_algobase.h **** // Copyright (C) 2001-2020 Free Software Foundation, Inc.
   4:/usr/include/newlib/c++/10.3.1/bits/stl_algobase.h **** //
   5:/usr/include/newlib/c++/10.3.1/bits/stl_algobase.h **** // This file is part of the GNU ISO C++ Library.  This library is free
   6:/usr/include/newlib/c++/10.3.1/bits/stl_algobase.h **** // software; you can redistribute it and/or modify it under the
   7:/usr/include/newlib/c++/10.3.1/bits/stl_algobase.h **** // terms of the GNU General Public License as published by the
   8:/usr/include/newlib/c++/10.3.1/bits/stl_algobase.h **** // Free Software Foundation; either version 3, or (at your option)
   9:/usr/include/newlib/c++/10.3.1/bits/stl_algobase.h **** // any later version.
  10:/usr/include/newlib/c++/10.3.1/bits/stl_algobase.h **** 
  11:/usr/include/newlib/c++/10.3.1/bits/stl_algobase.h **** // This library is distributed in the hope that it will be useful,
  12:/usr/include/newlib/c++/10.3.1/bits/stl_algobase.h **** // but WITHOUT ANY WARRANTY; without even the implied warranty of
  13:/usr/include/newlib/c++/10.3.1/bits/stl_algobase.h **** // MERCHANTABILITY or FITNESS FOR A PARTICULAR PURPOSE.  See the
  14:/usr/include/newlib/c++/10.3.1/bits/stl_algobase.h **** // GNU General Public License for more details.
  15:/usr/include/newlib/c++/10.3.1/bits/stl_algobase.h **** 
  16:/usr/include/newlib/c++/10.3.1/bits/stl_algobase.h **** // Under Section 7 of GPL version 3, you are granted additional
  17:/usr/include/newlib/c++/10.3.1/bits/stl_algobase.h **** // permissions described in the GCC Runtime Library Exception, version
  18:/usr/include/newlib/c++/10.3.1/bits/stl_algobase.h **** // 3.1, as published by the Free Software Foundation.
  19:/usr/include/newlib/c++/10.3.1/bits/stl_algobase.h **** 
  20:/usr/include/newlib/c++/10.3.1/bits/stl_algobase.h **** // You should have received a copy of the GNU General Public License and
  21:/usr/include/newlib/c++/10.3.1/bits/stl_algobase.h **** // a copy of the GCC Runtime Library Exception along with this program;
  22:/usr/include/newlib/c++/10.3.1/bits/stl_algobase.h **** // see the files COPYING3 and COPYING.RUNTIME respectively.  If not, see
  23:/usr/include/newlib/c++/10.3.1/bits/stl_algobase.h **** // <http://www.gnu.org/licenses/>.
  24:/usr/include/newlib/c++/10.3.1/bits/stl_algobase.h **** 
  25:/usr/include/newlib/c++/10.3.1/bits/stl_algobase.h **** /*
  26:/usr/include/newlib/c++/10.3.1/bits/stl_algobase.h ****  *
  27:/usr/include/newlib/c++/10.3.1/bits/stl_algobase.h ****  * Copyright (c) 1994
  28:/usr/include/newlib/c++/10.3.1/bits/stl_algobase.h ****  * Hewlett-Packard Company
  29:/usr/include/newlib/c++/10.3.1/bits/stl_algobase.h ****  *
  30:/usr/include/newlib/c++/10.3.1/bits/stl_algobase.h ****  * Permission to use, copy, modify, distribute and sell this software
  31:/usr/include/newlib/c++/10.3.1/bits/stl_algobase.h ****  * and its documentation for any purpose is hereby granted without fee,
  32:/usr/include/newlib/c++/10.3.1/bits/stl_algobase.h ****  * provided that the above copyright notice appear in all copies and
  33:/usr/include/newlib/c++/10.3.1/bits/stl_algobase.h ****  * that both that copyright notice and this permission notice appear
  34:/usr/include/newlib/c++/10.3.1/bits/stl_algobase.h ****  * in supporting documentation.  Hewlett-Packard Company makes no
  35:/usr/include/newlib/c++/10.3.1/bits/stl_algobase.h ****  * representations about the suitability of this software for any
  36:/usr/include/newlib/c++/10.3.1/bits/stl_algobase.h ****  * purpose.  It is provided "as is" without express or implied warranty.
  37:/usr/include/newlib/c++/10.3.1/bits/stl_algobase.h ****  *
  38:/usr/include/newlib/c++/10.3.1/bits/stl_algobase.h ****  *
  39:/usr/include/newlib/c++/10.3.1/bits/stl_algobase.h ****  * Copyright (c) 1996-1998
  40:/usr/include/newlib/c++/10.3.1/bits/stl_algobase.h ****  * Silicon Graphics Computer Systems, Inc.
  41:/usr/include/newlib/c++/10.3.1/bits/stl_algobase.h ****  *
  42:/usr/include/newlib/c++/10.3.1/bits/stl_algobase.h ****  * Permission to use, copy, modify, distribute and sell this software
  43:/usr/include/newlib/c++/10.3.1/bits/stl_algobase.h ****  * and its documentation for any purpose is hereby granted without fee,
  44:/usr/include/newlib/c++/10.3.1/bits/stl_algobase.h ****  * provided that the above copyright notice appear in all copies and
  45:/usr/include/newlib/c++/10.3.1/bits/stl_algobase.h ****  * that both that copyright notice and this permission notice appear
  46:/usr/include/newlib/c++/10.3.1/bits/stl_algobase.h ****  * in supporting documentation.  Silicon Graphics makes no
  47:/usr/include/newlib/c++/10.3.1/bits/stl_algobase.h ****  * representations about the suitability of this software for any
  48:/usr/include/newlib/c++/10.3.1/bits/stl_algobase.h ****  * purpose.  It is provided "as is" without express or implied warranty.
ARM GAS  /tmp/ccBh0qTK.s 			page 67


  49:/usr/include/newlib/c++/10.3.1/bits/stl_algobase.h ****  */
  50:/usr/include/newlib/c++/10.3.1/bits/stl_algobase.h **** 
  51:/usr/include/newlib/c++/10.3.1/bits/stl_algobase.h **** /** @file bits/stl_algobase.h
  52:/usr/include/newlib/c++/10.3.1/bits/stl_algobase.h ****  *  This is an internal header file, included by other library headers.
  53:/usr/include/newlib/c++/10.3.1/bits/stl_algobase.h ****  *  Do not attempt to use it directly. @headername{algorithm}
  54:/usr/include/newlib/c++/10.3.1/bits/stl_algobase.h ****  */
  55:/usr/include/newlib/c++/10.3.1/bits/stl_algobase.h **** 
  56:/usr/include/newlib/c++/10.3.1/bits/stl_algobase.h **** #ifndef _STL_ALGOBASE_H
  57:/usr/include/newlib/c++/10.3.1/bits/stl_algobase.h **** #define _STL_ALGOBASE_H 1
  58:/usr/include/newlib/c++/10.3.1/bits/stl_algobase.h **** 
  59:/usr/include/newlib/c++/10.3.1/bits/stl_algobase.h **** #include <bits/c++config.h>
  60:/usr/include/newlib/c++/10.3.1/bits/stl_algobase.h **** #include <bits/functexcept.h>
  61:/usr/include/newlib/c++/10.3.1/bits/stl_algobase.h **** #include <bits/cpp_type_traits.h>
  62:/usr/include/newlib/c++/10.3.1/bits/stl_algobase.h **** #include <ext/type_traits.h>
  63:/usr/include/newlib/c++/10.3.1/bits/stl_algobase.h **** #include <ext/numeric_traits.h>
  64:/usr/include/newlib/c++/10.3.1/bits/stl_algobase.h **** #include <bits/stl_pair.h>
  65:/usr/include/newlib/c++/10.3.1/bits/stl_algobase.h **** #include <bits/stl_iterator_base_types.h>
  66:/usr/include/newlib/c++/10.3.1/bits/stl_algobase.h **** #include <bits/stl_iterator_base_funcs.h>
  67:/usr/include/newlib/c++/10.3.1/bits/stl_algobase.h **** #include <bits/stl_iterator.h>
  68:/usr/include/newlib/c++/10.3.1/bits/stl_algobase.h **** #include <bits/concept_check.h>
  69:/usr/include/newlib/c++/10.3.1/bits/stl_algobase.h **** #include <debug/debug.h>
  70:/usr/include/newlib/c++/10.3.1/bits/stl_algobase.h **** #include <bits/move.h> // For std::swap
  71:/usr/include/newlib/c++/10.3.1/bits/stl_algobase.h **** #include <bits/predefined_ops.h>
  72:/usr/include/newlib/c++/10.3.1/bits/stl_algobase.h **** #if __cplusplus >= 201103L
  73:/usr/include/newlib/c++/10.3.1/bits/stl_algobase.h **** # include <type_traits>
  74:/usr/include/newlib/c++/10.3.1/bits/stl_algobase.h **** #endif
  75:/usr/include/newlib/c++/10.3.1/bits/stl_algobase.h **** #if __cplusplus > 201703L
  76:/usr/include/newlib/c++/10.3.1/bits/stl_algobase.h **** # include <compare>
  77:/usr/include/newlib/c++/10.3.1/bits/stl_algobase.h **** #endif
  78:/usr/include/newlib/c++/10.3.1/bits/stl_algobase.h **** 
  79:/usr/include/newlib/c++/10.3.1/bits/stl_algobase.h **** namespace std _GLIBCXX_VISIBILITY(default)
  80:/usr/include/newlib/c++/10.3.1/bits/stl_algobase.h **** {
  81:/usr/include/newlib/c++/10.3.1/bits/stl_algobase.h **** _GLIBCXX_BEGIN_NAMESPACE_VERSION
  82:/usr/include/newlib/c++/10.3.1/bits/stl_algobase.h **** 
  83:/usr/include/newlib/c++/10.3.1/bits/stl_algobase.h ****   /*
  84:/usr/include/newlib/c++/10.3.1/bits/stl_algobase.h ****    * A constexpr wrapper for __builtin_memcmp.
  85:/usr/include/newlib/c++/10.3.1/bits/stl_algobase.h ****    * @param __num The number of elements of type _Tp (not bytes).
  86:/usr/include/newlib/c++/10.3.1/bits/stl_algobase.h ****    */
  87:/usr/include/newlib/c++/10.3.1/bits/stl_algobase.h ****   template<typename _Tp, typename _Up>
  88:/usr/include/newlib/c++/10.3.1/bits/stl_algobase.h ****     _GLIBCXX14_CONSTEXPR
  89:/usr/include/newlib/c++/10.3.1/bits/stl_algobase.h ****     inline int
  90:/usr/include/newlib/c++/10.3.1/bits/stl_algobase.h ****     __memcmp(const _Tp* __first1, const _Up* __first2, size_t __num)
  91:/usr/include/newlib/c++/10.3.1/bits/stl_algobase.h ****     {
  92:/usr/include/newlib/c++/10.3.1/bits/stl_algobase.h **** #if __cplusplus >= 201103L
  93:/usr/include/newlib/c++/10.3.1/bits/stl_algobase.h ****       static_assert(sizeof(_Tp) == sizeof(_Up), "can be compared with memcmp");
  94:/usr/include/newlib/c++/10.3.1/bits/stl_algobase.h **** #endif
  95:/usr/include/newlib/c++/10.3.1/bits/stl_algobase.h **** #ifdef __cpp_lib_is_constant_evaluated
  96:/usr/include/newlib/c++/10.3.1/bits/stl_algobase.h ****       if (std::is_constant_evaluated())
  97:/usr/include/newlib/c++/10.3.1/bits/stl_algobase.h **** 	{
  98:/usr/include/newlib/c++/10.3.1/bits/stl_algobase.h **** 	  for(; __num > 0; ++__first1, ++__first2, --__num)
  99:/usr/include/newlib/c++/10.3.1/bits/stl_algobase.h **** 	    if (*__first1 != *__first2)
 100:/usr/include/newlib/c++/10.3.1/bits/stl_algobase.h **** 	      return *__first1 < *__first2 ? -1 : 1;
 101:/usr/include/newlib/c++/10.3.1/bits/stl_algobase.h **** 	  return 0;
 102:/usr/include/newlib/c++/10.3.1/bits/stl_algobase.h **** 	}
 103:/usr/include/newlib/c++/10.3.1/bits/stl_algobase.h ****       else
 104:/usr/include/newlib/c++/10.3.1/bits/stl_algobase.h **** #endif
 105:/usr/include/newlib/c++/10.3.1/bits/stl_algobase.h **** 	return __builtin_memcmp(__first1, __first2, sizeof(_Tp) * __num);
ARM GAS  /tmp/ccBh0qTK.s 			page 68


 106:/usr/include/newlib/c++/10.3.1/bits/stl_algobase.h ****     }
 107:/usr/include/newlib/c++/10.3.1/bits/stl_algobase.h **** 
 108:/usr/include/newlib/c++/10.3.1/bits/stl_algobase.h **** #if __cplusplus < 201103L
 109:/usr/include/newlib/c++/10.3.1/bits/stl_algobase.h ****   // See http://gcc.gnu.org/ml/libstdc++/2004-08/msg00167.html: in a
 110:/usr/include/newlib/c++/10.3.1/bits/stl_algobase.h ****   // nutshell, we are partially implementing the resolution of DR 187,
 111:/usr/include/newlib/c++/10.3.1/bits/stl_algobase.h ****   // when it's safe, i.e., the value_types are equal.
 112:/usr/include/newlib/c++/10.3.1/bits/stl_algobase.h ****   template<bool _BoolType>
 113:/usr/include/newlib/c++/10.3.1/bits/stl_algobase.h ****     struct __iter_swap
 114:/usr/include/newlib/c++/10.3.1/bits/stl_algobase.h ****     {
 115:/usr/include/newlib/c++/10.3.1/bits/stl_algobase.h ****       template<typename _ForwardIterator1, typename _ForwardIterator2>
 116:/usr/include/newlib/c++/10.3.1/bits/stl_algobase.h **** 	static void
 117:/usr/include/newlib/c++/10.3.1/bits/stl_algobase.h **** 	iter_swap(_ForwardIterator1 __a, _ForwardIterator2 __b)
 118:/usr/include/newlib/c++/10.3.1/bits/stl_algobase.h **** 	{
 119:/usr/include/newlib/c++/10.3.1/bits/stl_algobase.h **** 	  typedef typename iterator_traits<_ForwardIterator1>::value_type
 120:/usr/include/newlib/c++/10.3.1/bits/stl_algobase.h **** 	    _ValueType1;
 121:/usr/include/newlib/c++/10.3.1/bits/stl_algobase.h **** 	  _ValueType1 __tmp = *__a;
 122:/usr/include/newlib/c++/10.3.1/bits/stl_algobase.h **** 	  *__a = *__b;
 123:/usr/include/newlib/c++/10.3.1/bits/stl_algobase.h **** 	  *__b = __tmp;
 124:/usr/include/newlib/c++/10.3.1/bits/stl_algobase.h **** 	}
 125:/usr/include/newlib/c++/10.3.1/bits/stl_algobase.h ****     };
 126:/usr/include/newlib/c++/10.3.1/bits/stl_algobase.h **** 
 127:/usr/include/newlib/c++/10.3.1/bits/stl_algobase.h ****   template<>
 128:/usr/include/newlib/c++/10.3.1/bits/stl_algobase.h ****     struct __iter_swap<true>
 129:/usr/include/newlib/c++/10.3.1/bits/stl_algobase.h ****     {
 130:/usr/include/newlib/c++/10.3.1/bits/stl_algobase.h ****       template<typename _ForwardIterator1, typename _ForwardIterator2>
 131:/usr/include/newlib/c++/10.3.1/bits/stl_algobase.h **** 	static void
 132:/usr/include/newlib/c++/10.3.1/bits/stl_algobase.h **** 	iter_swap(_ForwardIterator1 __a, _ForwardIterator2 __b)
 133:/usr/include/newlib/c++/10.3.1/bits/stl_algobase.h **** 	{
 134:/usr/include/newlib/c++/10.3.1/bits/stl_algobase.h **** 	  swap(*__a, *__b);
 135:/usr/include/newlib/c++/10.3.1/bits/stl_algobase.h **** 	}
 136:/usr/include/newlib/c++/10.3.1/bits/stl_algobase.h ****     };
 137:/usr/include/newlib/c++/10.3.1/bits/stl_algobase.h **** #endif // C++03
 138:/usr/include/newlib/c++/10.3.1/bits/stl_algobase.h **** 
 139:/usr/include/newlib/c++/10.3.1/bits/stl_algobase.h ****   /**
 140:/usr/include/newlib/c++/10.3.1/bits/stl_algobase.h ****    *  @brief Swaps the contents of two iterators.
 141:/usr/include/newlib/c++/10.3.1/bits/stl_algobase.h ****    *  @ingroup mutating_algorithms
 142:/usr/include/newlib/c++/10.3.1/bits/stl_algobase.h ****    *  @param  __a  An iterator.
 143:/usr/include/newlib/c++/10.3.1/bits/stl_algobase.h ****    *  @param  __b  Another iterator.
 144:/usr/include/newlib/c++/10.3.1/bits/stl_algobase.h ****    *  @return   Nothing.
 145:/usr/include/newlib/c++/10.3.1/bits/stl_algobase.h ****    *
 146:/usr/include/newlib/c++/10.3.1/bits/stl_algobase.h ****    *  This function swaps the values pointed to by two iterators, not the
 147:/usr/include/newlib/c++/10.3.1/bits/stl_algobase.h ****    *  iterators themselves.
 148:/usr/include/newlib/c++/10.3.1/bits/stl_algobase.h ****   */
 149:/usr/include/newlib/c++/10.3.1/bits/stl_algobase.h ****   template<typename _ForwardIterator1, typename _ForwardIterator2>
 150:/usr/include/newlib/c++/10.3.1/bits/stl_algobase.h ****     _GLIBCXX20_CONSTEXPR
 151:/usr/include/newlib/c++/10.3.1/bits/stl_algobase.h ****     inline void
 152:/usr/include/newlib/c++/10.3.1/bits/stl_algobase.h ****     iter_swap(_ForwardIterator1 __a, _ForwardIterator2 __b)
 153:/usr/include/newlib/c++/10.3.1/bits/stl_algobase.h ****     {
 154:/usr/include/newlib/c++/10.3.1/bits/stl_algobase.h ****       // concept requirements
 155:/usr/include/newlib/c++/10.3.1/bits/stl_algobase.h ****       __glibcxx_function_requires(_Mutable_ForwardIteratorConcept<
 156:/usr/include/newlib/c++/10.3.1/bits/stl_algobase.h **** 				  _ForwardIterator1>)
 157:/usr/include/newlib/c++/10.3.1/bits/stl_algobase.h ****       __glibcxx_function_requires(_Mutable_ForwardIteratorConcept<
 158:/usr/include/newlib/c++/10.3.1/bits/stl_algobase.h **** 				  _ForwardIterator2>)
 159:/usr/include/newlib/c++/10.3.1/bits/stl_algobase.h **** 
 160:/usr/include/newlib/c++/10.3.1/bits/stl_algobase.h **** #if __cplusplus < 201103L
 161:/usr/include/newlib/c++/10.3.1/bits/stl_algobase.h ****       typedef typename iterator_traits<_ForwardIterator1>::value_type
 162:/usr/include/newlib/c++/10.3.1/bits/stl_algobase.h **** 	_ValueType1;
ARM GAS  /tmp/ccBh0qTK.s 			page 69


 163:/usr/include/newlib/c++/10.3.1/bits/stl_algobase.h ****       typedef typename iterator_traits<_ForwardIterator2>::value_type
 164:/usr/include/newlib/c++/10.3.1/bits/stl_algobase.h **** 	_ValueType2;
 165:/usr/include/newlib/c++/10.3.1/bits/stl_algobase.h **** 
 166:/usr/include/newlib/c++/10.3.1/bits/stl_algobase.h ****       __glibcxx_function_requires(_ConvertibleConcept<_ValueType1,
 167:/usr/include/newlib/c++/10.3.1/bits/stl_algobase.h **** 				  _ValueType2>)
 168:/usr/include/newlib/c++/10.3.1/bits/stl_algobase.h ****       __glibcxx_function_requires(_ConvertibleConcept<_ValueType2,
 169:/usr/include/newlib/c++/10.3.1/bits/stl_algobase.h **** 				  _ValueType1>)
 170:/usr/include/newlib/c++/10.3.1/bits/stl_algobase.h **** 
 171:/usr/include/newlib/c++/10.3.1/bits/stl_algobase.h ****       typedef typename iterator_traits<_ForwardIterator1>::reference
 172:/usr/include/newlib/c++/10.3.1/bits/stl_algobase.h **** 	_ReferenceType1;
 173:/usr/include/newlib/c++/10.3.1/bits/stl_algobase.h ****       typedef typename iterator_traits<_ForwardIterator2>::reference
 174:/usr/include/newlib/c++/10.3.1/bits/stl_algobase.h **** 	_ReferenceType2;
 175:/usr/include/newlib/c++/10.3.1/bits/stl_algobase.h ****       std::__iter_swap<__are_same<_ValueType1, _ValueType2>::__value
 176:/usr/include/newlib/c++/10.3.1/bits/stl_algobase.h **** 	&& __are_same<_ValueType1&, _ReferenceType1>::__value
 177:/usr/include/newlib/c++/10.3.1/bits/stl_algobase.h **** 	&& __are_same<_ValueType2&, _ReferenceType2>::__value>::
 178:/usr/include/newlib/c++/10.3.1/bits/stl_algobase.h **** 	iter_swap(__a, __b);
 179:/usr/include/newlib/c++/10.3.1/bits/stl_algobase.h **** #else
 180:/usr/include/newlib/c++/10.3.1/bits/stl_algobase.h ****       // _GLIBCXX_RESOLVE_LIB_DEFECTS
 181:/usr/include/newlib/c++/10.3.1/bits/stl_algobase.h ****       // 187. iter_swap underspecified
 182:/usr/include/newlib/c++/10.3.1/bits/stl_algobase.h ****       swap(*__a, *__b);
 183:/usr/include/newlib/c++/10.3.1/bits/stl_algobase.h **** #endif
 184:/usr/include/newlib/c++/10.3.1/bits/stl_algobase.h ****     }
 185:/usr/include/newlib/c++/10.3.1/bits/stl_algobase.h **** 
 186:/usr/include/newlib/c++/10.3.1/bits/stl_algobase.h ****   /**
 187:/usr/include/newlib/c++/10.3.1/bits/stl_algobase.h ****    *  @brief Swap the elements of two sequences.
 188:/usr/include/newlib/c++/10.3.1/bits/stl_algobase.h ****    *  @ingroup mutating_algorithms
 189:/usr/include/newlib/c++/10.3.1/bits/stl_algobase.h ****    *  @param  __first1  A forward iterator.
 190:/usr/include/newlib/c++/10.3.1/bits/stl_algobase.h ****    *  @param  __last1   A forward iterator.
 191:/usr/include/newlib/c++/10.3.1/bits/stl_algobase.h ****    *  @param  __first2  A forward iterator.
 192:/usr/include/newlib/c++/10.3.1/bits/stl_algobase.h ****    *  @return   An iterator equal to @p first2+(last1-first1).
 193:/usr/include/newlib/c++/10.3.1/bits/stl_algobase.h ****    *
 194:/usr/include/newlib/c++/10.3.1/bits/stl_algobase.h ****    *  Swaps each element in the range @p [first1,last1) with the
 195:/usr/include/newlib/c++/10.3.1/bits/stl_algobase.h ****    *  corresponding element in the range @p [first2,(last1-first1)).
 196:/usr/include/newlib/c++/10.3.1/bits/stl_algobase.h ****    *  The ranges must not overlap.
 197:/usr/include/newlib/c++/10.3.1/bits/stl_algobase.h ****   */
 198:/usr/include/newlib/c++/10.3.1/bits/stl_algobase.h ****   template<typename _ForwardIterator1, typename _ForwardIterator2>
 199:/usr/include/newlib/c++/10.3.1/bits/stl_algobase.h ****     _GLIBCXX20_CONSTEXPR
 200:/usr/include/newlib/c++/10.3.1/bits/stl_algobase.h ****     _ForwardIterator2
 201:/usr/include/newlib/c++/10.3.1/bits/stl_algobase.h ****     swap_ranges(_ForwardIterator1 __first1, _ForwardIterator1 __last1,
 202:/usr/include/newlib/c++/10.3.1/bits/stl_algobase.h **** 		_ForwardIterator2 __first2)
 203:/usr/include/newlib/c++/10.3.1/bits/stl_algobase.h ****     {
 204:/usr/include/newlib/c++/10.3.1/bits/stl_algobase.h ****       // concept requirements
 205:/usr/include/newlib/c++/10.3.1/bits/stl_algobase.h ****       __glibcxx_function_requires(_Mutable_ForwardIteratorConcept<
 206:/usr/include/newlib/c++/10.3.1/bits/stl_algobase.h **** 				  _ForwardIterator1>)
 207:/usr/include/newlib/c++/10.3.1/bits/stl_algobase.h ****       __glibcxx_function_requires(_Mutable_ForwardIteratorConcept<
 208:/usr/include/newlib/c++/10.3.1/bits/stl_algobase.h **** 				  _ForwardIterator2>)
 209:/usr/include/newlib/c++/10.3.1/bits/stl_algobase.h ****       __glibcxx_requires_valid_range(__first1, __last1);
 210:/usr/include/newlib/c++/10.3.1/bits/stl_algobase.h **** 
 211:/usr/include/newlib/c++/10.3.1/bits/stl_algobase.h ****       for (; __first1 != __last1; ++__first1, (void)++__first2)
 212:/usr/include/newlib/c++/10.3.1/bits/stl_algobase.h **** 	std::iter_swap(__first1, __first2);
 213:/usr/include/newlib/c++/10.3.1/bits/stl_algobase.h ****       return __first2;
 214:/usr/include/newlib/c++/10.3.1/bits/stl_algobase.h ****     }
 215:/usr/include/newlib/c++/10.3.1/bits/stl_algobase.h **** 
 216:/usr/include/newlib/c++/10.3.1/bits/stl_algobase.h ****   /**
 217:/usr/include/newlib/c++/10.3.1/bits/stl_algobase.h ****    *  @brief This does what you think it does.
 218:/usr/include/newlib/c++/10.3.1/bits/stl_algobase.h ****    *  @ingroup sorting_algorithms
 219:/usr/include/newlib/c++/10.3.1/bits/stl_algobase.h ****    *  @param  __a  A thing of arbitrary type.
ARM GAS  /tmp/ccBh0qTK.s 			page 70


 220:/usr/include/newlib/c++/10.3.1/bits/stl_algobase.h ****    *  @param  __b  Another thing of arbitrary type.
 221:/usr/include/newlib/c++/10.3.1/bits/stl_algobase.h ****    *  @return   The lesser of the parameters.
 222:/usr/include/newlib/c++/10.3.1/bits/stl_algobase.h ****    *
 223:/usr/include/newlib/c++/10.3.1/bits/stl_algobase.h ****    *  This is the simple classic generic implementation.  It will work on
 224:/usr/include/newlib/c++/10.3.1/bits/stl_algobase.h ****    *  temporary expressions, since they are only evaluated once, unlike a
 225:/usr/include/newlib/c++/10.3.1/bits/stl_algobase.h ****    *  preprocessor macro.
 226:/usr/include/newlib/c++/10.3.1/bits/stl_algobase.h ****   */
 227:/usr/include/newlib/c++/10.3.1/bits/stl_algobase.h ****   template<typename _Tp>
 228:/usr/include/newlib/c++/10.3.1/bits/stl_algobase.h ****     _GLIBCXX14_CONSTEXPR
 229:/usr/include/newlib/c++/10.3.1/bits/stl_algobase.h ****     inline const _Tp&
 230:/usr/include/newlib/c++/10.3.1/bits/stl_algobase.h ****     min(const _Tp& __a, const _Tp& __b)
 231:/usr/include/newlib/c++/10.3.1/bits/stl_algobase.h ****     {
 232:/usr/include/newlib/c++/10.3.1/bits/stl_algobase.h ****       // concept requirements
 233:/usr/include/newlib/c++/10.3.1/bits/stl_algobase.h ****       __glibcxx_function_requires(_LessThanComparableConcept<_Tp>)
 234:/usr/include/newlib/c++/10.3.1/bits/stl_algobase.h ****       //return __b < __a ? __b : __a;
 235:/usr/include/newlib/c++/10.3.1/bits/stl_algobase.h ****       if (__b < __a)
 236:/usr/include/newlib/c++/10.3.1/bits/stl_algobase.h **** 	return __b;
 237:/usr/include/newlib/c++/10.3.1/bits/stl_algobase.h ****       return __a;
 238:/usr/include/newlib/c++/10.3.1/bits/stl_algobase.h ****     }
 239:/usr/include/newlib/c++/10.3.1/bits/stl_algobase.h **** 
 240:/usr/include/newlib/c++/10.3.1/bits/stl_algobase.h ****   /**
 241:/usr/include/newlib/c++/10.3.1/bits/stl_algobase.h ****    *  @brief This does what you think it does.
 242:/usr/include/newlib/c++/10.3.1/bits/stl_algobase.h ****    *  @ingroup sorting_algorithms
 243:/usr/include/newlib/c++/10.3.1/bits/stl_algobase.h ****    *  @param  __a  A thing of arbitrary type.
 244:/usr/include/newlib/c++/10.3.1/bits/stl_algobase.h ****    *  @param  __b  Another thing of arbitrary type.
 245:/usr/include/newlib/c++/10.3.1/bits/stl_algobase.h ****    *  @return   The greater of the parameters.
 246:/usr/include/newlib/c++/10.3.1/bits/stl_algobase.h ****    *
