ARM GAS  /tmp/cc6aP9AC.s 			page 1


   1              		.cpu cortex-m7
   2              		.eabi_attribute 28, 1
   3              		.eabi_attribute 20, 1
   4              		.eabi_attribute 21, 1
   5              		.eabi_attribute 23, 3
   6              		.eabi_attribute 24, 1
   7              		.eabi_attribute 25, 1
   8              		.eabi_attribute 26, 1
   9              		.eabi_attribute 30, 2
  10              		.eabi_attribute 34, 1
  11              		.eabi_attribute 18, 4
  12              		.file	"hothouse.cpp"
  13              		.text
  14              	.Ltext0:
  15              		.cfi_sections	.debug_frame
  16              		.section	.text._ZN16clevelandmusicco8Hothouse7DelayMsEj,"ax",%progbits
  17              		.align	1
  18              		.p2align 2,,3
  19              		.global	_ZN16clevelandmusicco8Hothouse7DelayMsEj
  20              		.arch armv7e-m
  21              		.syntax unified
  22              		.thumb
  23              		.thumb_func
  24              		.fpu fpv5-d16
  26              	_ZN16clevelandmusicco8Hothouse7DelayMsEj:
  27              	.LVL0:
  28              	.LFB2564:
  29              		.file 1 "hothouse.cpp"
   1:hothouse.cpp  **** // Hardware proxy for Hothouse DIY DSP Platform
   2:hothouse.cpp  **** // Copyright (C) 2024  Cleveland Music Co.  <code@clevelandmusicco.com>
   3:hothouse.cpp  **** //
   4:hothouse.cpp  **** // This program is free software: you can redistribute it and/or modify
   5:hothouse.cpp  **** // it under the terms of the GNU General Public License as published by
   6:hothouse.cpp  **** // the Free Software Foundation, either version 3 of the License, or
   7:hothouse.cpp  **** // (at your option) any later version.
   8:hothouse.cpp  **** //
   9:hothouse.cpp  **** // This program is distributed in the hope that it will be useful,
  10:hothouse.cpp  **** // but WITHOUT ANY WARRANTY; without even the implied warranty of
  11:hothouse.cpp  **** // MERCHANTABILITY or FITNESS FOR A PARTICULAR PURPOSE.  See the
  12:hothouse.cpp  **** // GNU General Public License for more details.
  13:hothouse.cpp  **** //
  14:hothouse.cpp  **** // You should have received a copy of the GNU General Public License
  15:hothouse.cpp  **** // along with this program.  If not, see <https://www.gnu.org/licenses/>.
  16:hothouse.cpp  **** 
  17:hothouse.cpp  **** #include "hothouse.h"
  18:hothouse.cpp  **** 
  19:hothouse.cpp  **** #include "optional"
  20:hothouse.cpp  **** 
  21:hothouse.cpp  **** using clevelandmusicco::Hothouse;
  22:hothouse.cpp  **** using daisy::System;
  23:hothouse.cpp  **** 
  24:hothouse.cpp  **** #ifndef SAMPLE_RATE
  25:hothouse.cpp  **** // #define SAMPLE_RATE DSY_AUDIO_SAMPLE_RATE
  26:hothouse.cpp  **** #define SAMPLE_RATE 48014.f
  27:hothouse.cpp  **** #endif
  28:hothouse.cpp  **** 
  29:hothouse.cpp  **** // Hardware related defines.
ARM GAS  /tmp/cc6aP9AC.s 			page 2


  30:hothouse.cpp  **** // Switches
  31:hothouse.cpp  **** constexpr Pin PIN_SW_1_UP = daisy::seed::D9;
  32:hothouse.cpp  **** constexpr Pin PIN_SW_1_DOWN = daisy::seed::D10;
  33:hothouse.cpp  **** constexpr Pin PIN_SW_2_UP = daisy::seed::D7;
  34:hothouse.cpp  **** constexpr Pin PIN_SW_2_DOWN = daisy::seed::D8;
  35:hothouse.cpp  **** constexpr Pin PIN_SW_3_UP = daisy::seed::D5;
  36:hothouse.cpp  **** constexpr Pin PIN_SW_3_DOWN = daisy::seed::D6;
  37:hothouse.cpp  **** constexpr Pin PIN_FSW_1 = daisy::seed::D25;
  38:hothouse.cpp  **** constexpr Pin PIN_FSW_2 = daisy::seed::D26;
  39:hothouse.cpp  **** 
  40:hothouse.cpp  **** // Knobs
  41:hothouse.cpp  **** constexpr Pin PIN_KNOB_1 = daisy::seed::D16;
  42:hothouse.cpp  **** constexpr Pin PIN_KNOB_2 = daisy::seed::D17;
  43:hothouse.cpp  **** constexpr Pin PIN_KNOB_3 = daisy::seed::D18;
  44:hothouse.cpp  **** constexpr Pin PIN_KNOB_4 = daisy::seed::D19;
  45:hothouse.cpp  **** constexpr Pin PIN_KNOB_5 = daisy::seed::D20;
  46:hothouse.cpp  **** constexpr Pin PIN_KNOB_6 = daisy::seed::D21;
  47:hothouse.cpp  **** 
  48:hothouse.cpp  **** const uint32_t Hothouse::HOLD_THRESHOLD_MS;
  49:hothouse.cpp  **** 
  50:hothouse.cpp  **** void Hothouse::Init(bool boost) {
  51:hothouse.cpp  ****   // Initialize the hardware.
  52:hothouse.cpp  ****   seed.Configure();
  53:hothouse.cpp  ****   seed.Init(boost);
  54:hothouse.cpp  ****   InitSwitches();
  55:hothouse.cpp  ****   InitAnalogControls();
  56:hothouse.cpp  ****   SetAudioBlockSize(48);
  57:hothouse.cpp  **** }
  58:hothouse.cpp  **** 
  59:hothouse.cpp  **** void Hothouse::DelayMs(size_t del) { seed.DelayMs(del); }
  30              		.loc 1 59 36 view -0
  31              		.cfi_startproc
  32              		@ args = 0, pretend = 0, frame = 0
  33              		@ frame_needed = 0, uses_anonymous_args = 0
  34              		@ link register save eliminated.
  35              		.loc 1 59 38 view .LVU1
  36              		.loc 1 59 50 is_stmt 0 view .LVU2
  37 0000 FFF7FEBF 		b	_ZN5daisy9DaisySeed7DelayMsEj
  38              	.LVL1:
  39              		.loc 1 59 50 view .LVU3
  40              		.cfi_endproc
  41              	.LFE2564:
  43              		.section	.text._ZN16clevelandmusicco8Hothouse17SetHidUpdateRatesEv,"ax",%progbits
  44              		.align	1
  45              		.p2align 2,,3
  46              		.global	_ZN16clevelandmusicco8Hothouse17SetHidUpdateRatesEv
  47              		.syntax unified
  48              		.thumb
  49              		.thumb_func
  50              		.fpu fpv5-d16
  52              	_ZN16clevelandmusicco8Hothouse17SetHidUpdateRatesEv:
  53              	.LVL2:
  54              	.LFB2565:
  60:hothouse.cpp  **** 
  61:hothouse.cpp  **** void Hothouse::SetHidUpdateRates() {
  55              		.loc 1 61 36 is_stmt 1 view -0
  56              		.cfi_startproc
ARM GAS  /tmp/cc6aP9AC.s 			page 3


  57              		@ args = 0, pretend = 0, frame = 0
  58              		@ frame_needed = 0, uses_anonymous_args = 0
  62:hothouse.cpp  ****   for (size_t i = 0; i < KNOB_LAST; i++) {
  59              		.loc 1 62 3 view .LVU5
  60              	.LBB86:
  61              		.loc 1 62 24 view .LVU6
  62              	.LBE86:
  61:hothouse.cpp  ****   for (size_t i = 0; i < KNOB_LAST; i++) {
  63              		.loc 1 61 36 is_stmt 0 view .LVU7
  64 0000 70B5     		push	{r4, r5, r6, lr}
  65              		.cfi_def_cfa_offset 16
  66              		.cfi_offset 4, -16
  67              		.cfi_offset 5, -12
  68              		.cfi_offset 6, -8
  69              		.cfi_offset 14, -4
  61:hothouse.cpp  ****   for (size_t i = 0; i < KNOB_LAST; i++) {
  70              		.loc 1 61 36 view .LVU8
  71 0002 0546     		mov	r5, r0
  72 0004 00F14004 		add	r4, r0, #64
  73 0008 00F58076 		add	r6, r0, #256
  74              	.LVL3:
  75              	.L4:
  76              	.LBB89:
  63:hothouse.cpp  ****     knobs[i].SetSampleRate(AudioCallbackRate());
  77              		.loc 1 63 5 is_stmt 1 discriminator 2 view .LVU9
  78              	.LBB87:
  79              	.LBI87:
  64:hothouse.cpp  ****   }
  65:hothouse.cpp  **** }
  66:hothouse.cpp  **** 
  67:hothouse.cpp  **** void Hothouse::StartAudio(AudioHandle::InterleavingAudioCallback cb) {
  68:hothouse.cpp  ****   seed.StartAudio(cb);
  69:hothouse.cpp  **** }
  70:hothouse.cpp  **** 
  71:hothouse.cpp  **** void Hothouse::StartAudio(AudioHandle::AudioCallback cb) {
  72:hothouse.cpp  ****   seed.StartAudio(cb);
  73:hothouse.cpp  **** }
  74:hothouse.cpp  **** 
  75:hothouse.cpp  **** void Hothouse::ChangeAudioCallback(AudioHandle::InterleavingAudioCallback cb) {
  76:hothouse.cpp  ****   seed.ChangeAudioCallback(cb);
  77:hothouse.cpp  **** }
  78:hothouse.cpp  **** 
  79:hothouse.cpp  **** void Hothouse::ChangeAudioCallback(AudioHandle::AudioCallback cb) {
  80:hothouse.cpp  ****   seed.ChangeAudioCallback(cb);
  81:hothouse.cpp  **** }
  82:hothouse.cpp  **** 
  83:hothouse.cpp  **** void Hothouse::StopAudio() { seed.StopAudio(); }
  84:hothouse.cpp  **** 
  85:hothouse.cpp  **** void Hothouse::SetAudioBlockSize(size_t size) {
  86:hothouse.cpp  ****   seed.SetAudioBlockSize(size);
  87:hothouse.cpp  ****   SetHidUpdateRates();
  88:hothouse.cpp  **** }
  89:hothouse.cpp  **** 
  90:hothouse.cpp  **** size_t Hothouse::AudioBlockSize() { return seed.AudioBlockSize(); }
  91:hothouse.cpp  **** 
  92:hothouse.cpp  **** void Hothouse::SetAudioSampleRate(SaiHandle::Config::SampleRate samplerate) {
  93:hothouse.cpp  ****   seed.SetAudioSampleRate(samplerate);
ARM GAS  /tmp/cc6aP9AC.s 			page 4


  94:hothouse.cpp  ****   SetHidUpdateRates();
  95:hothouse.cpp  **** }
  96:hothouse.cpp  **** 
  97:hothouse.cpp  **** float Hothouse::AudioSampleRate() { return seed.AudioSampleRate(); }
  98:hothouse.cpp  **** 
  99:hothouse.cpp  **** float Hothouse::AudioCallbackRate() { return seed.AudioCallbackRate(); }
  80              		.loc 1 99 7 discriminator 2 view .LVU10
  81              	.LBB88:
  82              		.loc 1 99 39 discriminator 2 view .LVU11
  83              		.loc 1 99 68 is_stmt 0 discriminator 2 view .LVU12
  84 000c 2846     		mov	r0, r5
  85 000e FFF7FEFF 		bl	_ZNK5daisy9DaisySeed17AudioCallbackRateEv
  86              	.LVL4:
  87              		.loc 1 99 68 discriminator 2 view .LVU13
  88              	.LBE88:
  89              	.LBE87:
  63:hothouse.cpp  ****     knobs[i].SetSampleRate(AudioCallbackRate());
  90              		.loc 1 63 27 discriminator 2 view .LVU14
  91 0012 2046     		mov	r0, r4
  62:hothouse.cpp  ****     knobs[i].SetSampleRate(AudioCallbackRate());
  92              		.loc 1 62 24 discriminator 2 view .LVU15
  93 0014 2034     		adds	r4, r4, #32
  63:hothouse.cpp  ****     knobs[i].SetSampleRate(AudioCallbackRate());
  94              		.loc 1 63 27 discriminator 2 view .LVU16
  95 0016 FFF7FEFF 		bl	_ZN5daisy13AnalogControl13SetSampleRateEf
  96              	.LVL5:
  62:hothouse.cpp  ****     knobs[i].SetSampleRate(AudioCallbackRate());
  97              		.loc 1 62 3 is_stmt 1 discriminator 2 view .LVU17
  62:hothouse.cpp  ****     knobs[i].SetSampleRate(AudioCallbackRate());
  98              		.loc 1 62 24 discriminator 2 view .LVU18
  99 001a B442     		cmp	r4, r6
 100 001c F6D1     		bne	.L4
 101              	.LBE89:
  65:hothouse.cpp  **** 
 102              		.loc 1 65 1 is_stmt 0 view .LVU19
 103 001e 70BD     		pop	{r4, r5, r6, pc}
  65:hothouse.cpp  **** 
 104              		.loc 1 65 1 view .LVU20
 105              		.cfi_endproc
 106              	.LFE2565:
 108              		.section	.text._ZN16clevelandmusicco8Hothouse10StartAudioEPFvPKfPfjE,"ax",%progbits
 109              		.align	1
 110              		.p2align 2,,3
 111              		.global	_ZN16clevelandmusicco8Hothouse10StartAudioEPFvPKfPfjE
 112              		.syntax unified
 113              		.thumb
 114              		.thumb_func
 115              		.fpu fpv5-d16
 117              	_ZN16clevelandmusicco8Hothouse10StartAudioEPFvPKfPfjE:
 118              	.LVL6:
 119              	.LFB2566:
  67:hothouse.cpp  ****   seed.StartAudio(cb);
 120              		.loc 1 67 70 is_stmt 1 view -0
 121              		.cfi_startproc
 122              		@ args = 0, pretend = 0, frame = 0
 123              		@ frame_needed = 0, uses_anonymous_args = 0
 124              		@ link register save eliminated.
ARM GAS  /tmp/cc6aP9AC.s 			page 5


  68:hothouse.cpp  **** }
 125              		.loc 1 68 3 view .LVU22
  68:hothouse.cpp  **** }
 126              		.loc 1 68 18 is_stmt 0 view .LVU23
 127 0000 FFF7FEBF 		b	_ZN5daisy9DaisySeed10StartAudioEPFvPKfPfjE
 128              	.LVL7:
  68:hothouse.cpp  **** }
 129              		.loc 1 68 18 view .LVU24
 130              		.cfi_endproc
 131              	.LFE2566:
 133              		.section	.text._ZN16clevelandmusicco8Hothouse10StartAudioEPFvPKPKfPPfjE,"ax",%progbits
 134              		.align	1
 135              		.p2align 2,,3
 136              		.global	_ZN16clevelandmusicco8Hothouse10StartAudioEPFvPKPKfPPfjE
 137              		.syntax unified
 138              		.thumb
 139              		.thumb_func
 140              		.fpu fpv5-d16
 142              	_ZN16clevelandmusicco8Hothouse10StartAudioEPFvPKPKfPPfjE:
 143              	.LVL8:
 144              	.LFB2567:
  71:hothouse.cpp  ****   seed.StartAudio(cb);
 145              		.loc 1 71 58 is_stmt 1 view -0
 146              		.cfi_startproc
 147              		@ args = 0, pretend = 0, frame = 0
 148              		@ frame_needed = 0, uses_anonymous_args = 0
 149              		@ link register save eliminated.
  72:hothouse.cpp  **** }
 150              		.loc 1 72 3 view .LVU26
  72:hothouse.cpp  **** }
 151              		.loc 1 72 18 is_stmt 0 view .LVU27
 152 0000 FFF7FEBF 		b	_ZN5daisy9DaisySeed10StartAudioEPFvPKPKfPPfjE
 153              	.LVL9:
  72:hothouse.cpp  **** }
 154              		.loc 1 72 18 view .LVU28
 155              		.cfi_endproc
 156              	.LFE2567:
 158              		.section	.text._ZN16clevelandmusicco8Hothouse19ChangeAudioCallbackEPFvPKfPfjE,"ax",%progbits
 159              		.align	1
 160              		.p2align 2,,3
 161              		.global	_ZN16clevelandmusicco8Hothouse19ChangeAudioCallbackEPFvPKfPfjE
 162              		.syntax unified
 163              		.thumb
 164              		.thumb_func
 165              		.fpu fpv5-d16
 167              	_ZN16clevelandmusicco8Hothouse19ChangeAudioCallbackEPFvPKfPfjE:
 168              	.LVL10:
 169              	.LFB2568:
  75:hothouse.cpp  ****   seed.ChangeAudioCallback(cb);
 170              		.loc 1 75 79 is_stmt 1 view -0
 171              		.cfi_startproc
 172              		@ args = 0, pretend = 0, frame = 0
 173              		@ frame_needed = 0, uses_anonymous_args = 0
 174              		@ link register save eliminated.
  76:hothouse.cpp  **** }
 175              		.loc 1 76 3 view .LVU30
  76:hothouse.cpp  **** }
ARM GAS  /tmp/cc6aP9AC.s 			page 6


 176              		.loc 1 76 27 is_stmt 0 view .LVU31
 177 0000 FFF7FEBF 		b	_ZN5daisy9DaisySeed19ChangeAudioCallbackEPFvPKfPfjE
 178              	.LVL11:
  76:hothouse.cpp  **** }
 179              		.loc 1 76 27 view .LVU32
 180              		.cfi_endproc
 181              	.LFE2568:
 183              		.section	.text._ZN16clevelandmusicco8Hothouse19ChangeAudioCallbackEPFvPKPKfPPfjE,"ax",%progbits
 184              		.align	1
 185              		.p2align 2,,3
 186              		.global	_ZN16clevelandmusicco8Hothouse19ChangeAudioCallbackEPFvPKPKfPPfjE
 187              		.syntax unified
 188              		.thumb
 189              		.thumb_func
 190              		.fpu fpv5-d16
 192              	_ZN16clevelandmusicco8Hothouse19ChangeAudioCallbackEPFvPKPKfPPfjE:
 193              	.LVL12:
 194              	.LFB2569:
  79:hothouse.cpp  ****   seed.ChangeAudioCallback(cb);
 195              		.loc 1 79 67 is_stmt 1 view -0
 196              		.cfi_startproc
 197              		@ args = 0, pretend = 0, frame = 0
 198              		@ frame_needed = 0, uses_anonymous_args = 0
 199              		@ link register save eliminated.
  80:hothouse.cpp  **** }
 200              		.loc 1 80 3 view .LVU34
  80:hothouse.cpp  **** }
 201              		.loc 1 80 27 is_stmt 0 view .LVU35
 202 0000 FFF7FEBF 		b	_ZN5daisy9DaisySeed19ChangeAudioCallbackEPFvPKPKfPPfjE
 203              	.LVL13:
  80:hothouse.cpp  **** }
 204              		.loc 1 80 27 view .LVU36
 205              		.cfi_endproc
 206              	.LFE2569:
 208              		.section	.text._ZN16clevelandmusicco8Hothouse9StopAudioEv,"ax",%progbits
 209              		.align	1
 210              		.p2align 2,,3
 211              		.global	_ZN16clevelandmusicco8Hothouse9StopAudioEv
 212              		.syntax unified
 213              		.thumb
 214              		.thumb_func
 215              		.fpu fpv5-d16
 217              	_ZN16clevelandmusicco8Hothouse9StopAudioEv:
 218              	.LVL14:
 219              	.LFB2570:
  83:hothouse.cpp  **** 
 220              		.loc 1 83 28 is_stmt 1 view -0
 221              		.cfi_startproc
 222              		@ args = 0, pretend = 0, frame = 0
 223              		@ frame_needed = 0, uses_anonymous_args = 0
 224              		@ link register save eliminated.
  83:hothouse.cpp  **** 
 225              		.loc 1 83 30 view .LVU38
  83:hothouse.cpp  **** 
 226              		.loc 1 83 44 is_stmt 0 view .LVU39
 227 0000 FFF7FEBF 		b	_ZN5daisy9DaisySeed9StopAudioEv
 228              	.LVL15:
ARM GAS  /tmp/cc6aP9AC.s 			page 7


  83:hothouse.cpp  **** 
 229              		.loc 1 83 44 view .LVU40
 230              		.cfi_endproc
 231              	.LFE2570:
 233              		.section	.text._ZN16clevelandmusicco8Hothouse17SetAudioBlockSizeEj,"ax",%progbits
 234              		.align	1
 235              		.p2align 2,,3
 236              		.global	_ZN16clevelandmusicco8Hothouse17SetAudioBlockSizeEj
 237              		.syntax unified
 238              		.thumb
 239              		.thumb_func
 240              		.fpu fpv5-d16
 242              	_ZN16clevelandmusicco8Hothouse17SetAudioBlockSizeEj:
 243              	.LVL16:
 244              	.LFB2571:
  85:hothouse.cpp  ****   seed.SetAudioBlockSize(size);
 245              		.loc 1 85 47 is_stmt 1 view -0
 246              		.cfi_startproc
 247              		@ args = 0, pretend = 0, frame = 0
 248              		@ frame_needed = 0, uses_anonymous_args = 0
  86:hothouse.cpp  ****   SetHidUpdateRates();
 249              		.loc 1 86 3 view .LVU42
  85:hothouse.cpp  ****   seed.SetAudioBlockSize(size);
 250              		.loc 1 85 47 is_stmt 0 view .LVU43
 251 0000 70B5     		push	{r4, r5, r6, lr}
 252              		.cfi_def_cfa_offset 16
 253              		.cfi_offset 4, -16
 254              		.cfi_offset 5, -12
 255              		.cfi_offset 6, -8
 256              		.cfi_offset 14, -4
  85:hothouse.cpp  ****   seed.SetAudioBlockSize(size);
 257              		.loc 1 85 47 view .LVU44
 258 0002 0546     		mov	r5, r0
  86:hothouse.cpp  ****   SetHidUpdateRates();
 259              		.loc 1 86 25 view .LVU45
 260 0004 FFF7FEFF 		bl	_ZN5daisy9DaisySeed17SetAudioBlockSizeEj
 261              	.LVL17:
  87:hothouse.cpp  **** }
 262              		.loc 1 87 3 is_stmt 1 view .LVU46
 263              	.LBB95:
 264              	.LBI95:
  61:hothouse.cpp  ****   for (size_t i = 0; i < KNOB_LAST; i++) {
 265              		.loc 1 61 6 view .LVU47
 266              	.LBB96:
  62:hothouse.cpp  ****     knobs[i].SetSampleRate(AudioCallbackRate());
 267              		.loc 1 62 24 view .LVU48
 268 0008 05F14004 		add	r4, r5, #64
 269 000c 05F58076 		add	r6, r5, #256
 270              	.LVL18:
 271              	.L13:
  63:hothouse.cpp  ****   }
 272              		.loc 1 63 5 view .LVU49
 273              	.LBB97:
 274              	.LBI97:
 275              		.loc 1 99 7 view .LVU50
 276              	.LBB98:
 277              		.loc 1 99 39 view .LVU51
ARM GAS  /tmp/cc6aP9AC.s 			page 8


 278              		.loc 1 99 68 is_stmt 0 view .LVU52
 279 0010 2846     		mov	r0, r5
 280 0012 FFF7FEFF 		bl	_ZNK5daisy9DaisySeed17AudioCallbackRateEv
 281              	.LVL19:
 282              		.loc 1 99 68 view .LVU53
 283              	.LBE98:
 284              	.LBE97:
  63:hothouse.cpp  ****   }
 285              		.loc 1 63 27 view .LVU54
 286 0016 2046     		mov	r0, r4
  62:hothouse.cpp  ****     knobs[i].SetSampleRate(AudioCallbackRate());
 287              		.loc 1 62 24 view .LVU55
 288 0018 2034     		adds	r4, r4, #32
  63:hothouse.cpp  ****   }
 289              		.loc 1 63 27 view .LVU56
 290 001a FFF7FEFF 		bl	_ZN5daisy13AnalogControl13SetSampleRateEf
 291              	.LVL20:
  62:hothouse.cpp  ****     knobs[i].SetSampleRate(AudioCallbackRate());
 292              		.loc 1 62 3 is_stmt 1 view .LVU57
  62:hothouse.cpp  ****     knobs[i].SetSampleRate(AudioCallbackRate());
 293              		.loc 1 62 24 view .LVU58
 294 001e B442     		cmp	r4, r6
 295 0020 F6D1     		bne	.L13
 296              	.LBE96:
 297              	.LBE95:
  88:hothouse.cpp  **** 
 298              		.loc 1 88 1 is_stmt 0 view .LVU59
 299 0022 70BD     		pop	{r4, r5, r6, pc}
  88:hothouse.cpp  **** 
 300              		.loc 1 88 1 view .LVU60
 301              		.cfi_endproc
 302              	.LFE2571:
 304              		.section	.text._ZN16clevelandmusicco8Hothouse14AudioBlockSizeEv,"ax",%progbits
 305              		.align	1
 306              		.p2align 2,,3
 307              		.global	_ZN16clevelandmusicco8Hothouse14AudioBlockSizeEv
 308              		.syntax unified
 309              		.thumb
 310              		.thumb_func
 311              		.fpu fpv5-d16
 313              	_ZN16clevelandmusicco8Hothouse14AudioBlockSizeEv:
 314              	.LVL21:
 315              	.LFB2572:
  90:hothouse.cpp  **** 
 316              		.loc 1 90 35 is_stmt 1 view -0
 317              		.cfi_startproc
 318              		@ args = 0, pretend = 0, frame = 0
 319              		@ frame_needed = 0, uses_anonymous_args = 0
 320              		@ link register save eliminated.
  90:hothouse.cpp  **** 
 321              		.loc 1 90 37 view .LVU62
  90:hothouse.cpp  **** 
 322              		.loc 1 90 63 is_stmt 0 view .LVU63
 323 0000 FFF7FEBF 		b	_ZN5daisy9DaisySeed14AudioBlockSizeEv
 324              	.LVL22:
  90:hothouse.cpp  **** 
 325              		.loc 1 90 63 view .LVU64
ARM GAS  /tmp/cc6aP9AC.s 			page 9


 326              		.cfi_endproc
 327              	.LFE2572:
 329              		.section	.text._ZN16clevelandmusicco8Hothouse18SetAudioSampleRateEN5daisy9SaiHandle6Config10Sample
 330              		.align	1
 331              		.p2align 2,,3
 332              		.global	_ZN16clevelandmusicco8Hothouse18SetAudioSampleRateEN5daisy9SaiHandle6Config10SampleRateE
 333              		.syntax unified
 334              		.thumb
 335              		.thumb_func
 336              		.fpu fpv5-d16
 338              	_ZN16clevelandmusicco8Hothouse18SetAudioSampleRateEN5daisy9SaiHandle6Config10SampleRateE:
 339              	.LVL23:
 340              	.LFB2573:
  92:hothouse.cpp  ****   seed.SetAudioSampleRate(samplerate);
 341              		.loc 1 92 77 is_stmt 1 view -0
 342              		.cfi_startproc
 343              		@ args = 0, pretend = 0, frame = 0
 344              		@ frame_needed = 0, uses_anonymous_args = 0
  93:hothouse.cpp  ****   SetHidUpdateRates();
 345              		.loc 1 93 3 view .LVU66
  92:hothouse.cpp  ****   seed.SetAudioSampleRate(samplerate);
 346              		.loc 1 92 77 is_stmt 0 view .LVU67
 347 0000 70B5     		push	{r4, r5, r6, lr}
 348              		.cfi_def_cfa_offset 16
 349              		.cfi_offset 4, -16
 350              		.cfi_offset 5, -12
 351              		.cfi_offset 6, -8
 352              		.cfi_offset 14, -4
  92:hothouse.cpp  ****   seed.SetAudioSampleRate(samplerate);
 353              		.loc 1 92 77 view .LVU68
 354 0002 0546     		mov	r5, r0
  93:hothouse.cpp  ****   SetHidUpdateRates();
 355              		.loc 1 93 26 view .LVU69
 356 0004 FFF7FEFF 		bl	_ZN5daisy9DaisySeed18SetAudioSampleRateENS_9SaiHandle6Config10SampleRateE
 357              	.LVL24:
  94:hothouse.cpp  **** }
 358              		.loc 1 94 3 is_stmt 1 view .LVU70
 359              	.LBB104:
 360              	.LBI104:
  61:hothouse.cpp  ****   for (size_t i = 0; i < KNOB_LAST; i++) {
 361              		.loc 1 61 6 view .LVU71
 362              	.LBB105:
  62:hothouse.cpp  ****     knobs[i].SetSampleRate(AudioCallbackRate());
 363              		.loc 1 62 24 view .LVU72
 364 0008 05F14004 		add	r4, r5, #64
 365 000c 05F58076 		add	r6, r5, #256
 366              	.LVL25:
 367              	.L18:
  63:hothouse.cpp  ****   }
 368              		.loc 1 63 5 view .LVU73
 369              	.LBB106:
 370              	.LBI106:
 371              		.loc 1 99 7 view .LVU74
 372              	.LBB107:
 373              		.loc 1 99 39 view .LVU75
 374              		.loc 1 99 68 is_stmt 0 view .LVU76
 375 0010 2846     		mov	r0, r5
ARM GAS  /tmp/cc6aP9AC.s 			page 10


 376 0012 FFF7FEFF 		bl	_ZNK5daisy9DaisySeed17AudioCallbackRateEv
 377              	.LVL26:
 378              		.loc 1 99 68 view .LVU77
 379              	.LBE107:
 380              	.LBE106:
  63:hothouse.cpp  ****   }
 381              		.loc 1 63 27 view .LVU78
 382 0016 2046     		mov	r0, r4
  62:hothouse.cpp  ****     knobs[i].SetSampleRate(AudioCallbackRate());
 383              		.loc 1 62 24 view .LVU79
 384 0018 2034     		adds	r4, r4, #32
  63:hothouse.cpp  ****   }
 385              		.loc 1 63 27 view .LVU80
 386 001a FFF7FEFF 		bl	_ZN5daisy13AnalogControl13SetSampleRateEf
 387              	.LVL27:
  62:hothouse.cpp  ****     knobs[i].SetSampleRate(AudioCallbackRate());
 388              		.loc 1 62 3 is_stmt 1 view .LVU81
  62:hothouse.cpp  ****     knobs[i].SetSampleRate(AudioCallbackRate());
 389              		.loc 1 62 24 view .LVU82
 390 001e B442     		cmp	r4, r6
 391 0020 F6D1     		bne	.L18
 392              	.LBE105:
 393              	.LBE104:
  95:hothouse.cpp  **** 
 394              		.loc 1 95 1 is_stmt 0 view .LVU83
 395 0022 70BD     		pop	{r4, r5, r6, pc}
  95:hothouse.cpp  **** 
 396              		.loc 1 95 1 view .LVU84
 397              		.cfi_endproc
 398              	.LFE2573:
 400              		.section	.text._ZN16clevelandmusicco8Hothouse15AudioSampleRateEv,"ax",%progbits
 401              		.align	1
 402              		.p2align 2,,3
 403              		.global	_ZN16clevelandmusicco8Hothouse15AudioSampleRateEv
 404              		.syntax unified
 405              		.thumb
 406              		.thumb_func
 407              		.fpu fpv5-d16
 409              	_ZN16clevelandmusicco8Hothouse15AudioSampleRateEv:
 410              	.LVL28:
 411              	.LFB2574:
  97:hothouse.cpp  **** 
 412              		.loc 1 97 35 is_stmt 1 view -0
 413              		.cfi_startproc
 414              		@ args = 0, pretend = 0, frame = 0
 415              		@ frame_needed = 0, uses_anonymous_args = 0
 416              		@ link register save eliminated.
  97:hothouse.cpp  **** 
 417              		.loc 1 97 37 view .LVU86
  97:hothouse.cpp  **** 
 418              		.loc 1 97 64 is_stmt 0 view .LVU87
 419 0000 FFF7FEBF 		b	_ZN5daisy9DaisySeed15AudioSampleRateEv
 420              	.LVL29:
  97:hothouse.cpp  **** 
 421              		.loc 1 97 64 view .LVU88
 422              		.cfi_endproc
 423              	.LFE2574:
ARM GAS  /tmp/cc6aP9AC.s 			page 11


 425              		.section	.text._ZN16clevelandmusicco8Hothouse17AudioCallbackRateEv,"ax",%progbits
 426              		.align	1
 427              		.p2align 2,,3
 428              		.global	_ZN16clevelandmusicco8Hothouse17AudioCallbackRateEv
 429              		.syntax unified
 430              		.thumb
 431              		.thumb_func
 432              		.fpu fpv5-d16
 434              	_ZN16clevelandmusicco8Hothouse17AudioCallbackRateEv:
 435              	.LVL30:
 436              	.LFB2575:
 437              		.loc 1 99 37 is_stmt 1 view -0
 438              		.cfi_startproc
 439              		@ args = 0, pretend = 0, frame = 0
 440              		@ frame_needed = 0, uses_anonymous_args = 0
 441              		@ link register save eliminated.
 442              		.loc 1 99 39 view .LVU90
 443              		.loc 1 99 68 is_stmt 0 view .LVU91
 444 0000 FFF7FEBF 		b	_ZNK5daisy9DaisySeed17AudioCallbackRateEv
 445              	.LVL31:
 446              		.loc 1 99 68 view .LVU92
 447              		.cfi_endproc
 448              	.LFE2575:
 450              		.section	.text._ZN16clevelandmusicco8Hothouse8StartAdcEv,"ax",%progbits
 451              		.align	1
 452              		.p2align 2,,3
 453              		.global	_ZN16clevelandmusicco8Hothouse8StartAdcEv
 454              		.syntax unified
 455              		.thumb
 456              		.thumb_func
 457              		.fpu fpv5-d16
 459              	_ZN16clevelandmusicco8Hothouse8StartAdcEv:
 460              	.LVL32:
 461              	.LFB2576:
 100:hothouse.cpp  **** 
 101:hothouse.cpp  **** void Hothouse::StartAdc() { seed.adc.Start(); }
 462              		.loc 1 101 27 is_stmt 1 view -0
 463              		.cfi_startproc
 464              		@ args = 0, pretend = 0, frame = 0
 465              		@ frame_needed = 0, uses_anonymous_args = 0
 466              		@ link register save eliminated.
 467              		.loc 1 101 29 view .LVU94
 468              		.loc 1 101 43 is_stmt 0 view .LVU95
 469 0000 1830     		adds	r0, r0, #24
 470              	.LVL33:
 471              		.loc 1 101 43 view .LVU96
 472 0002 FFF7FEBF 		b	_ZN5daisy9AdcHandle5StartEv
 473              	.LVL34:
 474              		.loc 1 101 43 view .LVU97
 475              		.cfi_endproc
 476              	.LFE2576:
 478 0006 00BF     		.section	.text._ZN16clevelandmusicco8Hothouse7StopAdcEv,"ax",%progbits
 479              		.align	1
 480              		.p2align 2,,3
 481              		.global	_ZN16clevelandmusicco8Hothouse7StopAdcEv
 482              		.syntax unified
 483              		.thumb
ARM GAS  /tmp/cc6aP9AC.s 			page 12


 484              		.thumb_func
 485              		.fpu fpv5-d16
 487              	_ZN16clevelandmusicco8Hothouse7StopAdcEv:
 488              	.LVL35:
 489              	.LFB2577:
 102:hothouse.cpp  **** 
 103:hothouse.cpp  **** void Hothouse::StopAdc() { seed.adc.Stop(); }
 490              		.loc 1 103 26 is_stmt 1 view -0
 491              		.cfi_startproc
 492              		@ args = 0, pretend = 0, frame = 0
 493              		@ frame_needed = 0, uses_anonymous_args = 0
 494              		@ link register save eliminated.
 495              		.loc 1 103 28 view .LVU99
 496              		.loc 1 103 41 is_stmt 0 view .LVU100
 497 0000 1830     		adds	r0, r0, #24
 498              	.LVL36:
 499              		.loc 1 103 41 view .LVU101
 500 0002 FFF7FEBF 		b	_ZN5daisy9AdcHandle4StopEv
 501              	.LVL37:
 502              		.loc 1 103 41 view .LVU102
 503              		.cfi_endproc
 504              	.LFE2577:
 506 0006 00BF     		.section	.text._ZN16clevelandmusicco8Hothouse21ProcessAnalogControlsEv,"ax",%progbits
 507              		.align	1
 508              		.p2align 2,,3
 509              		.global	_ZN16clevelandmusicco8Hothouse21ProcessAnalogControlsEv
 510              		.syntax unified
 511              		.thumb
 512              		.thumb_func
 513              		.fpu fpv5-d16
 515              	_ZN16clevelandmusicco8Hothouse21ProcessAnalogControlsEv:
 516              	.LVL38:
 517              	.LFB2578:
 104:hothouse.cpp  **** 
 105:hothouse.cpp  **** void Hothouse::ProcessAnalogControls() {
 518              		.loc 1 105 40 is_stmt 1 view -0
 519              		.cfi_startproc
 520              		@ args = 0, pretend = 0, frame = 0
 521              		@ frame_needed = 0, uses_anonymous_args = 0
 106:hothouse.cpp  ****   for (size_t i = 0; i < KNOB_LAST; i++) {
 522              		.loc 1 106 3 view .LVU104
 523              	.LBB108:
 524              		.loc 1 106 24 view .LVU105
 525              	.LBE108:
 105:hothouse.cpp  ****   for (size_t i = 0; i < KNOB_LAST; i++) {
 526              		.loc 1 105 40 is_stmt 0 view .LVU106
 527 0000 38B5     		push	{r3, r4, r5, lr}
 528              		.cfi_def_cfa_offset 16
 529              		.cfi_offset 3, -16
 530              		.cfi_offset 4, -12
 531              		.cfi_offset 5, -8
 532              		.cfi_offset 14, -4
 533 0002 00F14004 		add	r4, r0, #64
 534 0006 00F58075 		add	r5, r0, #256
 535              	.LVL39:
 536              	.L26:
 537              	.LBB109:
ARM GAS  /tmp/cc6aP9AC.s 			page 13


 107:hothouse.cpp  ****     knobs[i].Process();
 538              		.loc 1 107 5 is_stmt 1 discriminator 2 view .LVU107
 539              		.loc 1 107 21 is_stmt 0 discriminator 2 view .LVU108
 540 000a 2046     		mov	r0, r4
 106:hothouse.cpp  ****   for (size_t i = 0; i < KNOB_LAST; i++) {
 541              		.loc 1 106 24 discriminator 2 view .LVU109
 542 000c 2034     		adds	r4, r4, #32
 543              		.loc 1 107 21 discriminator 2 view .LVU110
 544 000e FFF7FEFF 		bl	_ZN5daisy13AnalogControl7ProcessEv
 545              	.LVL40:
 106:hothouse.cpp  ****   for (size_t i = 0; i < KNOB_LAST; i++) {
 546              		.loc 1 106 3 is_stmt 1 discriminator 2 view .LVU111
 106:hothouse.cpp  ****   for (size_t i = 0; i < KNOB_LAST; i++) {
 547              		.loc 1 106 24 discriminator 2 view .LVU112
 548 0012 AC42     		cmp	r4, r5
 549 0014 F9D1     		bne	.L26
 550              	.LBE109:
 108:hothouse.cpp  ****   }
 109:hothouse.cpp  **** }
 551              		.loc 1 109 1 is_stmt 0 view .LVU113
 552 0016 38BD     		pop	{r3, r4, r5, pc}
 553              		.loc 1 109 1 view .LVU114
 554              		.cfi_endproc
 555              	.LFE2578:
 557              		.section	.text._ZN16clevelandmusicco8Hothouse12GetKnobValueENS0_4KnobE,"ax",%progbits
 558              		.align	1
 559              		.p2align 2,,3
 560              		.global	_ZN16clevelandmusicco8Hothouse12GetKnobValueENS0_4KnobE
 561              		.syntax unified
 562              		.thumb
 563              		.thumb_func
 564              		.fpu fpv5-d16
 566              	_ZN16clevelandmusicco8Hothouse12GetKnobValueENS0_4KnobE:
 567              	.LVL41:
 568              	.LFB2579:
 110:hothouse.cpp  **** 
 111:hothouse.cpp  **** float Hothouse::GetKnobValue(Knob k) {
 569              		.loc 1 111 38 is_stmt 1 view -0
 570              		.cfi_startproc
 571              		@ args = 0, pretend = 0, frame = 0
 572              		@ frame_needed = 0, uses_anonymous_args = 0
 573              		@ link register save eliminated.
 112:hothouse.cpp  ****   size_t idx;
 574              		.loc 1 112 3 view .LVU116
 113:hothouse.cpp  ****   idx = k < KNOB_LAST ? k : KNOB_1;
 575              		.loc 1 113 3 view .LVU117
 576              		.loc 1 113 23 is_stmt 0 view .LVU118
 577 0000 0629     		cmp	r1, #6
 578 0002 28BF     		it	cs
 579 0004 0021     		movcs	r1, #0
 580              	.LVL42:
 114:hothouse.cpp  ****   return knobs[idx].Value();
 581              		.loc 1 114 3 is_stmt 1 view .LVU119
 582              	.LBB110:
 583              	.LBI110:
 584              		.file 2 "/home/ubuntu/DaisyExamples/libDaisy/src/hid/ctrl.h"
   1:/home/ubuntu/DaisyExamples/libDaisy/src/hid/ctrl.h **** #pragma once
ARM GAS  /tmp/cc6aP9AC.s 			page 14


   2:/home/ubuntu/DaisyExamples/libDaisy/src/hid/ctrl.h **** #ifndef DSY_KNOB_H
   3:/home/ubuntu/DaisyExamples/libDaisy/src/hid/ctrl.h **** #define DSY_KNOB_H /**< & */
   4:/home/ubuntu/DaisyExamples/libDaisy/src/hid/ctrl.h **** #include <stdint.h>
   5:/home/ubuntu/DaisyExamples/libDaisy/src/hid/ctrl.h **** 
   6:/home/ubuntu/DaisyExamples/libDaisy/src/hid/ctrl.h **** #ifdef __cplusplus
   7:/home/ubuntu/DaisyExamples/libDaisy/src/hid/ctrl.h **** namespace daisy
   8:/home/ubuntu/DaisyExamples/libDaisy/src/hid/ctrl.h **** {
   9:/home/ubuntu/DaisyExamples/libDaisy/src/hid/ctrl.h **** /**
  10:/home/ubuntu/DaisyExamples/libDaisy/src/hid/ctrl.h ****     @brief Hardware Interface for control inputs \n 
  11:/home/ubuntu/DaisyExamples/libDaisy/src/hid/ctrl.h ****     Primarily designed for ADC input controls such as \n 
  12:/home/ubuntu/DaisyExamples/libDaisy/src/hid/ctrl.h ****     potentiometers, and control voltage. \n 
  13:/home/ubuntu/DaisyExamples/libDaisy/src/hid/ctrl.h ****     @author Stephen Hensley
  14:/home/ubuntu/DaisyExamples/libDaisy/src/hid/ctrl.h ****     @date November 2019
  15:/home/ubuntu/DaisyExamples/libDaisy/src/hid/ctrl.h ****     @ingroup controls
  16:/home/ubuntu/DaisyExamples/libDaisy/src/hid/ctrl.h **** */
  17:/home/ubuntu/DaisyExamples/libDaisy/src/hid/ctrl.h **** class AnalogControl
  18:/home/ubuntu/DaisyExamples/libDaisy/src/hid/ctrl.h **** {
  19:/home/ubuntu/DaisyExamples/libDaisy/src/hid/ctrl.h ****   public:
  20:/home/ubuntu/DaisyExamples/libDaisy/src/hid/ctrl.h ****     /** Constructor */
  21:/home/ubuntu/DaisyExamples/libDaisy/src/hid/ctrl.h ****     AnalogControl() {}
  22:/home/ubuntu/DaisyExamples/libDaisy/src/hid/ctrl.h ****     /** destructor */
  23:/home/ubuntu/DaisyExamples/libDaisy/src/hid/ctrl.h ****     ~AnalogControl() {}
  24:/home/ubuntu/DaisyExamples/libDaisy/src/hid/ctrl.h **** 
  25:/home/ubuntu/DaisyExamples/libDaisy/src/hid/ctrl.h ****     /** 
  26:/home/ubuntu/DaisyExamples/libDaisy/src/hid/ctrl.h ****     Initializes the control
  27:/home/ubuntu/DaisyExamples/libDaisy/src/hid/ctrl.h ****     \param *adcptr is a pointer to the raw adc read value -- This can be acquired with dsy_adc_get_
  28:/home/ubuntu/DaisyExamples/libDaisy/src/hid/ctrl.h ****     \param sr is the samplerate in Hz that the Process function will be called at.
  29:/home/ubuntu/DaisyExamples/libDaisy/src/hid/ctrl.h ****     \param flip determines whether the input is flipped (i.e. 1.f - input) or not before being proc
  30:/home/ubuntu/DaisyExamples/libDaisy/src/hid/ctrl.h ****     \param invert determines whether the input is inverted (i.e. -1.f * input) or note before being
  31:/home/ubuntu/DaisyExamples/libDaisy/src/hid/ctrl.h ****     \param slew_seconds is the slew time in seconds that it takes for the control to change to a ne
  32:/home/ubuntu/DaisyExamples/libDaisy/src/hid/ctrl.h ****     */
  33:/home/ubuntu/DaisyExamples/libDaisy/src/hid/ctrl.h ****     void Init(uint16_t *adcptr,
  34:/home/ubuntu/DaisyExamples/libDaisy/src/hid/ctrl.h ****               float     sr,
  35:/home/ubuntu/DaisyExamples/libDaisy/src/hid/ctrl.h ****               bool      flip         = false,
  36:/home/ubuntu/DaisyExamples/libDaisy/src/hid/ctrl.h ****               bool      invert       = false,
  37:/home/ubuntu/DaisyExamples/libDaisy/src/hid/ctrl.h ****               float     slew_seconds = 0.002f);
  38:/home/ubuntu/DaisyExamples/libDaisy/src/hid/ctrl.h **** 
  39:/home/ubuntu/DaisyExamples/libDaisy/src/hid/ctrl.h ****     /** 
  40:/home/ubuntu/DaisyExamples/libDaisy/src/hid/ctrl.h ****     This Initializes the AnalogControl for a -5V to 5V inverted input
  41:/home/ubuntu/DaisyExamples/libDaisy/src/hid/ctrl.h ****     All of the Init details are the same otherwise
  42:/home/ubuntu/DaisyExamples/libDaisy/src/hid/ctrl.h ****     \param *adcptr Pointer to analog digital converter
  43:/home/ubuntu/DaisyExamples/libDaisy/src/hid/ctrl.h ****     \param sr Audio engine sample rate
  44:/home/ubuntu/DaisyExamples/libDaisy/src/hid/ctrl.h ****     */
  45:/home/ubuntu/DaisyExamples/libDaisy/src/hid/ctrl.h ****     void InitBipolarCv(uint16_t *adcptr, float sr);
  46:/home/ubuntu/DaisyExamples/libDaisy/src/hid/ctrl.h **** 
  47:/home/ubuntu/DaisyExamples/libDaisy/src/hid/ctrl.h ****     /** 
  48:/home/ubuntu/DaisyExamples/libDaisy/src/hid/ctrl.h ****     Filters, and transforms a raw ADC read into a normalized range.
  49:/home/ubuntu/DaisyExamples/libDaisy/src/hid/ctrl.h ****     this should be called at the rate of specified by samplerate at Init time.   
  50:/home/ubuntu/DaisyExamples/libDaisy/src/hid/ctrl.h ****     Default Initializations will return 0.0 -> 1.0
  51:/home/ubuntu/DaisyExamples/libDaisy/src/hid/ctrl.h ****     Bi-polar CV inputs will return -1.0 -> 1.0
  52:/home/ubuntu/DaisyExamples/libDaisy/src/hid/ctrl.h ****     */
  53:/home/ubuntu/DaisyExamples/libDaisy/src/hid/ctrl.h ****     float Process();
  54:/home/ubuntu/DaisyExamples/libDaisy/src/hid/ctrl.h **** 
  55:/home/ubuntu/DaisyExamples/libDaisy/src/hid/ctrl.h ****     /** Returns the current stored value, without reprocessing */
  56:/home/ubuntu/DaisyExamples/libDaisy/src/hid/ctrl.h ****     inline float Value() const { return val_; }
 585              		.loc 2 56 18 view .LVU120
 586              	.LBB111:
ARM GAS  /tmp/cc6aP9AC.s 			page 15


 587              		.loc 2 56 34 view .LVU121
 588              		.loc 2 56 41 is_stmt 0 view .LVU122
 589 0006 00EB4111 		add	r1, r0, r1, lsl #5
 590              	.LBE111:
 591              	.LBE110:
 115:hothouse.cpp  **** }
 592              		.loc 1 115 1 view .LVU123
 593 000a 91ED130A 		vldr.32	s0, [r1, #76]
 594 000e 7047     		bx	lr
 595              		.cfi_endproc
 596              	.LFE2579:
 598              		.section	.text._ZN16clevelandmusicco8Hothouse12InitSwitchesEv,"ax",%progbits
 599              		.align	1
 600              		.p2align 2,,3
 601              		.global	_ZN16clevelandmusicco8Hothouse12InitSwitchesEv
 602              		.syntax unified
 603              		.thumb
 604              		.thumb_func
 605              		.fpu fpv5-d16
 607              	_ZN16clevelandmusicco8Hothouse12InitSwitchesEv:
 608              	.LVL43:
 609              	.LFB2581:
 116:hothouse.cpp  **** 
 117:hothouse.cpp  **** void Hothouse::ProcessDigitalControls() {
 118:hothouse.cpp  ****   for (size_t i = 0; i < SWITCH_LAST; i++) {
 119:hothouse.cpp  ****     switches[i].Debounce();
 120:hothouse.cpp  ****   }
 121:hothouse.cpp  ****   ProcessFootswitchPresses(FOOTSWITCH_1);
 122:hothouse.cpp  ****   ProcessFootswitchPresses(FOOTSWITCH_2);
 123:hothouse.cpp  **** }
 124:hothouse.cpp  **** 
 125:hothouse.cpp  **** void Hothouse::InitSwitches() {
 610              		.loc 1 125 31 is_stmt 1 view -0
 611              		.cfi_startproc
 612              		@ args = 0, pretend = 0, frame = 24
 613              		@ frame_needed = 0, uses_anonymous_args = 0
 126:hothouse.cpp  ****   constexpr Pin pin_numbers[SWITCH_LAST] = {
 614              		.loc 1 126 3 view .LVU125
 125:hothouse.cpp  ****   constexpr Pin pin_numbers[SWITCH_LAST] = {
 615              		.loc 1 125 31 is_stmt 0 view .LVU126
 616 0000 70B5     		push	{r4, r5, r6, lr}
 617              		.cfi_def_cfa_offset 16
 618              		.cfi_offset 4, -16
 619              		.cfi_offset 5, -12
 620              		.cfi_offset 6, -8
 621              		.cfi_offset 14, -4
 622 0002 86B0     		sub	sp, sp, #24
 623              		.cfi_def_cfa_offset 40
 624              		.loc 1 126 17 view .LVU127
 625 0004 0D4B     		ldr	r3, .L35
 626 0006 00F58075 		add	r5, r0, #256
 627 000a 0DF1080C 		add	ip, sp, #8
 628 000e 06AE     		add	r6, sp, #24
 629 0010 0FCB     		ldm	r3, {r0, r1, r2, r3}
 630              	.LVL44:
 631              		.loc 1 126 17 view .LVU128
 632 0012 6446     		mov	r4, ip
ARM GAS  /tmp/cc6aP9AC.s 			page 16


 633 0014 8CE80F00 		stm	ip, {r0, r1, r2, r3}
 127:hothouse.cpp  ****       PIN_SW_1_UP, PIN_SW_1_DOWN, PIN_SW_2_UP, PIN_SW_2_DOWN,
 128:hothouse.cpp  ****       PIN_SW_3_UP, PIN_SW_3_DOWN, PIN_FSW_1,   PIN_FSW_2,
 129:hothouse.cpp  ****   };
 130:hothouse.cpp  **** 
 131:hothouse.cpp  ****   for (size_t i = 0; i < SWITCH_LAST; i++) {
 634              		.loc 1 131 3 is_stmt 1 view .LVU129
 635              	.LVL45:
 636              	.LBB112:
 637              		.loc 1 131 24 view .LVU130
 638              	.L32:
 132:hothouse.cpp  ****     switches[i].Init(pin_numbers[i]);
 639              		.loc 1 132 5 discriminator 2 view .LVU131
 640              	.LBB113:
 641              	.LBI113:
 642              		.file 3 "/home/ubuntu/DaisyExamples/libDaisy/src/daisy_core.h"
   1:/home/ubuntu/DaisyExamples/libDaisy/src/daisy_core.h **** #pragma once
   2:/home/ubuntu/DaisyExamples/libDaisy/src/daisy_core.h **** #ifndef DSY_CORE_HW_H
   3:/home/ubuntu/DaisyExamples/libDaisy/src/daisy_core.h **** #define DSY_CORE_HW_H /**< & */
   4:/home/ubuntu/DaisyExamples/libDaisy/src/daisy_core.h **** #include <stdint.h>
   5:/home/ubuntu/DaisyExamples/libDaisy/src/daisy_core.h **** #include <stdlib.h>
   6:/home/ubuntu/DaisyExamples/libDaisy/src/daisy_core.h **** 
   7:/home/ubuntu/DaisyExamples/libDaisy/src/daisy_core.h **** #if defined(_MSC_VER)
   8:/home/ubuntu/DaisyExamples/libDaisy/src/daisy_core.h **** #define FORCE_INLINE __forceinline /**< & */
   9:/home/ubuntu/DaisyExamples/libDaisy/src/daisy_core.h **** #elif defined(__clang__)
  10:/home/ubuntu/DaisyExamples/libDaisy/src/daisy_core.h **** #define FORCE_INLINE inline __attribute__((always_inline)) /**< & */
  11:/home/ubuntu/DaisyExamples/libDaisy/src/daisy_core.h **** #pragma clang diagnostic ignored "-Wduplicate-decl-specifier"
  12:/home/ubuntu/DaisyExamples/libDaisy/src/daisy_core.h **** #elif defined(__GNUC__)
  13:/home/ubuntu/DaisyExamples/libDaisy/src/daisy_core.h **** #define FORCE_INLINE inline __attribute__((always_inline)) /**< & */
  14:/home/ubuntu/DaisyExamples/libDaisy/src/daisy_core.h **** #else
  15:/home/ubuntu/DaisyExamples/libDaisy/src/daisy_core.h **** #error unknown compiler
  16:/home/ubuntu/DaisyExamples/libDaisy/src/daisy_core.h **** #endif
  17:/home/ubuntu/DaisyExamples/libDaisy/src/daisy_core.h **** 
  18:/home/ubuntu/DaisyExamples/libDaisy/src/daisy_core.h **** /** @addtogroup utility
  19:/home/ubuntu/DaisyExamples/libDaisy/src/daisy_core.h ****     @{
  20:/home/ubuntu/DaisyExamples/libDaisy/src/daisy_core.h **** */
  21:/home/ubuntu/DaisyExamples/libDaisy/src/daisy_core.h **** 
  22:/home/ubuntu/DaisyExamples/libDaisy/src/daisy_core.h **** /** Macro for area of memory that is configured as cacheless
  23:/home/ubuntu/DaisyExamples/libDaisy/src/daisy_core.h **** This should be used primarily for DMA buffers, and the like.
  24:/home/ubuntu/DaisyExamples/libDaisy/src/daisy_core.h **** */
  25:/home/ubuntu/DaisyExamples/libDaisy/src/daisy_core.h **** #define DMA_BUFFER_MEM_SECTION __attribute__((section(".sram1_bss")))
  26:/home/ubuntu/DaisyExamples/libDaisy/src/daisy_core.h **** /** 
  27:/home/ubuntu/DaisyExamples/libDaisy/src/daisy_core.h **** THE DTCM RAM section is also non-cached. However, is not suitable 
  28:/home/ubuntu/DaisyExamples/libDaisy/src/daisy_core.h **** for DMA transfers. Performance is on par with internal SRAM w/ 
  29:/home/ubuntu/DaisyExamples/libDaisy/src/daisy_core.h **** cache enabled.
  30:/home/ubuntu/DaisyExamples/libDaisy/src/daisy_core.h **** */
  31:/home/ubuntu/DaisyExamples/libDaisy/src/daisy_core.h **** #define DTCM_MEM_SECTION __attribute__((section(".dtcmram_bss")))
  32:/home/ubuntu/DaisyExamples/libDaisy/src/daisy_core.h **** 
  33:/home/ubuntu/DaisyExamples/libDaisy/src/daisy_core.h **** #define FBIPMAX 0.999985f             /**< close to 1.0f-LSB at 16 bit */
  34:/home/ubuntu/DaisyExamples/libDaisy/src/daisy_core.h **** #define FBIPMIN (-FBIPMAX)            /**< - (1 - LSB) */
  35:/home/ubuntu/DaisyExamples/libDaisy/src/daisy_core.h **** #define U82F_SCALE 0.0078740f         /**< 1 / 127 */
  36:/home/ubuntu/DaisyExamples/libDaisy/src/daisy_core.h **** #define F2U8_SCALE 127.0f             /**< 128 - 1 */
  37:/home/ubuntu/DaisyExamples/libDaisy/src/daisy_core.h **** #define S82F_SCALE 0.0078125f         /**< 1 / (2**7) */
  38:/home/ubuntu/DaisyExamples/libDaisy/src/daisy_core.h **** #define F2S8_SCALE 127.0f             /**< (2 ** 7) - 1 */
  39:/home/ubuntu/DaisyExamples/libDaisy/src/daisy_core.h **** #define S162F_SCALE 3.0517578125e-05f /**< 1 / (2** 15) */
  40:/home/ubuntu/DaisyExamples/libDaisy/src/daisy_core.h **** #define F2S16_SCALE 32767.0f          /**< (2 ** 15) - 1 */
  41:/home/ubuntu/DaisyExamples/libDaisy/src/daisy_core.h **** #define F2S24_SCALE 8388608.0f        /**< 2 ** 23 */
ARM GAS  /tmp/cc6aP9AC.s 			page 17


  42:/home/ubuntu/DaisyExamples/libDaisy/src/daisy_core.h **** #define S242F_SCALE 1.192092896e-07f  /**< 1 / (2 ** 23) */
  43:/home/ubuntu/DaisyExamples/libDaisy/src/daisy_core.h **** #define S24SIGN 0x800000              /**< 2 ** 23 */
  44:/home/ubuntu/DaisyExamples/libDaisy/src/daisy_core.h **** #define S322F_SCALE 4.6566129e-10f    /**< 1 / (2** 31) */
  45:/home/ubuntu/DaisyExamples/libDaisy/src/daisy_core.h **** #define F2S32_SCALE 2147483647.f      /**< (2 ** 31) - 1 */
  46:/home/ubuntu/DaisyExamples/libDaisy/src/daisy_core.h **** 
  47:/home/ubuntu/DaisyExamples/libDaisy/src/daisy_core.h **** 
  48:/home/ubuntu/DaisyExamples/libDaisy/src/daisy_core.h **** /** shorthand macro for simplifying the reading of the left 
  49:/home/ubuntu/DaisyExamples/libDaisy/src/daisy_core.h ****  *  channel of a non-interleaved output buffer named out */
  50:/home/ubuntu/DaisyExamples/libDaisy/src/daisy_core.h **** #define OUT_L out[0]
  51:/home/ubuntu/DaisyExamples/libDaisy/src/daisy_core.h **** 
  52:/home/ubuntu/DaisyExamples/libDaisy/src/daisy_core.h **** /** shorthand macro for simplifying the reading of the right 
  53:/home/ubuntu/DaisyExamples/libDaisy/src/daisy_core.h ****  *  channel of a non-interleaved output buffer named out */
  54:/home/ubuntu/DaisyExamples/libDaisy/src/daisy_core.h **** #define OUT_R out[1]
  55:/home/ubuntu/DaisyExamples/libDaisy/src/daisy_core.h **** 
  56:/home/ubuntu/DaisyExamples/libDaisy/src/daisy_core.h **** /** shorthand macro for simplifying the reading of the left 
  57:/home/ubuntu/DaisyExamples/libDaisy/src/daisy_core.h ****  *  channel of a non-interleaved input buffer named in */
  58:/home/ubuntu/DaisyExamples/libDaisy/src/daisy_core.h **** #define IN_L in[0]
  59:/home/ubuntu/DaisyExamples/libDaisy/src/daisy_core.h **** 
  60:/home/ubuntu/DaisyExamples/libDaisy/src/daisy_core.h **** /** shorthand macro for simplifying the reading of the right 
  61:/home/ubuntu/DaisyExamples/libDaisy/src/daisy_core.h ****  *  channel of a non-interleaved input buffer named in */
  62:/home/ubuntu/DaisyExamples/libDaisy/src/daisy_core.h **** #define IN_R in[1]
  63:/home/ubuntu/DaisyExamples/libDaisy/src/daisy_core.h **** 
  64:/home/ubuntu/DaisyExamples/libDaisy/src/daisy_core.h **** /** 
  65:/home/ubuntu/DaisyExamples/libDaisy/src/daisy_core.h ****     Computes cube.
  66:/home/ubuntu/DaisyExamples/libDaisy/src/daisy_core.h ****     \param x Number to be cubed
  67:/home/ubuntu/DaisyExamples/libDaisy/src/daisy_core.h ****     \return x ^ 3
  68:/home/ubuntu/DaisyExamples/libDaisy/src/daisy_core.h **** */
  69:/home/ubuntu/DaisyExamples/libDaisy/src/daisy_core.h **** FORCE_INLINE float cube(float x)
  70:/home/ubuntu/DaisyExamples/libDaisy/src/daisy_core.h **** {
  71:/home/ubuntu/DaisyExamples/libDaisy/src/daisy_core.h ****     return (x * x) * x;
  72:/home/ubuntu/DaisyExamples/libDaisy/src/daisy_core.h **** }
  73:/home/ubuntu/DaisyExamples/libDaisy/src/daisy_core.h **** 
  74:/home/ubuntu/DaisyExamples/libDaisy/src/daisy_core.h **** /** 
  75:/home/ubuntu/DaisyExamples/libDaisy/src/daisy_core.h ****     Converts unsigned 8-bit to float
  76:/home/ubuntu/DaisyExamples/libDaisy/src/daisy_core.h ****     \param x Number to be scaled.
  77:/home/ubuntu/DaisyExamples/libDaisy/src/daisy_core.h ****     \return Scaled number.
  78:/home/ubuntu/DaisyExamples/libDaisy/src/daisy_core.h **** */
  79:/home/ubuntu/DaisyExamples/libDaisy/src/daisy_core.h **** FORCE_INLINE float u82f(uint8_t x)
  80:/home/ubuntu/DaisyExamples/libDaisy/src/daisy_core.h **** {
  81:/home/ubuntu/DaisyExamples/libDaisy/src/daisy_core.h ****     return ((float)x - 127.f) * U82F_SCALE;
  82:/home/ubuntu/DaisyExamples/libDaisy/src/daisy_core.h **** }
  83:/home/ubuntu/DaisyExamples/libDaisy/src/daisy_core.h **** 
  84:/home/ubuntu/DaisyExamples/libDaisy/src/daisy_core.h **** /**
  85:/home/ubuntu/DaisyExamples/libDaisy/src/daisy_core.h ****     Converts float to unsigned 8-bit
  86:/home/ubuntu/DaisyExamples/libDaisy/src/daisy_core.h **** */
  87:/home/ubuntu/DaisyExamples/libDaisy/src/daisy_core.h **** FORCE_INLINE uint8_t f2u8(float x)
  88:/home/ubuntu/DaisyExamples/libDaisy/src/daisy_core.h **** {
  89:/home/ubuntu/DaisyExamples/libDaisy/src/daisy_core.h ****     x = x <= FBIPMIN ? FBIPMIN : x;
  90:/home/ubuntu/DaisyExamples/libDaisy/src/daisy_core.h ****     x = x >= FBIPMAX ? FBIPMAX : x;
  91:/home/ubuntu/DaisyExamples/libDaisy/src/daisy_core.h ****     return (uint8_t)((x * F2U8_SCALE) + F2U8_SCALE);
  92:/home/ubuntu/DaisyExamples/libDaisy/src/daisy_core.h **** }
  93:/home/ubuntu/DaisyExamples/libDaisy/src/daisy_core.h **** 
  94:/home/ubuntu/DaisyExamples/libDaisy/src/daisy_core.h **** 
  95:/home/ubuntu/DaisyExamples/libDaisy/src/daisy_core.h **** /** 
  96:/home/ubuntu/DaisyExamples/libDaisy/src/daisy_core.h ****     Converts Signed 8-bit to float
  97:/home/ubuntu/DaisyExamples/libDaisy/src/daisy_core.h ****     \param x Number to be scaled.
  98:/home/ubuntu/DaisyExamples/libDaisy/src/daisy_core.h ****     \return Scaled number.
ARM GAS  /tmp/cc6aP9AC.s 			page 18


  99:/home/ubuntu/DaisyExamples/libDaisy/src/daisy_core.h **** */
 100:/home/ubuntu/DaisyExamples/libDaisy/src/daisy_core.h **** FORCE_INLINE float s82f(int8_t x)
 101:/home/ubuntu/DaisyExamples/libDaisy/src/daisy_core.h **** {
 102:/home/ubuntu/DaisyExamples/libDaisy/src/daisy_core.h ****     return (float)x * S82F_SCALE;
 103:/home/ubuntu/DaisyExamples/libDaisy/src/daisy_core.h **** }
 104:/home/ubuntu/DaisyExamples/libDaisy/src/daisy_core.h **** 
 105:/home/ubuntu/DaisyExamples/libDaisy/src/daisy_core.h **** /**
 106:/home/ubuntu/DaisyExamples/libDaisy/src/daisy_core.h ****     Converts float to Signed 8-bit
 107:/home/ubuntu/DaisyExamples/libDaisy/src/daisy_core.h **** */
 108:/home/ubuntu/DaisyExamples/libDaisy/src/daisy_core.h **** FORCE_INLINE int8_t f2s8(float x)
 109:/home/ubuntu/DaisyExamples/libDaisy/src/daisy_core.h **** {
 110:/home/ubuntu/DaisyExamples/libDaisy/src/daisy_core.h ****     x = x <= FBIPMIN ? FBIPMIN : x;
 111:/home/ubuntu/DaisyExamples/libDaisy/src/daisy_core.h ****     x = x >= FBIPMAX ? FBIPMAX : x;
 112:/home/ubuntu/DaisyExamples/libDaisy/src/daisy_core.h ****     return (int32_t)(x * F2S8_SCALE);
 113:/home/ubuntu/DaisyExamples/libDaisy/src/daisy_core.h **** }
 114:/home/ubuntu/DaisyExamples/libDaisy/src/daisy_core.h **** 
 115:/home/ubuntu/DaisyExamples/libDaisy/src/daisy_core.h **** /** 
 116:/home/ubuntu/DaisyExamples/libDaisy/src/daisy_core.h ****     Converts Signed 16-bit to float
 117:/home/ubuntu/DaisyExamples/libDaisy/src/daisy_core.h ****     \param x Number to be scaled.
 118:/home/ubuntu/DaisyExamples/libDaisy/src/daisy_core.h ****     \return Scaled number.
 119:/home/ubuntu/DaisyExamples/libDaisy/src/daisy_core.h **** */
 120:/home/ubuntu/DaisyExamples/libDaisy/src/daisy_core.h **** FORCE_INLINE float s162f(int16_t x)
 121:/home/ubuntu/DaisyExamples/libDaisy/src/daisy_core.h **** {
 122:/home/ubuntu/DaisyExamples/libDaisy/src/daisy_core.h ****     return (float)x * S162F_SCALE;
 123:/home/ubuntu/DaisyExamples/libDaisy/src/daisy_core.h **** }
 124:/home/ubuntu/DaisyExamples/libDaisy/src/daisy_core.h **** 
 125:/home/ubuntu/DaisyExamples/libDaisy/src/daisy_core.h **** /**
 126:/home/ubuntu/DaisyExamples/libDaisy/src/daisy_core.h ****     Converts float to Signed 16-bit
 127:/home/ubuntu/DaisyExamples/libDaisy/src/daisy_core.h **** */
 128:/home/ubuntu/DaisyExamples/libDaisy/src/daisy_core.h **** FORCE_INLINE int16_t f2s16(float x)
 129:/home/ubuntu/DaisyExamples/libDaisy/src/daisy_core.h **** {
 130:/home/ubuntu/DaisyExamples/libDaisy/src/daisy_core.h ****     x = x <= FBIPMIN ? FBIPMIN : x;
 131:/home/ubuntu/DaisyExamples/libDaisy/src/daisy_core.h ****     x = x >= FBIPMAX ? FBIPMAX : x;
 132:/home/ubuntu/DaisyExamples/libDaisy/src/daisy_core.h ****     return (int32_t)(x * F2S16_SCALE);
 133:/home/ubuntu/DaisyExamples/libDaisy/src/daisy_core.h **** }
 134:/home/ubuntu/DaisyExamples/libDaisy/src/daisy_core.h **** 
 135:/home/ubuntu/DaisyExamples/libDaisy/src/daisy_core.h **** /**
 136:/home/ubuntu/DaisyExamples/libDaisy/src/daisy_core.h ****     Converts Signed 24-bit to float
 137:/home/ubuntu/DaisyExamples/libDaisy/src/daisy_core.h ****  */
 138:/home/ubuntu/DaisyExamples/libDaisy/src/daisy_core.h **** FORCE_INLINE float s242f(int32_t x)
 139:/home/ubuntu/DaisyExamples/libDaisy/src/daisy_core.h **** {
 140:/home/ubuntu/DaisyExamples/libDaisy/src/daisy_core.h ****     x = (x ^ S24SIGN) - S24SIGN; //sign extend aka ((x<<8)>>8)
 141:/home/ubuntu/DaisyExamples/libDaisy/src/daisy_core.h ****     return (float)x * S242F_SCALE;
 142:/home/ubuntu/DaisyExamples/libDaisy/src/daisy_core.h **** }
 143:/home/ubuntu/DaisyExamples/libDaisy/src/daisy_core.h **** /**
 144:/home/ubuntu/DaisyExamples/libDaisy/src/daisy_core.h ****     Converts float to Signed 24-bit
 145:/home/ubuntu/DaisyExamples/libDaisy/src/daisy_core.h ****  */
 146:/home/ubuntu/DaisyExamples/libDaisy/src/daisy_core.h **** FORCE_INLINE int32_t f2s24(float x)
 147:/home/ubuntu/DaisyExamples/libDaisy/src/daisy_core.h **** {
 148:/home/ubuntu/DaisyExamples/libDaisy/src/daisy_core.h ****     x = x <= FBIPMIN ? FBIPMIN : x;
 149:/home/ubuntu/DaisyExamples/libDaisy/src/daisy_core.h ****     x = x >= FBIPMAX ? FBIPMAX : x;
 150:/home/ubuntu/DaisyExamples/libDaisy/src/daisy_core.h ****     return (int32_t)(x * F2S24_SCALE);
 151:/home/ubuntu/DaisyExamples/libDaisy/src/daisy_core.h **** }
 152:/home/ubuntu/DaisyExamples/libDaisy/src/daisy_core.h **** 
 153:/home/ubuntu/DaisyExamples/libDaisy/src/daisy_core.h **** /**
 154:/home/ubuntu/DaisyExamples/libDaisy/src/daisy_core.h ****     Converts Signed 32-bit to float
 155:/home/ubuntu/DaisyExamples/libDaisy/src/daisy_core.h ****  */
ARM GAS  /tmp/cc6aP9AC.s 			page 19


 156:/home/ubuntu/DaisyExamples/libDaisy/src/daisy_core.h **** FORCE_INLINE float s322f(int32_t x)
 157:/home/ubuntu/DaisyExamples/libDaisy/src/daisy_core.h **** {
 158:/home/ubuntu/DaisyExamples/libDaisy/src/daisy_core.h ****     return (float)x * S322F_SCALE;
 159:/home/ubuntu/DaisyExamples/libDaisy/src/daisy_core.h **** }
 160:/home/ubuntu/DaisyExamples/libDaisy/src/daisy_core.h **** /**
 161:/home/ubuntu/DaisyExamples/libDaisy/src/daisy_core.h ****     Converts float to Signed 24-bit
 162:/home/ubuntu/DaisyExamples/libDaisy/src/daisy_core.h ****  */
 163:/home/ubuntu/DaisyExamples/libDaisy/src/daisy_core.h **** FORCE_INLINE int32_t f2s32(float x)
 164:/home/ubuntu/DaisyExamples/libDaisy/src/daisy_core.h **** {
 165:/home/ubuntu/DaisyExamples/libDaisy/src/daisy_core.h ****     x = x <= FBIPMIN ? FBIPMIN : x;
 166:/home/ubuntu/DaisyExamples/libDaisy/src/daisy_core.h ****     x = x >= FBIPMAX ? FBIPMAX : x;
 167:/home/ubuntu/DaisyExamples/libDaisy/src/daisy_core.h ****     return (int32_t)(x * F2S32_SCALE);
 168:/home/ubuntu/DaisyExamples/libDaisy/src/daisy_core.h **** }
 169:/home/ubuntu/DaisyExamples/libDaisy/src/daisy_core.h **** 
 170:/home/ubuntu/DaisyExamples/libDaisy/src/daisy_core.h **** 
 171:/home/ubuntu/DaisyExamples/libDaisy/src/daisy_core.h **** /** Enums and a simple struct for defining a hardware pin on the MCU
 172:/home/ubuntu/DaisyExamples/libDaisy/src/daisy_core.h ****  *  These correlate with the stm32 datasheet, and are used to configure
 173:/home/ubuntu/DaisyExamples/libDaisy/src/daisy_core.h ****  *  the hardware.
 174:/home/ubuntu/DaisyExamples/libDaisy/src/daisy_core.h ****  * 
 175:/home/ubuntu/DaisyExamples/libDaisy/src/daisy_core.h ****  *  This along with the dsy_gpio_pin class should no longer be used.
 176:/home/ubuntu/DaisyExamples/libDaisy/src/daisy_core.h ****  *  They are available for backwards compatability. 
 177:/home/ubuntu/DaisyExamples/libDaisy/src/daisy_core.h ****  * 
 178:/home/ubuntu/DaisyExamples/libDaisy/src/daisy_core.h ****  *  Please use GPIOPort enum and the Pin struct instead.
 179:/home/ubuntu/DaisyExamples/libDaisy/src/daisy_core.h ****  */
 180:/home/ubuntu/DaisyExamples/libDaisy/src/daisy_core.h **** typedef enum
 181:/home/ubuntu/DaisyExamples/libDaisy/src/daisy_core.h **** {
 182:/home/ubuntu/DaisyExamples/libDaisy/src/daisy_core.h ****     DSY_GPIOA, /**< & */
 183:/home/ubuntu/DaisyExamples/libDaisy/src/daisy_core.h ****     DSY_GPIOB, /**< & */
 184:/home/ubuntu/DaisyExamples/libDaisy/src/daisy_core.h ****     DSY_GPIOC, /**< & */
 185:/home/ubuntu/DaisyExamples/libDaisy/src/daisy_core.h ****     DSY_GPIOD, /**< & */
 186:/home/ubuntu/DaisyExamples/libDaisy/src/daisy_core.h ****     DSY_GPIOE, /**< & */
 187:/home/ubuntu/DaisyExamples/libDaisy/src/daisy_core.h ****     DSY_GPIOF, /**< & */
 188:/home/ubuntu/DaisyExamples/libDaisy/src/daisy_core.h ****     DSY_GPIOG, /**< & */
 189:/home/ubuntu/DaisyExamples/libDaisy/src/daisy_core.h ****     DSY_GPIOH, /**< & */
 190:/home/ubuntu/DaisyExamples/libDaisy/src/daisy_core.h ****     DSY_GPIOI, /**< & */
 191:/home/ubuntu/DaisyExamples/libDaisy/src/daisy_core.h ****     DSY_GPIOJ, /**< & */
 192:/home/ubuntu/DaisyExamples/libDaisy/src/daisy_core.h ****     DSY_GPIOK, /**< & */
 193:/home/ubuntu/DaisyExamples/libDaisy/src/daisy_core.h ****     DSY_GPIOX, /** This is a non-existant port for unsupported bits of hardware. */
 194:/home/ubuntu/DaisyExamples/libDaisy/src/daisy_core.h ****     DSY_GPIO_LAST, /** Final enum member */
 195:/home/ubuntu/DaisyExamples/libDaisy/src/daisy_core.h **** } dsy_gpio_port;
 196:/home/ubuntu/DaisyExamples/libDaisy/src/daisy_core.h **** 
 197:/home/ubuntu/DaisyExamples/libDaisy/src/daisy_core.h **** /** Hardware define pins 
 198:/home/ubuntu/DaisyExamples/libDaisy/src/daisy_core.h ****  *  
 199:/home/ubuntu/DaisyExamples/libDaisy/src/daisy_core.h ****  *  The dsy_gpio_pin struct should no longer be used, and is only available for
 200:/home/ubuntu/DaisyExamples/libDaisy/src/daisy_core.h ****  *  backwards compatability.
 201:/home/ubuntu/DaisyExamples/libDaisy/src/daisy_core.h ****  * 
 202:/home/ubuntu/DaisyExamples/libDaisy/src/daisy_core.h ****  *  Please use Pin struct instead.
 203:/home/ubuntu/DaisyExamples/libDaisy/src/daisy_core.h ****  */
 204:/home/ubuntu/DaisyExamples/libDaisy/src/daisy_core.h **** typedef struct
 205:/home/ubuntu/DaisyExamples/libDaisy/src/daisy_core.h **** {
 206:/home/ubuntu/DaisyExamples/libDaisy/src/daisy_core.h ****     dsy_gpio_port port; /**< & */
 207:/home/ubuntu/DaisyExamples/libDaisy/src/daisy_core.h ****     uint8_t       pin;  /**< number 0-15 */
 208:/home/ubuntu/DaisyExamples/libDaisy/src/daisy_core.h **** } dsy_gpio_pin;
 209:/home/ubuntu/DaisyExamples/libDaisy/src/daisy_core.h **** 
 210:/home/ubuntu/DaisyExamples/libDaisy/src/daisy_core.h **** /** Helper for creating pins from port/pin combos easily
 211:/home/ubuntu/DaisyExamples/libDaisy/src/daisy_core.h ****  * 
 212:/home/ubuntu/DaisyExamples/libDaisy/src/daisy_core.h ****  *  The dsy_gpio_pin struct should no longer be used, and is only available for
ARM GAS  /tmp/cc6aP9AC.s 			page 20


 213:/home/ubuntu/DaisyExamples/libDaisy/src/daisy_core.h ****  *  backwards compatability.
 214:/home/ubuntu/DaisyExamples/libDaisy/src/daisy_core.h ****  * 
 215:/home/ubuntu/DaisyExamples/libDaisy/src/daisy_core.h ****  *  Please use Pin struct instead.
 216:/home/ubuntu/DaisyExamples/libDaisy/src/daisy_core.h **** */
 217:/home/ubuntu/DaisyExamples/libDaisy/src/daisy_core.h **** FORCE_INLINE dsy_gpio_pin dsy_pin(dsy_gpio_port port, uint8_t pin)
 218:/home/ubuntu/DaisyExamples/libDaisy/src/daisy_core.h **** {
 219:/home/ubuntu/DaisyExamples/libDaisy/src/daisy_core.h ****     dsy_gpio_pin p;
 220:/home/ubuntu/DaisyExamples/libDaisy/src/daisy_core.h ****     p.port = port;
 221:/home/ubuntu/DaisyExamples/libDaisy/src/daisy_core.h ****     p.pin  = pin;
 222:/home/ubuntu/DaisyExamples/libDaisy/src/daisy_core.h ****     return p;
 223:/home/ubuntu/DaisyExamples/libDaisy/src/daisy_core.h **** }
 224:/home/ubuntu/DaisyExamples/libDaisy/src/daisy_core.h **** 
 225:/home/ubuntu/DaisyExamples/libDaisy/src/daisy_core.h **** /** Helper for testing sameness of two dsy_gpio_pins
 226:/home/ubuntu/DaisyExamples/libDaisy/src/daisy_core.h ****  *  \return    1 if same, 0 if different
 227:/home/ubuntu/DaisyExamples/libDaisy/src/daisy_core.h ****  * 
 228:/home/ubuntu/DaisyExamples/libDaisy/src/daisy_core.h ****  *  The dsy_gpio_pin struct should no longer be used, and is only available for
 229:/home/ubuntu/DaisyExamples/libDaisy/src/daisy_core.h ****  *  backwards compatability.
 230:/home/ubuntu/DaisyExamples/libDaisy/src/daisy_core.h ****  * 
 231:/home/ubuntu/DaisyExamples/libDaisy/src/daisy_core.h ****  *  Please use Pin struct instead.
 232:/home/ubuntu/DaisyExamples/libDaisy/src/daisy_core.h ****  */
 233:/home/ubuntu/DaisyExamples/libDaisy/src/daisy_core.h **** FORCE_INLINE uint8_t dsy_pin_cmp(dsy_gpio_pin *a, dsy_gpio_pin *b)
 234:/home/ubuntu/DaisyExamples/libDaisy/src/daisy_core.h **** {
 235:/home/ubuntu/DaisyExamples/libDaisy/src/daisy_core.h ****     return ((a->port == b->port) && (a->pin == b->pin));
 236:/home/ubuntu/DaisyExamples/libDaisy/src/daisy_core.h **** }
 237:/home/ubuntu/DaisyExamples/libDaisy/src/daisy_core.h **** 
 238:/home/ubuntu/DaisyExamples/libDaisy/src/daisy_core.h **** #ifdef __cplusplus
 239:/home/ubuntu/DaisyExamples/libDaisy/src/daisy_core.h **** 
 240:/home/ubuntu/DaisyExamples/libDaisy/src/daisy_core.h **** namespace daisy
 241:/home/ubuntu/DaisyExamples/libDaisy/src/daisy_core.h **** {
 242:/home/ubuntu/DaisyExamples/libDaisy/src/daisy_core.h **** /** @brief GPIO Port names */
 243:/home/ubuntu/DaisyExamples/libDaisy/src/daisy_core.h **** enum GPIOPort
 244:/home/ubuntu/DaisyExamples/libDaisy/src/daisy_core.h **** {
 245:/home/ubuntu/DaisyExamples/libDaisy/src/daisy_core.h ****     PORTA, /**< Port A */
 246:/home/ubuntu/DaisyExamples/libDaisy/src/daisy_core.h ****     PORTB, /**< Port B */
 247:/home/ubuntu/DaisyExamples/libDaisy/src/daisy_core.h ****     PORTC, /**< Port C */
 248:/home/ubuntu/DaisyExamples/libDaisy/src/daisy_core.h ****     PORTD, /**< Port D */
 249:/home/ubuntu/DaisyExamples/libDaisy/src/daisy_core.h ****     PORTE, /**< Port E */
 250:/home/ubuntu/DaisyExamples/libDaisy/src/daisy_core.h ****     PORTF, /**< Port F */
 251:/home/ubuntu/DaisyExamples/libDaisy/src/daisy_core.h ****     PORTG, /**< Port G */
 252:/home/ubuntu/DaisyExamples/libDaisy/src/daisy_core.h ****     PORTH, /**< Port H */
 253:/home/ubuntu/DaisyExamples/libDaisy/src/daisy_core.h ****     PORTI, /**< Port I */
 254:/home/ubuntu/DaisyExamples/libDaisy/src/daisy_core.h ****     PORTJ, /**< Port J */
 255:/home/ubuntu/DaisyExamples/libDaisy/src/daisy_core.h ****     PORTK, /**< Port K */
 256:/home/ubuntu/DaisyExamples/libDaisy/src/daisy_core.h ****     PORTX, /**< Used as a dummy port to signal an invalid pin. */
 257:/home/ubuntu/DaisyExamples/libDaisy/src/daisy_core.h **** };
 258:/home/ubuntu/DaisyExamples/libDaisy/src/daisy_core.h **** 
 259:/home/ubuntu/DaisyExamples/libDaisy/src/daisy_core.h **** /** @brief representation of hardware port/pin combination */
 260:/home/ubuntu/DaisyExamples/libDaisy/src/daisy_core.h **** struct Pin
 261:/home/ubuntu/DaisyExamples/libDaisy/src/daisy_core.h **** {
 262:/home/ubuntu/DaisyExamples/libDaisy/src/daisy_core.h ****     GPIOPort port;
 263:/home/ubuntu/DaisyExamples/libDaisy/src/daisy_core.h ****     uint8_t  pin;
 264:/home/ubuntu/DaisyExamples/libDaisy/src/daisy_core.h **** 
 265:/home/ubuntu/DaisyExamples/libDaisy/src/daisy_core.h ****     /** @brief Constructor creates a valid pin. 
 266:/home/ubuntu/DaisyExamples/libDaisy/src/daisy_core.h ****      *  @param pt GPIOPort between PA, and PK corresponding to STM32 Port.
 267:/home/ubuntu/DaisyExamples/libDaisy/src/daisy_core.h ****      *  @param pn pin number in range of 0-15
 268:/home/ubuntu/DaisyExamples/libDaisy/src/daisy_core.h ****     */
 269:/home/ubuntu/DaisyExamples/libDaisy/src/daisy_core.h ****     constexpr Pin(const GPIOPort pt, const uint8_t pn) : port(pt), pin(pn) {}
ARM GAS  /tmp/cc6aP9AC.s 			page 21


 270:/home/ubuntu/DaisyExamples/libDaisy/src/daisy_core.h **** 
 271:/home/ubuntu/DaisyExamples/libDaisy/src/daisy_core.h ****     /** @brief Basic Constructor creates an invalid Pin object */
 272:/home/ubuntu/DaisyExamples/libDaisy/src/daisy_core.h ****     constexpr Pin() : port(PORTX), pin(255) {}
 273:/home/ubuntu/DaisyExamples/libDaisy/src/daisy_core.h **** 
 274:/home/ubuntu/DaisyExamples/libDaisy/src/daisy_core.h ****     /** @brief checks validity of a Pin 
 275:/home/ubuntu/DaisyExamples/libDaisy/src/daisy_core.h ****      *  @retval returns true if the port is a valid hardware pin, otherwise false.
 276:/home/ubuntu/DaisyExamples/libDaisy/src/daisy_core.h ****     */
 277:/home/ubuntu/DaisyExamples/libDaisy/src/daisy_core.h ****     constexpr bool IsValid() const { return port != PORTX && pin < 16; }
 278:/home/ubuntu/DaisyExamples/libDaisy/src/daisy_core.h **** 
 279:/home/ubuntu/DaisyExamples/libDaisy/src/daisy_core.h ****     /** @brief comparison operator for checking equality between Pin objects */
 280:/home/ubuntu/DaisyExamples/libDaisy/src/daisy_core.h ****     constexpr bool operator==(const Pin &rhs) const
 281:/home/ubuntu/DaisyExamples/libDaisy/src/daisy_core.h ****     {
 282:/home/ubuntu/DaisyExamples/libDaisy/src/daisy_core.h ****         return (rhs.port == port) && (rhs.pin == pin);
 283:/home/ubuntu/DaisyExamples/libDaisy/src/daisy_core.h ****     }
 284:/home/ubuntu/DaisyExamples/libDaisy/src/daisy_core.h **** 
 285:/home/ubuntu/DaisyExamples/libDaisy/src/daisy_core.h ****     /** @brief comparison operator for checking inequality between Pin objects */
 286:/home/ubuntu/DaisyExamples/libDaisy/src/daisy_core.h ****     constexpr bool operator!=(const Pin &rhs) const { return !operator==(rhs); }
 287:/home/ubuntu/DaisyExamples/libDaisy/src/daisy_core.h **** 
 288:/home/ubuntu/DaisyExamples/libDaisy/src/daisy_core.h ****     /** @brief conversion operation for converting to the old-style representation
 289:/home/ubuntu/DaisyExamples/libDaisy/src/daisy_core.h ****      *         of a pin.
 290:/home/ubuntu/DaisyExamples/libDaisy/src/daisy_core.h ****      * 
 291:/home/ubuntu/DaisyExamples/libDaisy/src/daisy_core.h ****      *  This allows the new Pin type to be used in place of the older, dsy_gpio_pin
 292:/home/ubuntu/DaisyExamples/libDaisy/src/daisy_core.h ****      *  type.
 293:/home/ubuntu/DaisyExamples/libDaisy/src/daisy_core.h ****      */
 294:/home/ubuntu/DaisyExamples/libDaisy/src/daisy_core.h ****     constexpr operator dsy_gpio_pin() const
 643              		.loc 3 294 15 discriminator 2 view .LVU132
 644              	.LBB114:
 295:/home/ubuntu/DaisyExamples/libDaisy/src/daisy_core.h ****     {
 296:/home/ubuntu/DaisyExamples/libDaisy/src/daisy_core.h ****         return dsy_gpio_pin{.port = static_cast<dsy_gpio_port>(port),
 645              		.loc 3 296 9 discriminator 2 view .LVU133
 297:/home/ubuntu/DaisyExamples/libDaisy/src/daisy_core.h ****                             .pin  = pin};
 646              		.loc 3 297 37 is_stmt 0 discriminator 2 view .LVU134
 647 0018 6378     		ldrb	r3, [r4, #1]	@ zero_extendqisi2
 648              	.LBE114:
 649              	.LBE113:
 650              		.loc 1 132 21 discriminator 2 view .LVU135
 651 001a 2846     		mov	r0, r5
 652 001c 14F8022B 		ldrb	r2, [r4], #2	@ zero_extendqisi2
 131:hothouse.cpp  ****     switches[i].Init(pin_numbers[i]);
 653              		.loc 1 131 24 discriminator 2 view .LVU136
 654 0020 1035     		adds	r5, r5, #16
 655 0022 8DF80530 		strb	r3, [sp, #5]
 131:hothouse.cpp  ****     switches[i].Init(pin_numbers[i]);
 656              		.loc 1 131 24 discriminator 2 view .LVU137
 657 0026 8DF80420 		strb	r2, [sp, #4]
 658              		.loc 1 132 21 discriminator 2 view .LVU138
 659 002a 9FED050A 		vldr.32	s0, .L35+4
 660 002e 0199     		ldr	r1, [sp, #4]
 661 0030 FFF7FEFF 		bl	_ZN5daisy6Switch4InitE12dsy_gpio_pinf
 662              	.LVL46:
 131:hothouse.cpp  ****     switches[i].Init(pin_numbers[i]);
 663              		.loc 1 131 3 is_stmt 1 discriminator 2 view .LVU139
 131:hothouse.cpp  ****     switches[i].Init(pin_numbers[i]);
 664              		.loc 1 131 24 discriminator 2 view .LVU140
 665 0034 B442     		cmp	r4, r6
 666 0036 EFD1     		bne	.L32
 667              	.LBE112:
ARM GAS  /tmp/cc6aP9AC.s 			page 22


 133:hothouse.cpp  ****   }
 134:hothouse.cpp  **** }
 668              		.loc 1 134 1 is_stmt 0 view .LVU141
 669 0038 06B0     		add	sp, sp, #24
 670              		.cfi_def_cfa_offset 16
 671              		@ sp needed
 672 003a 70BD     		pop	{r4, r5, r6, pc}
 673              	.L36:
 674              		.align	2
 675              	.L35:
 676 003c 00000000 		.word	.LANCHOR0
 677 0040 00000000 		.word	0
 678              		.cfi_endproc
 679              	.LFE2581:
 681              		.section	.text._ZN16clevelandmusicco8Hothouse18InitAnalogControlsEv,"ax",%progbits
 682              		.align	1
 683              		.p2align 2,,3
 684              		.global	_ZN16clevelandmusicco8Hothouse18InitAnalogControlsEv
 685              		.syntax unified
 686              		.thumb
 687              		.thumb_func
 688              		.fpu fpv5-d16
 690              	_ZN16clevelandmusicco8Hothouse18InitAnalogControlsEv:
 691              	.LVL47:
 692              	.LFB2582:
 135:hothouse.cpp  **** 
 136:hothouse.cpp  **** void Hothouse::InitAnalogControls() {
 693              		.loc 1 136 37 is_stmt 1 view -0
 694              		.cfi_startproc
 695              		@ args = 0, pretend = 0, frame = 128
 696              		@ frame_needed = 0, uses_anonymous_args = 0
 137:hothouse.cpp  ****   constexpr Pin knob_pins[KNOB_LAST] = {PIN_KNOB_1, PIN_KNOB_2, PIN_KNOB_3,
 697              		.loc 1 137 3 view .LVU143
 136:hothouse.cpp  ****   constexpr Pin knob_pins[KNOB_LAST] = {PIN_KNOB_1, PIN_KNOB_2, PIN_KNOB_3,
 698              		.loc 1 136 37 is_stmt 0 view .LVU144
 699 0000 F0B5     		push	{r4, r5, r6, r7, lr}
 700              		.cfi_def_cfa_offset 20
 701              		.cfi_offset 4, -20
 702              		.cfi_offset 5, -16
 703              		.cfi_offset 6, -12
 704              		.cfi_offset 7, -8
 705              		.cfi_offset 14, -4
 706              		.loc 1 137 17 view .LVU145
 707 0002 204B     		ldr	r3, .L43
 136:hothouse.cpp  ****   constexpr Pin knob_pins[KNOB_LAST] = {PIN_KNOB_1, PIN_KNOB_2, PIN_KNOB_3,
 708              		.loc 1 136 37 view .LVU146
 709 0004 0646     		mov	r6, r0
 710 0006 2DED028B 		vpush.64	{d8}
 711              		.cfi_def_cfa_offset 28
 712              		.cfi_offset 80, -28
 713              		.cfi_offset 81, -24
 714 000a A1B0     		sub	sp, sp, #132
 715              		.cfi_def_cfa_offset 160
 716              		.loc 1 137 17 view .LVU147
 717 000c 93E80700 		ldm	r3, {r0, r1, r2}
 718              	.LVL48:
 719              		.loc 1 137 17 view .LVU148
ARM GAS  /tmp/cc6aP9AC.s 			page 23


 720 0010 02AD     		add	r5, sp, #8
 721 0012 20AF     		add	r7, sp, #128
 722 0014 05AC     		add	r4, sp, #20
 723 0016 85E80700 		stm	r5, {r0, r1, r2}
 138:hothouse.cpp  ****                                         PIN_KNOB_4, PIN_KNOB_5, PIN_KNOB_6};
 139:hothouse.cpp  **** 
 140:hothouse.cpp  ****   // Set order of ADCs based on CHANNEL NUMBER
 141:hothouse.cpp  ****   AdcChannelConfig cfg[KNOB_LAST];
 724              		.loc 1 141 3 is_stmt 1 view .LVU149
 142:hothouse.cpp  **** 
 143:hothouse.cpp  ****   // Initialize ADC configuration with Single Pins
 144:hothouse.cpp  ****   for (size_t i = 0; i < KNOB_LAST; ++i) {
 725              		.loc 1 144 3 view .LVU150
 726              	.LVL49:
 727              	.LBB115:
 728              		.loc 1 144 24 view .LVU151
 729              	.L38:
 145:hothouse.cpp  ****     cfg[i].InitSingle(knob_pins[i]);
 730              		.loc 1 145 5 discriminator 2 view .LVU152
 731              	.LBB116:
 732              	.LBI116:
 294:/home/ubuntu/DaisyExamples/libDaisy/src/daisy_core.h ****     {
 733              		.loc 3 294 15 discriminator 2 view .LVU153
 734              	.LBB117:
 296:/home/ubuntu/DaisyExamples/libDaisy/src/daisy_core.h ****                             .pin  = pin};
 735              		.loc 3 296 9 discriminator 2 view .LVU154
 736              		.loc 3 297 37 is_stmt 0 discriminator 2 view .LVU155
 737 001a 6B78     		ldrb	r3, [r5, #1]	@ zero_extendqisi2
 738              	.LBE117:
 739              	.LBE116:
 740              		.loc 1 145 22 discriminator 2 view .LVU156
 741 001c 2046     		mov	r0, r4
 742 001e 15F8022B 		ldrb	r2, [r5], #2	@ zero_extendqisi2
 144:hothouse.cpp  ****     cfg[i].InitSingle(knob_pins[i]);
 743              		.loc 1 144 24 discriminator 2 view .LVU157
 744 0022 1234     		adds	r4, r4, #18
 745 0024 8DF80530 		strb	r3, [sp, #5]
 144:hothouse.cpp  ****     cfg[i].InitSingle(knob_pins[i]);
 746              		.loc 1 144 24 discriminator 2 view .LVU158
 747 0028 8DF80420 		strb	r2, [sp, #4]
 748              		.loc 1 145 22 discriminator 2 view .LVU159
 749 002c 0222     		movs	r2, #2
 750 002e 0199     		ldr	r1, [sp, #4]
 751 0030 FFF7FEFF 		bl	_ZN5daisy16AdcChannelConfig10InitSingleE12dsy_gpio_pinNS0_15ConversionSpeedE
 752              	.LVL50:
 144:hothouse.cpp  ****     cfg[i].InitSingle(knob_pins[i]);
 753              		.loc 1 144 3 is_stmt 1 discriminator 2 view .LVU160
 144:hothouse.cpp  ****     cfg[i].InitSingle(knob_pins[i]);
 754              		.loc 1 144 24 discriminator 2 view .LVU161
 755 0034 BC42     		cmp	r4, r7
 756 0036 F0D1     		bne	.L38
 757              	.LBE115:
 146:hothouse.cpp  ****   }
 147:hothouse.cpp  **** 
 148:hothouse.cpp  ****   // Initialize ADC with configuration
 149:hothouse.cpp  ****   seed.adc.Init(cfg, KNOB_LAST);
 758              		.loc 1 149 3 view .LVU162
ARM GAS  /tmp/cc6aP9AC.s 			page 24


 759              		.loc 1 149 16 is_stmt 0 view .LVU163
 760 0038 06F11807 		add	r7, r6, #24
 761 003c 0423     		movs	r3, #4
 762 003e 0622     		movs	r2, #6
 763 0040 05A9     		add	r1, sp, #20
 764 0042 3846     		mov	r0, r7
 765              	.LBB118:
 150:hothouse.cpp  **** 
 151:hothouse.cpp  ****   // Get the audio callback rate once
 152:hothouse.cpp  ****   float callback_rate = AudioCallbackRate();
 153:hothouse.cpp  **** 
 154:hothouse.cpp  ****   // Initialize knobs with ADC pointers and callback rate
 155:hothouse.cpp  ****   for (size_t i = 0; i < KNOB_LAST; ++i) {
 766              		.loc 1 155 15 view .LVU164
 767 0044 0024     		movs	r4, #0
 768              	.LBE118:
 149:hothouse.cpp  **** 
 769              		.loc 1 149 16 view .LVU165
 770 0046 FFF7FEFF 		bl	_ZN5daisy9AdcHandle4InitEPNS_16AdcChannelConfigEjNS0_12OverSamplingE
 771              	.LVL51:
 152:hothouse.cpp  **** 
 772              		.loc 1 152 3 is_stmt 1 view .LVU166
 773              	.LBB119:
 774              	.LBI119:
  99:hothouse.cpp  **** 
 775              		.loc 1 99 7 view .LVU167
 776              	.LBB120:
  99:hothouse.cpp  **** 
 777              		.loc 1 99 39 view .LVU168
  99:hothouse.cpp  **** 
 778              		.loc 1 99 68 is_stmt 0 view .LVU169
 779 004a 3046     		mov	r0, r6
 780 004c FFF7FEFF 		bl	_ZNK5daisy9DaisySeed17AudioCallbackRateEv
 781              	.LVL52:
 782 0050 B0EE408A 		vmov.f32	s16, s0
 783              	.LVL53:
  99:hothouse.cpp  **** 
 784              		.loc 1 99 68 view .LVU170
 785              	.LBE120:
 786              	.LBE119:
 787              		.loc 1 155 3 is_stmt 1 view .LVU171
 788              	.LBB121:
 789              		.loc 1 155 24 view .LVU172
 790 0054 4036     		adds	r6, r6, #64
 791              	.LVL54:
 792              	.L39:
 156:hothouse.cpp  ****     knobs[i].Init(seed.adc.GetPtr(i), callback_rate);
 793              		.loc 1 156 5 discriminator 2 view .LVU173
 794              		.loc 1 156 18 is_stmt 0 discriminator 2 view .LVU174
 795 0056 E1B2     		uxtb	r1, r4
 796 0058 3846     		mov	r0, r7
 797 005a FFF7FEFF 		bl	_ZNK5daisy9AdcHandle6GetPtrEh
 798              	.LVL55:
 799 005e 0023     		movs	r3, #0
 155:hothouse.cpp  ****     knobs[i].Init(seed.adc.GetPtr(i), callback_rate);
 800              		.loc 1 155 3 discriminator 2 view .LVU175
 801 0060 0134     		adds	r4, r4, #1
ARM GAS  /tmp/cc6aP9AC.s 			page 25


 802              	.LVL56:
 803              		.loc 1 156 18 discriminator 2 view .LVU176
 804 0062 0146     		mov	r1, r0
 805 0064 B0EE480A 		vmov.f32	s0, s16
 806 0068 3046     		mov	r0, r6
 807 006a DFED070A 		vldr.32	s1, .L43+4
 808 006e 1A46     		mov	r2, r3
 809 0070 FFF7FEFF 		bl	_ZN5daisy13AnalogControl4InitEPtfbbf
 810              	.LVL57:
 155:hothouse.cpp  ****     knobs[i].Init(seed.adc.GetPtr(i), callback_rate);
 811              		.loc 1 155 3 is_stmt 1 discriminator 2 view .LVU177
 155:hothouse.cpp  ****     knobs[i].Init(seed.adc.GetPtr(i), callback_rate);
 812              		.loc 1 155 24 discriminator 2 view .LVU178
 813 0074 062C     		cmp	r4, #6
 814 0076 06F12006 		add	r6, r6, #32
 815 007a ECD1     		bne	.L39
 816              	.LBE121:
 157:hothouse.cpp  ****   }
 158:hothouse.cpp  **** }
 817              		.loc 1 158 1 is_stmt 0 view .LVU179
 818 007c 21B0     		add	sp, sp, #132
 819              		.cfi_def_cfa_offset 28
 820              		@ sp needed
 821 007e BDEC028B 		vldm	sp!, {d8}
 822              		.cfi_restore 80
 823              		.cfi_restore 81
 824              		.cfi_def_cfa_offset 20
 825              	.LVL58:
 826              		.loc 1 158 1 view .LVU180
 827 0082 F0BD     		pop	{r4, r5, r6, r7, pc}
 828              	.LVL59:
 829              	.L44:
 830              		.loc 1 158 1 view .LVU181
 831              		.align	2
 832              	.L43:
 833 0084 10000000 		.word	.LANCHOR0+16
 834 0088 6F12033B 		.word	990057071
 835              		.cfi_endproc
 836              	.LFE2582:
 838              		.section	.text._ZN16clevelandmusicco8Hothouse4InitEb,"ax",%progbits
 839              		.align	1
 840              		.p2align 2,,3
 841              		.global	_ZN16clevelandmusicco8Hothouse4InitEb
 842              		.syntax unified
 843              		.thumb
 844              		.thumb_func
 845              		.fpu fpv5-d16
 847              	_ZN16clevelandmusicco8Hothouse4InitEb:
 848              	.LVL60:
 849              	.LFB2563:
  50:hothouse.cpp  ****   // Initialize the hardware.
 850              		.loc 1 50 33 is_stmt 1 view -0
 851              		.cfi_startproc
 852              		@ args = 0, pretend = 0, frame = 8
 853              		@ frame_needed = 0, uses_anonymous_args = 0
  52:hothouse.cpp  ****   seed.Init(boost);
 854              		.loc 1 52 3 view .LVU183
ARM GAS  /tmp/cc6aP9AC.s 			page 26


  50:hothouse.cpp  ****   // Initialize the hardware.
 855              		.loc 1 50 33 is_stmt 0 view .LVU184
 856 0000 70B5     		push	{r4, r5, r6, lr}
 857              		.cfi_def_cfa_offset 16
 858              		.cfi_offset 4, -16
 859              		.cfi_offset 5, -12
 860              		.cfi_offset 6, -8
 861              		.cfi_offset 14, -4
 862 0002 0546     		mov	r5, r0
 863 0004 82B0     		sub	sp, sp, #8
 864              		.cfi_def_cfa_offset 24
  50:hothouse.cpp  ****   // Initialize the hardware.
 865              		.loc 1 50 33 view .LVU185
 866 0006 0191     		str	r1, [sp, #4]
  52:hothouse.cpp  ****   seed.Init(boost);
 867              		.loc 1 52 17 view .LVU186
 868 0008 FFF7FEFF 		bl	_ZN5daisy9DaisySeed9ConfigureEv
 869              	.LVL61:
  53:hothouse.cpp  ****   InitSwitches();
 870              		.loc 1 53 3 is_stmt 1 view .LVU187
  53:hothouse.cpp  ****   InitSwitches();
 871              		.loc 1 53 12 is_stmt 0 view .LVU188
 872 000c 0199     		ldr	r1, [sp, #4]
 873 000e 2846     		mov	r0, r5
 874 0010 FFF7FEFF 		bl	_ZN5daisy9DaisySeed4InitEb
 875              	.LVL62:
  54:hothouse.cpp  ****   InitAnalogControls();
 876              		.loc 1 54 3 is_stmt 1 view .LVU189
  54:hothouse.cpp  ****   InitAnalogControls();
 877              		.loc 1 54 15 is_stmt 0 view .LVU190
 878 0014 2846     		mov	r0, r5
 879 0016 FFF7FEFF 		bl	_ZN16clevelandmusicco8Hothouse12InitSwitchesEv
 880              	.LVL63:
  55:hothouse.cpp  ****   SetAudioBlockSize(48);
 881              		.loc 1 55 3 is_stmt 1 view .LVU191
  55:hothouse.cpp  ****   SetAudioBlockSize(48);
 882              		.loc 1 55 21 is_stmt 0 view .LVU192
 883 001a 2846     		mov	r0, r5
 884 001c FFF7FEFF 		bl	_ZN16clevelandmusicco8Hothouse18InitAnalogControlsEv
 885              	.LVL64:
  56:hothouse.cpp  **** }
 886              		.loc 1 56 3 is_stmt 1 view .LVU193
 887              	.LBB129:
 888              	.LBI129:
  85:hothouse.cpp  ****   seed.SetAudioBlockSize(size);
 889              		.loc 1 85 6 view .LVU194
 890              	.LBB130:
  86:hothouse.cpp  ****   SetHidUpdateRates();
 891              		.loc 1 86 3 view .LVU195
  86:hothouse.cpp  ****   SetHidUpdateRates();
 892              		.loc 1 86 25 is_stmt 0 view .LVU196
 893 0020 3021     		movs	r1, #48
 894 0022 2846     		mov	r0, r5
 895 0024 05F14004 		add	r4, r5, #64
 896 0028 05F58076 		add	r6, r5, #256
 897 002c FFF7FEFF 		bl	_ZN5daisy9DaisySeed17SetAudioBlockSizeEj
 898              	.LVL65:
ARM GAS  /tmp/cc6aP9AC.s 			page 27


  87:hothouse.cpp  **** }
 899              		.loc 1 87 3 is_stmt 1 view .LVU197
 900              	.LBB131:
 901              	.LBI131:
  61:hothouse.cpp  ****   for (size_t i = 0; i < KNOB_LAST; i++) {
 902              		.loc 1 61 6 view .LVU198
 903              	.LBB132:
  62:hothouse.cpp  ****     knobs[i].SetSampleRate(AudioCallbackRate());
 904              		.loc 1 62 24 view .LVU199
 905              	.L46:
  63:hothouse.cpp  ****   }
 906              		.loc 1 63 5 view .LVU200
 907              	.LBB133:
 908              	.LBI133:
  99:hothouse.cpp  **** 
 909              		.loc 1 99 7 view .LVU201
 910              	.LBB134:
  99:hothouse.cpp  **** 
 911              		.loc 1 99 39 view .LVU202
  99:hothouse.cpp  **** 
 912              		.loc 1 99 68 is_stmt 0 view .LVU203
 913 0030 2846     		mov	r0, r5
 914 0032 FFF7FEFF 		bl	_ZNK5daisy9DaisySeed17AudioCallbackRateEv
 915              	.LVL66:
  99:hothouse.cpp  **** 
 916              		.loc 1 99 68 view .LVU204
 917              	.LBE134:
 918              	.LBE133:
  63:hothouse.cpp  ****   }
 919              		.loc 1 63 27 view .LVU205
 920 0036 2046     		mov	r0, r4
  62:hothouse.cpp  ****     knobs[i].SetSampleRate(AudioCallbackRate());
 921              		.loc 1 62 24 view .LVU206
 922 0038 2034     		adds	r4, r4, #32
  63:hothouse.cpp  ****   }
 923              		.loc 1 63 27 view .LVU207
 924 003a FFF7FEFF 		bl	_ZN5daisy13AnalogControl13SetSampleRateEf
 925              	.LVL67:
  62:hothouse.cpp  ****     knobs[i].SetSampleRate(AudioCallbackRate());
 926              		.loc 1 62 3 is_stmt 1 view .LVU208
  62:hothouse.cpp  ****     knobs[i].SetSampleRate(AudioCallbackRate());
 927              		.loc 1 62 24 view .LVU209
 928 003e B442     		cmp	r4, r6
 929 0040 F6D1     		bne	.L46
 930              	.LBE132:
 931              	.LBE131:
 932              	.LBE130:
 933              	.LBE129:
  57:hothouse.cpp  **** 
 934              		.loc 1 57 1 is_stmt 0 view .LVU210
 935 0042 02B0     		add	sp, sp, #8
 936              		.cfi_def_cfa_offset 16
 937              		@ sp needed
 938 0044 70BD     		pop	{r4, r5, r6, pc}
  57:hothouse.cpp  **** 
 939              		.loc 1 57 1 view .LVU211
 940              		.cfi_endproc
ARM GAS  /tmp/cc6aP9AC.s 			page 28


 941              	.LFE2563:
 943 0046 00BF     		.section	.rodata._ZN16clevelandmusicco8Hothouse23GetToggleswitchPositionENS0_12ToggleswitchE.str1.
 944              		.align	2
 945              	.LC2:
 946 0000 4552524F 		.ascii	"ERROR: Unexpected value provided for Toggleswitch '"
 946      523A2055 
 946      6E657870 
 946      65637465 
 946      64207661 
 947 0033 74737727 		.ascii	"tsw'. Returning TOGGLESWITCH_UNKNOWN by default.\000"
 947      2E205265 
 947      7475726E 
 947      696E6720 
 947      544F4747 
 948              		.section	.text._ZN16clevelandmusicco8Hothouse23GetToggleswitchPositionENS0_12ToggleswitchE,"ax",%p
 949              		.align	1
 950              		.p2align 2,,3
 951              		.global	_ZN16clevelandmusicco8Hothouse23GetToggleswitchPositionENS0_12ToggleswitchE
 952              		.syntax unified
 953              		.thumb
 954              		.thumb_func
 955              		.fpu fpv5-d16
 957              	_ZN16clevelandmusicco8Hothouse23GetToggleswitchPositionENS0_12ToggleswitchE:
 958              	.LVL68:
 959              	.LFB2583:
 159:hothouse.cpp  **** 
 160:hothouse.cpp  **** // Public convenience function to get position of toggleswitches 1-3.
 161:hothouse.cpp  **** Hothouse::ToggleswitchPosition Hothouse::GetToggleswitchPosition(
 162:hothouse.cpp  ****     Toggleswitch tsw) {
 960              		.loc 1 162 23 is_stmt 1 view -0
 961              		.cfi_startproc
 962              		@ args = 0, pretend = 0, frame = 0
 963              		@ frame_needed = 0, uses_anonymous_args = 0
 163:hothouse.cpp  ****   switch (tsw) {
 964              		.loc 1 163 3 view .LVU213
 965 0000 0129     		cmp	r1, #1
 162:hothouse.cpp  ****   switch (tsw) {
 966              		.loc 1 162 23 is_stmt 0 view .LVU214
 967 0002 08B5     		push	{r3, lr}
 968              		.cfi_def_cfa_offset 8
 969              		.cfi_offset 3, -8
 970              		.cfi_offset 14, -4
 971              		.loc 1 163 3 view .LVU215
 972 0004 07D0     		beq	.L50
 973 0006 0229     		cmp	r1, #2
 974 0008 10D0     		beq	.L51
 975 000a B9B1     		cbz	r1, .L62
 164:hothouse.cpp  ****     case (TOGGLESWITCH_1):
 165:hothouse.cpp  ****       return GetLogicalSwitchPosition(switches[SWITCH_1_UP],
 166:hothouse.cpp  ****                                       switches[SWITCH_1_DOWN]);
 167:hothouse.cpp  ****     case (TOGGLESWITCH_2):
 168:hothouse.cpp  ****       return GetLogicalSwitchPosition(switches[SWITCH_2_UP],
 169:hothouse.cpp  ****                                       switches[SWITCH_2_DOWN]);
 170:hothouse.cpp  ****     case (TOGGLESWITCH_3):
 171:hothouse.cpp  ****       return GetLogicalSwitchPosition(switches[SWITCH_3_UP],
 172:hothouse.cpp  ****                                       switches[SWITCH_3_DOWN]);
 173:hothouse.cpp  ****     default:
ARM GAS  /tmp/cc6aP9AC.s 			page 29


 976              		.loc 1 173 5 is_stmt 1 view .LVU216
 174:hothouse.cpp  ****       seed.PrintLine(
 977              		.loc 1 174 7 view .LVU217
 978              	.LVL69:
 979              	.LBB135:
 980              	.LBI135:
 981              		.file 4 "/home/ubuntu/DaisyExamples/libDaisy/src/daisy_seed.h"
   1:/home/ubuntu/DaisyExamples/libDaisy/src/daisy_seed.h **** #pragma once
   2:/home/ubuntu/DaisyExamples/libDaisy/src/daisy_seed.h **** #ifndef DSY_SEED_H
   3:/home/ubuntu/DaisyExamples/libDaisy/src/daisy_seed.h **** #define DSY_SEED_H
   4:/home/ubuntu/DaisyExamples/libDaisy/src/daisy_seed.h **** 
   5:/home/ubuntu/DaisyExamples/libDaisy/src/daisy_seed.h **** #include "daisy.h"
   6:/home/ubuntu/DaisyExamples/libDaisy/src/daisy_seed.h **** 
   7:/home/ubuntu/DaisyExamples/libDaisy/src/daisy_seed.h **** //Uncomment this out if you're still using the rev2 hardware
   8:/home/ubuntu/DaisyExamples/libDaisy/src/daisy_seed.h **** //#define SEED_REV2
   9:/home/ubuntu/DaisyExamples/libDaisy/src/daisy_seed.h **** 
  10:/home/ubuntu/DaisyExamples/libDaisy/src/daisy_seed.h **** namespace daisy
  11:/home/ubuntu/DaisyExamples/libDaisy/src/daisy_seed.h **** {
  12:/home/ubuntu/DaisyExamples/libDaisy/src/daisy_seed.h **** /**
  13:/home/ubuntu/DaisyExamples/libDaisy/src/daisy_seed.h ****    @brief This is the higher-level interface for the Daisy board. \n 
  14:/home/ubuntu/DaisyExamples/libDaisy/src/daisy_seed.h ****     All basic peripheral configuration/initialization is setup here. \n
  15:/home/ubuntu/DaisyExamples/libDaisy/src/daisy_seed.h **** 
  16:/home/ubuntu/DaisyExamples/libDaisy/src/daisy_seed.h ****    @ingroup boards
  17:/home/ubuntu/DaisyExamples/libDaisy/src/daisy_seed.h **** */
  18:/home/ubuntu/DaisyExamples/libDaisy/src/daisy_seed.h **** class DaisySeed
  19:/home/ubuntu/DaisyExamples/libDaisy/src/daisy_seed.h **** {
  20:/home/ubuntu/DaisyExamples/libDaisy/src/daisy_seed.h ****   public:
  21:/home/ubuntu/DaisyExamples/libDaisy/src/daisy_seed.h ****     DaisySeed() {}
  22:/home/ubuntu/DaisyExamples/libDaisy/src/daisy_seed.h ****     ~DaisySeed() {}
  23:/home/ubuntu/DaisyExamples/libDaisy/src/daisy_seed.h **** 
  24:/home/ubuntu/DaisyExamples/libDaisy/src/daisy_seed.h ****     /** This function used to provide a pre-initialization configuraiton 
  25:/home/ubuntu/DaisyExamples/libDaisy/src/daisy_seed.h ****      *  it has since been deprecated, and does nothing.
  26:/home/ubuntu/DaisyExamples/libDaisy/src/daisy_seed.h ****      */
  27:/home/ubuntu/DaisyExamples/libDaisy/src/daisy_seed.h ****     void Configure();
  28:/home/ubuntu/DaisyExamples/libDaisy/src/daisy_seed.h **** 
  29:/home/ubuntu/DaisyExamples/libDaisy/src/daisy_seed.h ****     /** 
  30:/home/ubuntu/DaisyExamples/libDaisy/src/daisy_seed.h ****     Initializes the Daisy Seed and the following peripherals:
  31:/home/ubuntu/DaisyExamples/libDaisy/src/daisy_seed.h ****     SDRAM, QSPI, 24-bit 48kHz Audio via AK4556, Internal USB,
  32:/home/ubuntu/DaisyExamples/libDaisy/src/daisy_seed.h ****     as well as the built-in LED and Testpoint.
  33:/home/ubuntu/DaisyExamples/libDaisy/src/daisy_seed.h **** 
  34:/home/ubuntu/DaisyExamples/libDaisy/src/daisy_seed.h ****     ADCs, DACs, and other special peripherals (such as I2C, SPI, etc.)
  35:/home/ubuntu/DaisyExamples/libDaisy/src/daisy_seed.h ****     can be initialized using their specific initializers within libdaisy
  36:/home/ubuntu/DaisyExamples/libDaisy/src/daisy_seed.h ****     for a specific application.
  37:/home/ubuntu/DaisyExamples/libDaisy/src/daisy_seed.h ****     */
  38:/home/ubuntu/DaisyExamples/libDaisy/src/daisy_seed.h ****     void Init(bool boost = false);
  39:/home/ubuntu/DaisyExamples/libDaisy/src/daisy_seed.h **** 
  40:/home/ubuntu/DaisyExamples/libDaisy/src/daisy_seed.h ****     /** 
  41:/home/ubuntu/DaisyExamples/libDaisy/src/daisy_seed.h ****     Deinitializes all peripherals automatically handled by `Init`.
  42:/home/ubuntu/DaisyExamples/libDaisy/src/daisy_seed.h ****     */
  43:/home/ubuntu/DaisyExamples/libDaisy/src/daisy_seed.h ****     void DeInit();
  44:/home/ubuntu/DaisyExamples/libDaisy/src/daisy_seed.h **** 
  45:/home/ubuntu/DaisyExamples/libDaisy/src/daisy_seed.h ****     /** 
  46:/home/ubuntu/DaisyExamples/libDaisy/src/daisy_seed.h ****     Wait some ms before going on.
  47:/home/ubuntu/DaisyExamples/libDaisy/src/daisy_seed.h ****     \param del Delay time in ms.
  48:/home/ubuntu/DaisyExamples/libDaisy/src/daisy_seed.h ****     */
  49:/home/ubuntu/DaisyExamples/libDaisy/src/daisy_seed.h ****     void DelayMs(size_t del);
  50:/home/ubuntu/DaisyExamples/libDaisy/src/daisy_seed.h **** 
ARM GAS  /tmp/cc6aP9AC.s 			page 30


  51:/home/ubuntu/DaisyExamples/libDaisy/src/daisy_seed.h ****     /** 
  52:/home/ubuntu/DaisyExamples/libDaisy/src/daisy_seed.h ****     Returns the gpio_pin corresponding to the index 0-31.
  53:/home/ubuntu/DaisyExamples/libDaisy/src/daisy_seed.h ****     For the given GPIO on the Daisy Seed (labeled 1-32 in docs).
  54:/home/ubuntu/DaisyExamples/libDaisy/src/daisy_seed.h ****     */
  55:/home/ubuntu/DaisyExamples/libDaisy/src/daisy_seed.h ****     static dsy_gpio_pin GetPin(uint8_t pin_idx);
  56:/home/ubuntu/DaisyExamples/libDaisy/src/daisy_seed.h **** 
  57:/home/ubuntu/DaisyExamples/libDaisy/src/daisy_seed.h ****     /** Begins the audio for the seeds builtin audio.
  58:/home/ubuntu/DaisyExamples/libDaisy/src/daisy_seed.h ****     the specified callback will get called whenever
  59:/home/ubuntu/DaisyExamples/libDaisy/src/daisy_seed.h ****     new data is ready to be prepared.
  60:/home/ubuntu/DaisyExamples/libDaisy/src/daisy_seed.h ****     */
  61:/home/ubuntu/DaisyExamples/libDaisy/src/daisy_seed.h ****     void StartAudio(AudioHandle::InterleavingAudioCallback cb);
  62:/home/ubuntu/DaisyExamples/libDaisy/src/daisy_seed.h **** 
  63:/home/ubuntu/DaisyExamples/libDaisy/src/daisy_seed.h ****     /** Begins the audio for the seeds builtin audio.
  64:/home/ubuntu/DaisyExamples/libDaisy/src/daisy_seed.h ****     the specified callback will get called whenever
  65:/home/ubuntu/DaisyExamples/libDaisy/src/daisy_seed.h ****     new data is ready to be prepared.
  66:/home/ubuntu/DaisyExamples/libDaisy/src/daisy_seed.h ****     This will use the newer non-interleaved callback.
  67:/home/ubuntu/DaisyExamples/libDaisy/src/daisy_seed.h ****     */
  68:/home/ubuntu/DaisyExamples/libDaisy/src/daisy_seed.h ****     void StartAudio(AudioHandle::AudioCallback cb);
  69:/home/ubuntu/DaisyExamples/libDaisy/src/daisy_seed.h **** 
  70:/home/ubuntu/DaisyExamples/libDaisy/src/daisy_seed.h ****     /** Changes to a new interleaved callback
  71:/home/ubuntu/DaisyExamples/libDaisy/src/daisy_seed.h ****      */
  72:/home/ubuntu/DaisyExamples/libDaisy/src/daisy_seed.h ****     void ChangeAudioCallback(AudioHandle::InterleavingAudioCallback cb);
  73:/home/ubuntu/DaisyExamples/libDaisy/src/daisy_seed.h **** 
  74:/home/ubuntu/DaisyExamples/libDaisy/src/daisy_seed.h ****     /** Changes to a new multichannel callback
  75:/home/ubuntu/DaisyExamples/libDaisy/src/daisy_seed.h ****      */
  76:/home/ubuntu/DaisyExamples/libDaisy/src/daisy_seed.h ****     void ChangeAudioCallback(AudioHandle::AudioCallback cb);
  77:/home/ubuntu/DaisyExamples/libDaisy/src/daisy_seed.h **** 
  78:/home/ubuntu/DaisyExamples/libDaisy/src/daisy_seed.h ****     /** Stops the audio if it is running. */
  79:/home/ubuntu/DaisyExamples/libDaisy/src/daisy_seed.h ****     void StopAudio();
  80:/home/ubuntu/DaisyExamples/libDaisy/src/daisy_seed.h **** 
  81:/home/ubuntu/DaisyExamples/libDaisy/src/daisy_seed.h ****     /** Updates the Audio Sample Rate, and reinitializes.
  82:/home/ubuntu/DaisyExamples/libDaisy/src/daisy_seed.h ****      ** Audio must be stopped for this to work.
  83:/home/ubuntu/DaisyExamples/libDaisy/src/daisy_seed.h ****      */
  84:/home/ubuntu/DaisyExamples/libDaisy/src/daisy_seed.h ****     void SetAudioSampleRate(SaiHandle::Config::SampleRate samplerate);
  85:/home/ubuntu/DaisyExamples/libDaisy/src/daisy_seed.h **** 
  86:/home/ubuntu/DaisyExamples/libDaisy/src/daisy_seed.h ****     /** Returns the audio sample rate in Hz as a floating point number.
  87:/home/ubuntu/DaisyExamples/libDaisy/src/daisy_seed.h ****      */
  88:/home/ubuntu/DaisyExamples/libDaisy/src/daisy_seed.h ****     float AudioSampleRate();
  89:/home/ubuntu/DaisyExamples/libDaisy/src/daisy_seed.h **** 
  90:/home/ubuntu/DaisyExamples/libDaisy/src/daisy_seed.h ****     /** Sets the number of samples processed per channel by the audio callback.
  91:/home/ubuntu/DaisyExamples/libDaisy/src/daisy_seed.h ****      */
  92:/home/ubuntu/DaisyExamples/libDaisy/src/daisy_seed.h ****     void SetAudioBlockSize(size_t blocksize);
  93:/home/ubuntu/DaisyExamples/libDaisy/src/daisy_seed.h **** 
  94:/home/ubuntu/DaisyExamples/libDaisy/src/daisy_seed.h ****     /** Returns the number of samples per channel in a block of audio. */
  95:/home/ubuntu/DaisyExamples/libDaisy/src/daisy_seed.h ****     size_t AudioBlockSize();
  96:/home/ubuntu/DaisyExamples/libDaisy/src/daisy_seed.h **** 
  97:/home/ubuntu/DaisyExamples/libDaisy/src/daisy_seed.h ****     /** Returns the rate in Hz that the Audio callback is called */
  98:/home/ubuntu/DaisyExamples/libDaisy/src/daisy_seed.h ****     float AudioCallbackRate() const;
  99:/home/ubuntu/DaisyExamples/libDaisy/src/daisy_seed.h **** 
 100:/home/ubuntu/DaisyExamples/libDaisy/src/daisy_seed.h ****     /** Returns the SAI Handle for the Daisy Seed 
 101:/home/ubuntu/DaisyExamples/libDaisy/src/daisy_seed.h ****      *  This can be useful when adding a secondary codec,
 102:/home/ubuntu/DaisyExamples/libDaisy/src/daisy_seed.h ****      *  the result of this function can be passed to the audio reinit 
 103:/home/ubuntu/DaisyExamples/libDaisy/src/daisy_seed.h ****      *  with an SAI2 configuration
 104:/home/ubuntu/DaisyExamples/libDaisy/src/daisy_seed.h ****      */
 105:/home/ubuntu/DaisyExamples/libDaisy/src/daisy_seed.h ****     const SaiHandle& AudioSaiHandle() const;
 106:/home/ubuntu/DaisyExamples/libDaisy/src/daisy_seed.h **** 
 107:/home/ubuntu/DaisyExamples/libDaisy/src/daisy_seed.h ****     /** Sets the state of the built in LED
ARM GAS  /tmp/cc6aP9AC.s 			page 31


 108:/home/ubuntu/DaisyExamples/libDaisy/src/daisy_seed.h ****      */
 109:/home/ubuntu/DaisyExamples/libDaisy/src/daisy_seed.h ****     void SetLed(bool state);
 110:/home/ubuntu/DaisyExamples/libDaisy/src/daisy_seed.h **** 
 111:/home/ubuntu/DaisyExamples/libDaisy/src/daisy_seed.h ****     /** Sets the state of the test point near pin 10
 112:/home/ubuntu/DaisyExamples/libDaisy/src/daisy_seed.h ****      */
 113:/home/ubuntu/DaisyExamples/libDaisy/src/daisy_seed.h ****     void SetTestPoint(bool state);
 114:/home/ubuntu/DaisyExamples/libDaisy/src/daisy_seed.h **** 
 115:/home/ubuntu/DaisyExamples/libDaisy/src/daisy_seed.h ****     /** Print formatted debug log message
 116:/home/ubuntu/DaisyExamples/libDaisy/src/daisy_seed.h ****      */
 117:/home/ubuntu/DaisyExamples/libDaisy/src/daisy_seed.h ****     template <typename... VA>
 118:/home/ubuntu/DaisyExamples/libDaisy/src/daisy_seed.h ****     static void Print(const char* format, VA... va)
 119:/home/ubuntu/DaisyExamples/libDaisy/src/daisy_seed.h ****     {
 120:/home/ubuntu/DaisyExamples/libDaisy/src/daisy_seed.h ****         Log::Print(format, va...);
 121:/home/ubuntu/DaisyExamples/libDaisy/src/daisy_seed.h ****     }
 122:/home/ubuntu/DaisyExamples/libDaisy/src/daisy_seed.h **** 
 123:/home/ubuntu/DaisyExamples/libDaisy/src/daisy_seed.h ****     /** Print formatted debug log message with automatic line termination
 124:/home/ubuntu/DaisyExamples/libDaisy/src/daisy_seed.h ****     */
 125:/home/ubuntu/DaisyExamples/libDaisy/src/daisy_seed.h ****     template <typename... VA>
 126:/home/ubuntu/DaisyExamples/libDaisy/src/daisy_seed.h ****     static void PrintLine(const char* format, VA... va)
 982              		.loc 4 126 17 view .LVU218
 983              	.LBB136:
 127:/home/ubuntu/DaisyExamples/libDaisy/src/daisy_seed.h ****     {
 128:/home/ubuntu/DaisyExamples/libDaisy/src/daisy_seed.h ****         Log::PrintLine(format, va...);
 984              		.loc 4 128 23 is_stmt 0 view .LVU219
 985 000c 1148     		ldr	r0, .L64
 986              	.LVL70:
 987              		.loc 4 128 23 view .LVU220
 988 000e FFF7FEFF 		bl	_ZN5daisy6LoggerILNS_17LoggerDestinationE1EE9PrintLineEPKcz
 989              	.LVL71:
 990              		.loc 4 128 23 view .LVU221
 991              	.LBE136:
 992              	.LBE135:
 175:hothouse.cpp  ****           "ERROR: Unexpected value provided for Toggleswitch 'tsw'. "
 176:hothouse.cpp  ****           "Returning TOGGLESWITCH_UNKNOWN by default.");
 177:hothouse.cpp  ****       return TOGGLESWITCH_UNKNOWN;
 993              		.loc 1 177 7 is_stmt 1 view .LVU222
 994              		.loc 1 177 14 is_stmt 0 view .LVU223
 995 0012 0320     		movs	r0, #3
 178:hothouse.cpp  ****   }
 179:hothouse.cpp  **** }
 996              		.loc 1 179 1 view .LVU224
 997 0014 08BD     		pop	{r3, pc}
 998              	.LVL72:
 999              	.L50:
 167:hothouse.cpp  ****       return GetLogicalSwitchPosition(switches[SWITCH_2_UP],
 1000              		.loc 1 167 5 is_stmt 1 view .LVU225
 168:hothouse.cpp  ****                                       switches[SWITCH_2_DOWN]);
 1001              		.loc 1 168 7 view .LVU226
 1002              	.LBB137:
 1003              	.LBB138:
 180:hothouse.cpp  **** 
 181:hothouse.cpp  **** void Hothouse::CheckResetToBootloader() {
 182:hothouse.cpp  ****   if (switches[Hothouse::FOOTSWITCH_1].Pressed()) {
 183:hothouse.cpp  ****     if (footswitch_start_time[0] == 0) {
 184:hothouse.cpp  ****       footswitch_start_time [0]= System::GetNow();
 185:hothouse.cpp  ****     } else if (System::GetNow() - footswitch_start_time[0] >= HOLD_THRESHOLD_MS) {
 186:hothouse.cpp  ****       // Shut 'er down so the LEDs always flash
ARM GAS  /tmp/cc6aP9AC.s 			page 32


 187:hothouse.cpp  ****       StopAdc();
 188:hothouse.cpp  ****       StopAudio();
 189:hothouse.cpp  ****       
 190:hothouse.cpp  ****       daisy::Led _led_1, _led_2;
 191:hothouse.cpp  ****       _led_1.Init(seed.GetPin(22), false);
 192:hothouse.cpp  ****       _led_2.Init(seed.GetPin(23), false);
 193:hothouse.cpp  **** 
 194:hothouse.cpp  ****       // Alternately flash the LEDs 3 times
 195:hothouse.cpp  ****       for (int i = 0; i < 3; i++) {
 196:hothouse.cpp  ****         _led_1.Set(1);
 197:hothouse.cpp  ****         _led_2.Set(0);
 198:hothouse.cpp  ****         _led_1.Update();
 199:hothouse.cpp  ****         _led_2.Update();
 200:hothouse.cpp  ****         System::Delay(100);
 201:hothouse.cpp  **** 
 202:hothouse.cpp  ****         _led_1.Set(0);
 203:hothouse.cpp  ****         _led_2.Set(1);
 204:hothouse.cpp  ****         _led_1.Update();
 205:hothouse.cpp  ****         _led_2.Update();
 206:hothouse.cpp  ****         System::Delay(100);
 207:hothouse.cpp  ****       }
 208:hothouse.cpp  **** 
 209:hothouse.cpp  ****       // Reset system to bootloader after LED flashing
 210:hothouse.cpp  ****       System::ResetToBootloader();
 211:hothouse.cpp  ****     }
 212:hothouse.cpp  ****   } else {
 213:hothouse.cpp  ****     // Reset the hold timer if the footswitch is released
 214:hothouse.cpp  ****     footswitch_start_time[0] = 0;
 215:hothouse.cpp  ****   }
 216:hothouse.cpp  **** }
 217:hothouse.cpp  **** 
 218:hothouse.cpp  **** Hothouse::ToggleswitchPosition Hothouse::GetLogicalSwitchPosition(Switch up,
 219:hothouse.cpp  ****                                                                   Switch down) {
 220:hothouse.cpp  ****   return up.Pressed()
 221:hothouse.cpp  ****              ? TOGGLESWITCH_UP
 1004              		.loc 1 221 14 is_stmt 0 view .LVU227
 1005 0016 90F82A31 		ldrb	r3, [r0, #298]	@ zero_extendqisi2
 1006              	.LBE138:
 1007              	.LBE137:
 169:hothouse.cpp  ****     case (TOGGLESWITCH_3):
 1008              		.loc 1 169 61 view .LVU228
 1009 001a 90F83A21 		ldrb	r2, [r0, #314]	@ zero_extendqisi2
 1010              	.LVL73:
 1011              	.LBB142:
 1012              	.LBI137:
 218:hothouse.cpp  ****                                                                   Switch down) {
 1013              		.loc 1 218 32 is_stmt 1 view .LVU229
 1014              	.LBB140:
 220:hothouse.cpp  ****              ? TOGGLESWITCH_UP
 1015              		.loc 1 220 3 view .LVU230
 1016              	.LBB139:
 1017              	.LBI139:
 1018              		.file 5 "/home/ubuntu/DaisyExamples/libDaisy/src/hid/switch.h"
   1:/home/ubuntu/DaisyExamples/libDaisy/src/hid/switch.h **** #pragma once
   2:/home/ubuntu/DaisyExamples/libDaisy/src/hid/switch.h **** #ifndef DSY_SWITCH_H
   3:/home/ubuntu/DaisyExamples/libDaisy/src/hid/switch.h **** #define DSY_SWITCH_H
   4:/home/ubuntu/DaisyExamples/libDaisy/src/hid/switch.h **** #include "daisy_core.h"
ARM GAS  /tmp/cc6aP9AC.s 			page 33


   5:/home/ubuntu/DaisyExamples/libDaisy/src/hid/switch.h **** #include "per/gpio.h"
   6:/home/ubuntu/DaisyExamples/libDaisy/src/hid/switch.h **** #include "sys/system.h"
   7:/home/ubuntu/DaisyExamples/libDaisy/src/hid/switch.h **** 
   8:/home/ubuntu/DaisyExamples/libDaisy/src/hid/switch.h **** namespace daisy
   9:/home/ubuntu/DaisyExamples/libDaisy/src/hid/switch.h **** {
  10:/home/ubuntu/DaisyExamples/libDaisy/src/hid/switch.h **** /** 
  11:/home/ubuntu/DaisyExamples/libDaisy/src/hid/switch.h ****     Generic Class for handling momentary/latching switches \n 
  12:/home/ubuntu/DaisyExamples/libDaisy/src/hid/switch.h ****     Inspired/influenced by Mutable Instruments (pichenettes) Switch classes
  13:/home/ubuntu/DaisyExamples/libDaisy/src/hid/switch.h ****     @author Stephen Hensley
  14:/home/ubuntu/DaisyExamples/libDaisy/src/hid/switch.h ****     @date December 2019
  15:/home/ubuntu/DaisyExamples/libDaisy/src/hid/switch.h ****     @ingroup controls
  16:/home/ubuntu/DaisyExamples/libDaisy/src/hid/switch.h **** */
  17:/home/ubuntu/DaisyExamples/libDaisy/src/hid/switch.h **** class Switch
  18:/home/ubuntu/DaisyExamples/libDaisy/src/hid/switch.h **** {
  19:/home/ubuntu/DaisyExamples/libDaisy/src/hid/switch.h ****   public:
  20:/home/ubuntu/DaisyExamples/libDaisy/src/hid/switch.h ****     /** Specifies the expected behavior of the switch */
  21:/home/ubuntu/DaisyExamples/libDaisy/src/hid/switch.h ****     enum Type
  22:/home/ubuntu/DaisyExamples/libDaisy/src/hid/switch.h ****     {
  23:/home/ubuntu/DaisyExamples/libDaisy/src/hid/switch.h ****         TYPE_TOGGLE,    /**< & */
  24:/home/ubuntu/DaisyExamples/libDaisy/src/hid/switch.h ****         TYPE_MOMENTARY, /**< & */
  25:/home/ubuntu/DaisyExamples/libDaisy/src/hid/switch.h ****     };
  26:/home/ubuntu/DaisyExamples/libDaisy/src/hid/switch.h ****     /** Specifies whether the pressed is HIGH or LOW. */
  27:/home/ubuntu/DaisyExamples/libDaisy/src/hid/switch.h ****     enum Polarity
  28:/home/ubuntu/DaisyExamples/libDaisy/src/hid/switch.h ****     {
  29:/home/ubuntu/DaisyExamples/libDaisy/src/hid/switch.h ****         POLARITY_NORMAL,   /**< & */
  30:/home/ubuntu/DaisyExamples/libDaisy/src/hid/switch.h ****         POLARITY_INVERTED, /**< & */
  31:/home/ubuntu/DaisyExamples/libDaisy/src/hid/switch.h ****     };
  32:/home/ubuntu/DaisyExamples/libDaisy/src/hid/switch.h **** 
  33:/home/ubuntu/DaisyExamples/libDaisy/src/hid/switch.h ****     /** Specifies whether to use built-in Pull Up/Down resistors to hold button at a given state wh
  34:/home/ubuntu/DaisyExamples/libDaisy/src/hid/switch.h ****     enum Pull
  35:/home/ubuntu/DaisyExamples/libDaisy/src/hid/switch.h ****     {
  36:/home/ubuntu/DaisyExamples/libDaisy/src/hid/switch.h ****         PULL_UP,   /**< & */
  37:/home/ubuntu/DaisyExamples/libDaisy/src/hid/switch.h ****         PULL_DOWN, /**< & */
  38:/home/ubuntu/DaisyExamples/libDaisy/src/hid/switch.h ****         PULL_NONE, /**< & */
  39:/home/ubuntu/DaisyExamples/libDaisy/src/hid/switch.h ****     };
  40:/home/ubuntu/DaisyExamples/libDaisy/src/hid/switch.h **** 
  41:/home/ubuntu/DaisyExamples/libDaisy/src/hid/switch.h ****     Switch() {}
  42:/home/ubuntu/DaisyExamples/libDaisy/src/hid/switch.h ****     ~Switch() {}
  43:/home/ubuntu/DaisyExamples/libDaisy/src/hid/switch.h **** 
  44:/home/ubuntu/DaisyExamples/libDaisy/src/hid/switch.h ****     /** 
  45:/home/ubuntu/DaisyExamples/libDaisy/src/hid/switch.h ****     Initializes the switch object with a given port/pin combo.
  46:/home/ubuntu/DaisyExamples/libDaisy/src/hid/switch.h ****     \param pin port/pin object to tell the switch which hardware pin to use.
  47:/home/ubuntu/DaisyExamples/libDaisy/src/hid/switch.h ****     \param update_rate Does nothing. Backwards compatibility until next breaking update.
  48:/home/ubuntu/DaisyExamples/libDaisy/src/hid/switch.h ****     \param t switch type -- Default: TYPE_MOMENTARY
  49:/home/ubuntu/DaisyExamples/libDaisy/src/hid/switch.h ****     \param pol switch polarity -- Default: POLARITY_INVERTED
  50:/home/ubuntu/DaisyExamples/libDaisy/src/hid/switch.h ****     \param pu switch pull up/down -- Default: PULL_UP
  51:/home/ubuntu/DaisyExamples/libDaisy/src/hid/switch.h ****     */
  52:/home/ubuntu/DaisyExamples/libDaisy/src/hid/switch.h ****     void
  53:/home/ubuntu/DaisyExamples/libDaisy/src/hid/switch.h ****     Init(dsy_gpio_pin pin, float update_rate, Type t, Polarity pol, Pull pu);
  54:/home/ubuntu/DaisyExamples/libDaisy/src/hid/switch.h **** 
  55:/home/ubuntu/DaisyExamples/libDaisy/src/hid/switch.h ****     /**
  56:/home/ubuntu/DaisyExamples/libDaisy/src/hid/switch.h ****        Simplified Init.
  57:/home/ubuntu/DaisyExamples/libDaisy/src/hid/switch.h ****        \param pin port/pin object to tell the switch which hardware pin to use.
  58:/home/ubuntu/DaisyExamples/libDaisy/src/hid/switch.h ****        \param update_rate Left for backwards compatibility until next breaking change.
  59:/home/ubuntu/DaisyExamples/libDaisy/src/hid/switch.h ****     */
  60:/home/ubuntu/DaisyExamples/libDaisy/src/hid/switch.h ****     void Init(dsy_gpio_pin pin, float update_rate = 0.f);
  61:/home/ubuntu/DaisyExamples/libDaisy/src/hid/switch.h **** 
ARM GAS  /tmp/cc6aP9AC.s 			page 34


  62:/home/ubuntu/DaisyExamples/libDaisy/src/hid/switch.h ****     /** 
  63:/home/ubuntu/DaisyExamples/libDaisy/src/hid/switch.h ****     Called at update_rate to debounce and handle timing for the switch.
  64:/home/ubuntu/DaisyExamples/libDaisy/src/hid/switch.h ****     In order for events not to be missed, its important that the Edge/Pressed checks
  65:/home/ubuntu/DaisyExamples/libDaisy/src/hid/switch.h ****     be made at the same rate as the debounce function is being called.
  66:/home/ubuntu/DaisyExamples/libDaisy/src/hid/switch.h ****     */
  67:/home/ubuntu/DaisyExamples/libDaisy/src/hid/switch.h ****     void Debounce();
  68:/home/ubuntu/DaisyExamples/libDaisy/src/hid/switch.h **** 
  69:/home/ubuntu/DaisyExamples/libDaisy/src/hid/switch.h ****     /** \return true if a button was just pressed. */
  70:/home/ubuntu/DaisyExamples/libDaisy/src/hid/switch.h ****     inline bool RisingEdge() const { return updated_ ? state_ == 0x7f : false; }
  71:/home/ubuntu/DaisyExamples/libDaisy/src/hid/switch.h **** 
  72:/home/ubuntu/DaisyExamples/libDaisy/src/hid/switch.h ****     /** \return true if the button was just released */
  73:/home/ubuntu/DaisyExamples/libDaisy/src/hid/switch.h ****     inline bool FallingEdge() const
  74:/home/ubuntu/DaisyExamples/libDaisy/src/hid/switch.h ****     {
  75:/home/ubuntu/DaisyExamples/libDaisy/src/hid/switch.h ****         return updated_ ? state_ == 0x80 : false;
  76:/home/ubuntu/DaisyExamples/libDaisy/src/hid/switch.h ****     }
  77:/home/ubuntu/DaisyExamples/libDaisy/src/hid/switch.h **** 
  78:/home/ubuntu/DaisyExamples/libDaisy/src/hid/switch.h ****     /** \return true if the button is held down (or if the toggle is on) */
  79:/home/ubuntu/DaisyExamples/libDaisy/src/hid/switch.h ****     inline bool Pressed() const { return state_ == 0xff; }
 1019              		.loc 5 79 17 view .LVU231
 1020              	.LBE139:
 1021              	.LBE140:
 1022              	.LBE142:
 1023              		.loc 5 79 35 view .LVU232
 1024              	.LBB143:
 1025              	.LBB141:
 1026              		.loc 1 221 14 is_stmt 0 view .LVU233
 1027 001e FF2B     		cmp	r3, #255
 1028 0020 0AD0     		beq	.L58
 1029              	.LVL74:
 1030              	.L61:
 1031              		.loc 1 221 14 view .LVU234
 1032              	.LBE141:
 1033              	.LBE143:
 1034              	.LBB144:
 1035              	.LBB145:
 1036              	.LBB146:
 1037              	.LBI146:
 1038              		.loc 5 79 17 is_stmt 1 view .LVU235
 1039              	.LBE146:
 1040              	.LBE145:
 1041              	.LBE144:
 1042              		.loc 5 79 35 view .LVU236
 1043              	.LBB153:
 1044              	.LBB154:
 222:hothouse.cpp  ****              : (down.Pressed() ? TOGGLESWITCH_DOWN : TOGGLESWITCH_MIDDLE);
 1045              		.loc 1 222 32 is_stmt 0 view .LVU237
 1046 0022 FF2A     		cmp	r2, #255
 1047 0024 14BF     		ite	ne
 1048 0026 0120     		movne	r0, #1
 1049              	.LVL75:
 1050              		.loc 1 222 32 view .LVU238
 1051 0028 0220     		moveq	r0, #2
 1052              	.L63:
 1053              		.loc 1 222 32 view .LVU239
 1054              	.LBE154:
 1055              	.LBE153:
 179:hothouse.cpp  **** 
ARM GAS  /tmp/cc6aP9AC.s 			page 35


 1056              		.loc 1 179 1 view .LVU240
 1057 002a 08BD     		pop	{r3, pc}
 1058              	.LVL76:
 1059              	.L51:
 170:hothouse.cpp  ****       return GetLogicalSwitchPosition(switches[SWITCH_3_UP],
 1060              		.loc 1 170 5 is_stmt 1 view .LVU241
 171:hothouse.cpp  ****                                       switches[SWITCH_3_DOWN]);
 1061              		.loc 1 171 7 view .LVU242
 1062              	.LBB161:
 1063              	.LBB149:
 221:hothouse.cpp  ****              : (down.Pressed() ? TOGGLESWITCH_DOWN : TOGGLESWITCH_MIDDLE);
 1064              		.loc 1 221 14 is_stmt 0 view .LVU243
 1065 002c 90F84A31 		ldrb	r3, [r0, #330]	@ zero_extendqisi2
 1066              	.LBE149:
 1067              	.LBE161:
 172:hothouse.cpp  ****     default:
 1068              		.loc 1 172 61 view .LVU244
 1069 0030 90F85A21 		ldrb	r2, [r0, #346]	@ zero_extendqisi2
 1070              	.LVL77:
 1071              	.LBB162:
 1072              	.LBI144:
 218:hothouse.cpp  ****                                                                   Switch down) {
 1073              		.loc 1 218 32 is_stmt 1 view .LVU245
 1074              	.LBB150:
 220:hothouse.cpp  ****              ? TOGGLESWITCH_UP
 1075              		.loc 1 220 3 view .LVU246
 1076              	.LBB147:
 1077              	.LBI147:
 1078              		.loc 5 79 17 view .LVU247
 1079              	.LBE147:
 1080              	.LBE150:
 1081              	.LBE162:
 1082              		.loc 5 79 35 view .LVU248
 1083              	.LBB163:
 1084              	.LBB151:
 221:hothouse.cpp  ****              : (down.Pressed() ? TOGGLESWITCH_DOWN : TOGGLESWITCH_MIDDLE);
 1085              		.loc 1 221 14 is_stmt 0 view .LVU249
 1086 0034 FF2B     		cmp	r3, #255
 1087 0036 F4D1     		bne	.L61
 1088              	.LVL78:
 1089              	.L58:
 221:hothouse.cpp  ****              : (down.Pressed() ? TOGGLESWITCH_DOWN : TOGGLESWITCH_MIDDLE);
 1090              		.loc 1 221 14 view .LVU250
 1091              	.LBE151:
 1092              	.LBE163:
 1093              	.LBB164:
 1094              	.LBB156:
 1095 0038 0020     		movs	r0, #0
 1096              	.LVL79:
 221:hothouse.cpp  ****              : (down.Pressed() ? TOGGLESWITCH_DOWN : TOGGLESWITCH_MIDDLE);
 1097              		.loc 1 221 14 view .LVU251
 1098              	.LBE156:
 1099              	.LBE164:
 179:hothouse.cpp  **** 
 1100              		.loc 1 179 1 view .LVU252
 1101 003a 08BD     		pop	{r3, pc}
 1102              	.LVL80:
ARM GAS  /tmp/cc6aP9AC.s 			page 36


 1103              	.L62:
 164:hothouse.cpp  ****       return GetLogicalSwitchPosition(switches[SWITCH_1_UP],
 1104              		.loc 1 164 5 is_stmt 1 view .LVU253
 165:hothouse.cpp  ****                                       switches[SWITCH_1_DOWN]);
 1105              		.loc 1 165 7 view .LVU254
 1106              	.LBB165:
 1107              	.LBB157:
 221:hothouse.cpp  ****              : (down.Pressed() ? TOGGLESWITCH_DOWN : TOGGLESWITCH_MIDDLE);
 1108              		.loc 1 221 14 is_stmt 0 view .LVU255
 1109 003c 90F80A31 		ldrb	r3, [r0, #266]	@ zero_extendqisi2
 1110              	.LBE157:
 1111              	.LBE165:
 166:hothouse.cpp  ****     case (TOGGLESWITCH_2):
 1112              		.loc 1 166 61 view .LVU256
 1113 0040 90F81A21 		ldrb	r2, [r0, #282]	@ zero_extendqisi2
 1114              	.LVL81:
 1115              	.LBB166:
 1116              	.LBI153:
 218:hothouse.cpp  ****                                                                   Switch down) {
 1117              		.loc 1 218 32 is_stmt 1 view .LVU257
 1118              	.LBB158:
 220:hothouse.cpp  ****              ? TOGGLESWITCH_UP
 1119              		.loc 1 220 3 view .LVU258
 1120              	.LBB155:
 1121              	.LBI155:
 1122              		.loc 5 79 17 view .LVU259
 1123              	.LBE155:
 1124              	.LBE158:
 1125              	.LBE166:
 1126              		.loc 5 79 35 view .LVU260
 1127              	.LBB167:
 1128              	.LBB159:
 221:hothouse.cpp  ****              : (down.Pressed() ? TOGGLESWITCH_DOWN : TOGGLESWITCH_MIDDLE);
 1129              		.loc 1 221 14 is_stmt 0 view .LVU261
 1130 0044 FF2B     		cmp	r3, #255
 1131 0046 F7D0     		beq	.L58
 1132              	.LVL82:
 221:hothouse.cpp  ****              : (down.Pressed() ? TOGGLESWITCH_DOWN : TOGGLESWITCH_MIDDLE);
 1133              		.loc 1 221 14 view .LVU262
 1134              	.LBE159:
 1135              	.LBE167:
 1136              	.LBB168:
 1137              	.LBB152:
 1138              	.LBB148:
 1139              		.loc 5 79 17 is_stmt 1 view .LVU263
 1140              	.LBE148:
 1141              	.LBE152:
 1142              	.LBE168:
 1143              		.loc 5 79 35 view .LVU264
 1144              	.LBB169:
 1145              	.LBB160:
 1146              		.loc 1 222 32 is_stmt 0 view .LVU265
 1147 0048 FF2A     		cmp	r2, #255
 1148 004a 14BF     		ite	ne
 1149 004c 0120     		movne	r0, #1
 1150              	.LVL83:
 1151              		.loc 1 222 32 view .LVU266
ARM GAS  /tmp/cc6aP9AC.s 			page 37


 1152 004e 0220     		moveq	r0, #2
 1153 0050 EBE7     		b	.L63
 1154              	.L65:
 1155 0052 00BF     		.align	2
 1156              	.L64:
 1157 0054 00000000 		.word	.LC2
 1158              	.LBE160:
 1159              	.LBE169:
 1160              		.cfi_endproc
 1161              	.LFE2583:
 1163              		.section	.text._ZN16clevelandmusicco8Hothouse22CheckResetToBootloaderEv,"ax",%progbits
 1164              		.align	1
 1165              		.p2align 2,,3
 1166              		.global	_ZN16clevelandmusicco8Hothouse22CheckResetToBootloaderEv
 1167              		.syntax unified
 1168              		.thumb
 1169              		.thumb_func
 1170              		.fpu fpv5-d16
 1172              	_ZN16clevelandmusicco8Hothouse22CheckResetToBootloaderEv:
 1173              	.LVL84:
 1174              	.LFB2584:
 181:hothouse.cpp  ****   if (switches[Hothouse::FOOTSWITCH_1].Pressed()) {
 1175              		.loc 1 181 41 is_stmt 1 view -0
 1176              		.cfi_startproc
 1177              		@ args = 0, pretend = 0, frame = 64
 1178              		@ frame_needed = 0, uses_anonymous_args = 0
 182:hothouse.cpp  ****     if (footswitch_start_time[0] == 0) {
 1179              		.loc 1 182 3 view .LVU268
 181:hothouse.cpp  ****   if (switches[Hothouse::FOOTSWITCH_1].Pressed()) {
 1180              		.loc 1 181 41 is_stmt 0 view .LVU269
 1181 0000 10B5     		push	{r4, lr}
 1182              		.cfi_def_cfa_offset 8
 1183              		.cfi_offset 4, -8
 1184              		.cfi_offset 14, -4
 1185              	.LBB170:
 182:hothouse.cpp  ****     if (footswitch_start_time[0] == 0) {
 1186              		.loc 1 182 3 view .LVU270
 1187 0002 90F86A31 		ldrb	r3, [r0, #362]	@ zero_extendqisi2
 1188              	.LBE170:
 181:hothouse.cpp  ****   if (switches[Hothouse::FOOTSWITCH_1].Pressed()) {
 1189              		.loc 1 181 41 view .LVU271
 1190 0006 90B0     		sub	sp, sp, #64
 1191              		.cfi_def_cfa_offset 72
 181:hothouse.cpp  ****   if (switches[Hothouse::FOOTSWITCH_1].Pressed()) {
 1192              		.loc 1 181 41 view .LVU272
 1193 0008 0446     		mov	r4, r0
 1194              	.LVL85:
 1195              	.LBB186:
 1196              	.LBB171:
 1197              	.LBI171:
 1198              		.loc 5 79 17 is_stmt 1 view .LVU273
 1199              	.LBB172:
 1200              		.loc 5 79 35 view .LVU274
 1201              		.loc 5 79 35 is_stmt 0 view .LVU275
 1202              	.LBE172:
 1203              	.LBE171:
 182:hothouse.cpp  ****     if (footswitch_start_time[0] == 0) {
ARM GAS  /tmp/cc6aP9AC.s 			page 38


 1204              		.loc 1 182 3 view .LVU276
 1205 000a FF2B     		cmp	r3, #255
 1206 000c 04D0     		beq	.L73
 214:hothouse.cpp  ****   }
 1207              		.loc 1 214 5 is_stmt 1 view .LVU277
 214:hothouse.cpp  ****   }
 1208              		.loc 1 214 30 is_stmt 0 view .LVU278
 1209 000e 0023     		movs	r3, #0
 1210 0010 C0F88031 		str	r3, [r0, #384]
 1211              	.LVL86:
 1212              	.L66:
 214:hothouse.cpp  ****   }
 1213              		.loc 1 214 30 view .LVU279
 1214              	.LBE186:
 216:hothouse.cpp  **** 
 1215              		.loc 1 216 1 view .LVU280
 1216 0014 10B0     		add	sp, sp, #64
 1217              		.cfi_remember_state
 1218              		.cfi_def_cfa_offset 8
 1219              		@ sp needed
 1220 0016 10BD     		pop	{r4, pc}
 1221              	.LVL87:
 1222              	.L73:
 1223              		.cfi_restore_state
 183:hothouse.cpp  ****       footswitch_start_time [0]= System::GetNow();
 1224              		.loc 1 183 5 is_stmt 1 view .LVU281
 1225              	.LBB187:
 1226              	.LBB173:
 1227 0018 D0F88031 		ldr	r3, [r0, #384]
 1228 001c 002B     		cmp	r3, #0
 1229 001e 53D0     		beq	.L74
 1230              	.LBE173:
 1231              	.LBE187:
 185:hothouse.cpp  ****       // Shut 'er down so the LEDs always flash
 1232              		.loc 1 185 12 view .LVU282
 1233              	.LBB188:
 1234              	.LBB185:
 1235              	.LBB174:
 185:hothouse.cpp  ****       // Shut 'er down so the LEDs always flash
 1236              		.loc 1 185 30 is_stmt 0 view .LVU283
 1237 0020 FFF7FEFF 		bl	_ZN5daisy6System6GetNowEv
 1238              	.LVL88:
 185:hothouse.cpp  ****       // Shut 'er down so the LEDs always flash
 1239              		.loc 1 185 33 view .LVU284
 1240 0024 D4F88031 		ldr	r3, [r4, #384]
 1241 0028 C01A     		subs	r0, r0, r3
 185:hothouse.cpp  ****       // Shut 'er down so the LEDs always flash
 1242              		.loc 1 185 12 view .LVU285
 1243 002a B0F5FA6F 		cmp	r0, #2000
 1244 002e F1D3     		bcc	.L66
 1245              	.LBB175:
 187:hothouse.cpp  ****       StopAudio();
 1246              		.loc 1 187 7 is_stmt 1 view .LVU286
 1247              	.LVL89:
 1248              	.LBB176:
 1249              	.LBI176:
 103:hothouse.cpp  **** 
ARM GAS  /tmp/cc6aP9AC.s 			page 39


 1250              		.loc 1 103 6 view .LVU287
 1251              	.LBB177:
 103:hothouse.cpp  **** 
 1252              		.loc 1 103 28 view .LVU288
 103:hothouse.cpp  **** 
 1253              		.loc 1 103 41 is_stmt 0 view .LVU289
 1254 0030 04F11800 		add	r0, r4, #24
 1255 0034 FFF7FEFF 		bl	_ZN5daisy9AdcHandle4StopEv
 1256              	.LVL90:
 103:hothouse.cpp  **** 
 1257              		.loc 1 103 41 view .LVU290
 1258              	.LBE177:
 1259              	.LBE176:
 188:hothouse.cpp  ****       
 1260              		.loc 1 188 7 is_stmt 1 view .LVU291
 1261              	.LBB178:
 1262              	.LBI178:
  83:hothouse.cpp  **** 
 1263              		.loc 1 83 6 view .LVU292
 1264              	.LBB179:
  83:hothouse.cpp  **** 
 1265              		.loc 1 83 30 view .LVU293
  83:hothouse.cpp  **** 
 1266              		.loc 1 83 44 is_stmt 0 view .LVU294
 1267 0038 2046     		mov	r0, r4
 1268 003a FFF7FEFF 		bl	_ZN5daisy9DaisySeed9StopAudioEv
 1269              	.LVL91:
  83:hothouse.cpp  **** 
 1270              		.loc 1 83 44 view .LVU295
 1271              	.LBE179:
 1272              	.LBE178:
 190:hothouse.cpp  ****       _led_1.Init(seed.GetPin(22), false);
 1273              		.loc 1 190 7 is_stmt 1 view .LVU296
 1274              	.LBB180:
 1275              	.LBI180:
 1276              		.file 6 "/home/ubuntu/DaisyExamples/libDaisy/src/hid/led.h"
   1:/home/ubuntu/DaisyExamples/libDaisy/src/hid/led.h **** 
   2:/home/ubuntu/DaisyExamples/libDaisy/src/hid/led.h **** #pragma once
   3:/home/ubuntu/DaisyExamples/libDaisy/src/hid/led.h **** #ifndef DSY_LED_H
   4:/home/ubuntu/DaisyExamples/libDaisy/src/hid/led.h **** #define DSY_LED_H
   5:/home/ubuntu/DaisyExamples/libDaisy/src/hid/led.h **** #include "daisy_core.h"
   6:/home/ubuntu/DaisyExamples/libDaisy/src/hid/led.h **** #include "per/gpio.h"
   7:/home/ubuntu/DaisyExamples/libDaisy/src/hid/led.h **** 
   8:/home/ubuntu/DaisyExamples/libDaisy/src/hid/led.h **** /* TODO - Get this set up to work with the dev_leddriver stuff as well
   9:/home/ubuntu/DaisyExamples/libDaisy/src/hid/led.h **** - Setup Hardware PWM for pins that have it
  10:/home/ubuntu/DaisyExamples/libDaisy/src/hid/led.h **** */
  11:/home/ubuntu/DaisyExamples/libDaisy/src/hid/led.h **** 
  12:/home/ubuntu/DaisyExamples/libDaisy/src/hid/led.h **** namespace daisy
  13:/home/ubuntu/DaisyExamples/libDaisy/src/hid/led.h **** {
  14:/home/ubuntu/DaisyExamples/libDaisy/src/hid/led.h **** /**
  15:/home/ubuntu/DaisyExamples/libDaisy/src/hid/led.h ****     @brief LED Class providing simple Software PWM ability, etc \n 
  16:/home/ubuntu/DaisyExamples/libDaisy/src/hid/led.h ****     Eventually this will work with hardware PWM, and external LED Driver devices as well.
  17:/home/ubuntu/DaisyExamples/libDaisy/src/hid/led.h ****     @author shensley
  18:/home/ubuntu/DaisyExamples/libDaisy/src/hid/led.h ****     @date March 2020
  19:/home/ubuntu/DaisyExamples/libDaisy/src/hid/led.h ****     @ingroup feedback
  20:/home/ubuntu/DaisyExamples/libDaisy/src/hid/led.h **** */
  21:/home/ubuntu/DaisyExamples/libDaisy/src/hid/led.h **** class Led
ARM GAS  /tmp/cc6aP9AC.s 			page 40


  22:/home/ubuntu/DaisyExamples/libDaisy/src/hid/led.h **** {
  23:/home/ubuntu/DaisyExamples/libDaisy/src/hid/led.h ****   public:
  24:/home/ubuntu/DaisyExamples/libDaisy/src/hid/led.h ****     Led() {}
 1277              		.loc 6 24 5 view .LVU297
 1278              		.loc 6 24 5 is_stmt 0 view .LVU298
 1279              	.LBE180:
 1280              	.LBB181:
 1281              	.LBI181:
 1282              		.loc 6 24 5 is_stmt 1 view .LVU299
 1283              		.loc 6 24 5 is_stmt 0 view .LVU300
 1284              	.LBE181:
 191:hothouse.cpp  ****       _led_2.Init(seed.GetPin(23), false);
 1285              		.loc 1 191 7 is_stmt 1 view .LVU301
 191:hothouse.cpp  ****       _led_2.Init(seed.GetPin(23), false);
 1286              		.loc 1 191 18 is_stmt 0 view .LVU302
 1287 003e 1620     		movs	r0, #22
 1288 0040 FFF7FEFF 		bl	_ZN5daisy9DaisySeed6GetPinEh
 1289              	.LVL92:
 1290 0044 ADF80000 		strh	r0, [sp]	@ movhi
 1291 0048 9FED220A 		vldr.32	s0, .L75
 1292 004c 0022     		movs	r2, #0
 1293 004e 0099     		ldr	r1, [sp]
 1294 0050 02A8     		add	r0, sp, #8
 1295 0052 FFF7FEFF 		bl	_ZN5daisy3Led4InitE12dsy_gpio_pinbf
 1296              	.LVL93:
 192:hothouse.cpp  **** 
 1297              		.loc 1 192 7 is_stmt 1 view .LVU303
 192:hothouse.cpp  **** 
 1298              		.loc 1 192 18 is_stmt 0 view .LVU304
 1299 0056 1720     		movs	r0, #23
 1300 0058 FFF7FEFF 		bl	_ZN5daisy9DaisySeed6GetPinEh
 1301              	.LVL94:
 1302 005c 0324     		movs	r4, #3
 1303              	.LVL95:
 192:hothouse.cpp  **** 
 1304              		.loc 1 192 18 view .LVU305
 1305 005e ADF80400 		strh	r0, [sp, #4]	@ movhi
 1306 0062 0022     		movs	r2, #0
 1307 0064 9FED1B0A 		vldr.32	s0, .L75
 1308 0068 09A8     		add	r0, sp, #36
 1309 006a 0199     		ldr	r1, [sp, #4]
 1310 006c FFF7FEFF 		bl	_ZN5daisy3Led4InitE12dsy_gpio_pinbf
 1311              	.LVL96:
 195:hothouse.cpp  ****         _led_1.Set(1);
 1312              		.loc 1 195 7 is_stmt 1 view .LVU306
 1313              	.LBB182:
 195:hothouse.cpp  ****         _led_1.Set(1);
 1314              		.loc 1 195 25 view .LVU307
 1315              	.L70:
 196:hothouse.cpp  ****         _led_2.Set(0);
 1316              		.loc 1 196 9 discriminator 2 view .LVU308
 196:hothouse.cpp  ****         _led_2.Set(0);
 1317              		.loc 1 196 19 is_stmt 0 discriminator 2 view .LVU309
 1318 0070 B7EE000A 		vmov.f32	s0, #1.0e+0
 1319 0074 02A8     		add	r0, sp, #8
 1320 0076 FFF7FEFF 		bl	_ZN5daisy3Led3SetEf
 1321              	.LVL97:
ARM GAS  /tmp/cc6aP9AC.s 			page 41


 197:hothouse.cpp  ****         _led_1.Update();
 1322              		.loc 1 197 9 is_stmt 1 discriminator 2 view .LVU310
 197:hothouse.cpp  ****         _led_1.Update();
 1323              		.loc 1 197 19 is_stmt 0 discriminator 2 view .LVU311
 1324 007a 9FED170A 		vldr.32	s0, .L75+4
 1325 007e 09A8     		add	r0, sp, #36
 1326 0080 FFF7FEFF 		bl	_ZN5daisy3Led3SetEf
 1327              	.LVL98:
 198:hothouse.cpp  ****         _led_2.Update();
 1328              		.loc 1 198 9 is_stmt 1 discriminator 2 view .LVU312
 198:hothouse.cpp  ****         _led_2.Update();
 1329              		.loc 1 198 22 is_stmt 0 discriminator 2 view .LVU313
 1330 0084 02A8     		add	r0, sp, #8
 1331 0086 FFF7FEFF 		bl	_ZN5daisy3Led6UpdateEv
 1332              	.LVL99:
 199:hothouse.cpp  ****         System::Delay(100);
 1333              		.loc 1 199 9 is_stmt 1 discriminator 2 view .LVU314
 199:hothouse.cpp  ****         System::Delay(100);
 1334              		.loc 1 199 22 is_stmt 0 discriminator 2 view .LVU315
 1335 008a 09A8     		add	r0, sp, #36
 1336 008c FFF7FEFF 		bl	_ZN5daisy3Led6UpdateEv
 1337              	.LVL100:
 200:hothouse.cpp  **** 
 1338              		.loc 1 200 9 is_stmt 1 discriminator 2 view .LVU316
 200:hothouse.cpp  **** 
 1339              		.loc 1 200 22 is_stmt 0 discriminator 2 view .LVU317
 1340 0090 6420     		movs	r0, #100
 1341 0092 FFF7FEFF 		bl	_ZN5daisy6System5DelayEm
 1342              	.LVL101:
 202:hothouse.cpp  ****         _led_2.Set(1);
 1343              		.loc 1 202 9 is_stmt 1 discriminator 2 view .LVU318
 202:hothouse.cpp  ****         _led_2.Set(1);
 1344              		.loc 1 202 19 is_stmt 0 discriminator 2 view .LVU319
 1345 0096 9FED100A 		vldr.32	s0, .L75+4
 1346 009a 02A8     		add	r0, sp, #8
 1347 009c FFF7FEFF 		bl	_ZN5daisy3Led3SetEf
 1348              	.LVL102:
 203:hothouse.cpp  ****         _led_1.Update();
 1349              		.loc 1 203 9 is_stmt 1 discriminator 2 view .LVU320
 203:hothouse.cpp  ****         _led_1.Update();
 1350              		.loc 1 203 19 is_stmt 0 discriminator 2 view .LVU321
 1351 00a0 B7EE000A 		vmov.f32	s0, #1.0e+0
 1352 00a4 09A8     		add	r0, sp, #36
 1353 00a6 FFF7FEFF 		bl	_ZN5daisy3Led3SetEf
 1354              	.LVL103:
 204:hothouse.cpp  ****         _led_2.Update();
 1355              		.loc 1 204 9 is_stmt 1 discriminator 2 view .LVU322
 204:hothouse.cpp  ****         _led_2.Update();
 1356              		.loc 1 204 22 is_stmt 0 discriminator 2 view .LVU323
 1357 00aa 02A8     		add	r0, sp, #8
 1358 00ac FFF7FEFF 		bl	_ZN5daisy3Led6UpdateEv
 1359              	.LVL104:
 205:hothouse.cpp  ****         System::Delay(100);
 1360              		.loc 1 205 9 is_stmt 1 discriminator 2 view .LVU324
 205:hothouse.cpp  ****         System::Delay(100);
 1361              		.loc 1 205 22 is_stmt 0 discriminator 2 view .LVU325
 1362 00b0 09A8     		add	r0, sp, #36
ARM GAS  /tmp/cc6aP9AC.s 			page 42


 1363 00b2 FFF7FEFF 		bl	_ZN5daisy3Led6UpdateEv
 1364              	.LVL105:
 206:hothouse.cpp  ****       }
 1365              		.loc 1 206 9 is_stmt 1 discriminator 2 view .LVU326
 206:hothouse.cpp  ****       }
 1366              		.loc 1 206 22 is_stmt 0 discriminator 2 view .LVU327
 1367 00b6 6420     		movs	r0, #100
 1368 00b8 FFF7FEFF 		bl	_ZN5daisy6System5DelayEm
 1369              	.LVL106:
 195:hothouse.cpp  ****         _led_1.Set(1);
 1370              		.loc 1 195 7 is_stmt 1 discriminator 2 view .LVU328
 195:hothouse.cpp  ****         _led_1.Set(1);
 1371              		.loc 1 195 25 discriminator 2 view .LVU329
 1372 00bc 013C     		subs	r4, r4, #1
 1373              	.LVL107:
 195:hothouse.cpp  ****         _led_1.Set(1);
 1374              		.loc 1 195 25 is_stmt 0 discriminator 2 view .LVU330
 1375 00be D7D1     		bne	.L70
 1376              	.LBE182:
 210:hothouse.cpp  ****     }
 1377              		.loc 1 210 7 is_stmt 1 view .LVU331
 210:hothouse.cpp  ****     }
 1378              		.loc 1 210 32 is_stmt 0 view .LVU332
 1379 00c0 2046     		mov	r0, r4
 1380 00c2 FFF7FEFF 		bl	_ZN5daisy6System17ResetToBootloaderENS0_14BootloaderModeE
 1381              	.LVL108:
 1382              	.LBB183:
 1383              	.LBI183:
  25:/home/ubuntu/DaisyExamples/libDaisy/src/hid/led.h ****     ~Led() {}
 1384              		.loc 6 25 5 is_stmt 1 view .LVU333
 1385              		.loc 6 25 5 is_stmt 0 view .LVU334
 1386              	.LBE183:
 1387              	.LBB184:
 1388              	.LBI184:
 1389              		.loc 6 25 5 is_stmt 1 view .LVU335
 1390              		.loc 6 25 5 is_stmt 0 view .LVU336
 1391              	.LBE184:
 1392              	.LBE175:
 1393 00c6 A5E7     		b	.L66
 1394              	.LVL109:
 1395              	.L74:
 1396              		.loc 6 25 5 view .LVU337
 1397              	.LBE174:
 184:hothouse.cpp  ****     } else if (System::GetNow() - footswitch_start_time[0] >= HOLD_THRESHOLD_MS) {
 1398              		.loc 1 184 7 is_stmt 1 view .LVU338
 184:hothouse.cpp  ****     } else if (System::GetNow() - footswitch_start_time[0] >= HOLD_THRESHOLD_MS) {
 1399              		.loc 1 184 48 is_stmt 0 view .LVU339
 1400 00c8 FFF7FEFF 		bl	_ZN5daisy6System6GetNowEv
 1401              	.LVL110:
 184:hothouse.cpp  ****     } else if (System::GetNow() - footswitch_start_time[0] >= HOLD_THRESHOLD_MS) {
 1402              		.loc 1 184 32 view .LVU340
 1403 00cc C4F88001 		str	r0, [r4, #384]
 1404              	.LBE185:
 1405              	.LBE188:
 216:hothouse.cpp  **** 
 1406              		.loc 1 216 1 view .LVU341
 1407 00d0 10B0     		add	sp, sp, #64
ARM GAS  /tmp/cc6aP9AC.s 			page 43


 1408              		.cfi_def_cfa_offset 8
 1409              		@ sp needed
 1410 00d2 10BD     		pop	{r4, pc}
 1411              	.LVL111:
 1412              	.L76:
 216:hothouse.cpp  **** 
 1413              		.loc 1 216 1 view .LVU342
 1414              		.align	2
 1415              	.L75:
 1416 00d4 00007A44 		.word	1148846080
 1417 00d8 00000000 		.word	0
 1418              		.cfi_endproc
 1419              	.LFE2584:
 1421              		.section	.text._ZN16clevelandmusicco8Hothouse24GetLogicalSwitchPositionEN5daisy6SwitchES2_,"ax",%p
 1422              		.align	1
 1423              		.p2align 2,,3
 1424              		.global	_ZN16clevelandmusicco8Hothouse24GetLogicalSwitchPositionEN5daisy6SwitchES2_
 1425              		.syntax unified
 1426              		.thumb
 1427              		.thumb_func
 1428              		.fpu fpv5-d16
 1430              	_ZN16clevelandmusicco8Hothouse24GetLogicalSwitchPositionEN5daisy6SwitchES2_:
 1431              	.LVL112:
 1432              	.LFB2585:
 219:hothouse.cpp  ****   return up.Pressed()
 1433              		.loc 1 219 80 is_stmt 1 view -0
 1434              		.cfi_startproc
 1435              		@ args = 0, pretend = 0, frame = 0
 1436              		@ frame_needed = 0, uses_anonymous_args = 0
 1437              		@ link register save eliminated.
 220:hothouse.cpp  ****              ? TOGGLESWITCH_UP
 1438              		.loc 1 220 3 view .LVU344
 1439              	.LBB189:
 1440              	.LBI189:
 1441              		.loc 5 79 17 view .LVU345
 1442              	.LBB190:
 1443              		.loc 5 79 35 view .LVU346
 1444              		.loc 5 79 35 is_stmt 0 view .LVU347
 1445              	.LBE190:
 1446              	.LBE189:
 221:hothouse.cpp  ****              : (down.Pressed() ? TOGGLESWITCH_DOWN : TOGGLESWITCH_MIDDLE);
 1447              		.loc 1 221 14 view .LVU348
 1448 0000 8B7A     		ldrb	r3, [r1, #10]	@ zero_extendqisi2
 1449 0002 FF2B     		cmp	r3, #255
 1450 0004 05D0     		beq	.L79
 1451              	.LVL113:
 1452              	.LBB191:
 1453              	.LBI191:
 1454              		.loc 5 79 17 is_stmt 1 view .LVU349
 1455              	.LBB192:
 1456              		.loc 5 79 35 view .LVU350
 1457              		.loc 5 79 35 is_stmt 0 view .LVU351
 1458              	.LBE192:
 1459              	.LBE191:
 1460              		.loc 1 222 32 view .LVU352
 1461 0006 937A     		ldrb	r3, [r2, #10]	@ zero_extendqisi2
 1462 0008 FF2B     		cmp	r3, #255
ARM GAS  /tmp/cc6aP9AC.s 			page 44


 1463 000a 0CBF     		ite	eq
 1464 000c 0220     		moveq	r0, #2
 1465              	.LVL114:
 1466              		.loc 1 222 32 view .LVU353
 1467 000e 0120     		movne	r0, #1
 1468 0010 7047     		bx	lr
 1469              	.LVL115:
 1470              	.L79:
 221:hothouse.cpp  ****              : (down.Pressed() ? TOGGLESWITCH_DOWN : TOGGLESWITCH_MIDDLE);
 1471              		.loc 1 221 14 view .LVU354
 1472 0012 0020     		movs	r0, #0
 1473              	.LVL116:
 223:hothouse.cpp  **** }
 1474              		.loc 1 223 1 view .LVU355
 1475 0014 7047     		bx	lr
 1476              		.cfi_endproc
 1477              	.LFE2585:
 1479 0016 00BF     		.section	.text._ZN16clevelandmusicco8Hothouse27RegisterFootswitchCallbacksEPNS0_19FootswitchCallba
 1480              		.align	1
 1481              		.p2align 2,,3
 1482              		.global	_ZN16clevelandmusicco8Hothouse27RegisterFootswitchCallbacksEPNS0_19FootswitchCallbacksE
 1483              		.syntax unified
 1484              		.thumb
 1485              		.thumb_func
 1486              		.fpu fpv5-d16
 1488              	_ZN16clevelandmusicco8Hothouse27RegisterFootswitchCallbacksEPNS0_19FootswitchCallbacksE:
 1489              	.LVL117:
 1490              	.LFB2586:
 224:hothouse.cpp  **** 
 225:hothouse.cpp  **** void Hothouse::RegisterFootswitchCallbacks(FootswitchCallbacks *callbacks) {
 1491              		.loc 1 225 76 is_stmt 1 view -0
 1492              		.cfi_startproc
 1493              		@ args = 0, pretend = 0, frame = 0
 1494              		@ frame_needed = 0, uses_anonymous_args = 0
 1495              		@ link register save eliminated.
 226:hothouse.cpp  ****   footswitchCallbacks = callbacks;
 1496              		.loc 1 226 3 view .LVU357
 1497              		.loc 1 226 23 is_stmt 0 view .LVU358
 1498 0000 C0F89811 		str	r1, [r0, #408]
 227:hothouse.cpp  **** }
 1499              		.loc 1 227 1 view .LVU359
 1500 0004 7047     		bx	lr
 1501              		.cfi_endproc
 1502              	.LFE2586:
 1504 0006 00BF     		.section	.text._ZN16clevelandmusicco8Hothouse24ProcessFootswitchPressesENS0_8SwitchesE,"ax",%progb
 1505              		.align	1
 1506              		.p2align 2,,3
 1507              		.global	_ZN16clevelandmusicco8Hothouse24ProcessFootswitchPressesENS0_8SwitchesE
 1508              		.syntax unified
 1509              		.thumb
 1510              		.thumb_func
 1511              		.fpu fpv5-d16
 1513              	_ZN16clevelandmusicco8Hothouse24ProcessFootswitchPressesENS0_8SwitchesE:
 1514              	.LVL118:
 1515              	.LFB2587:
 228:hothouse.cpp  **** 
 229:hothouse.cpp  **** // Watches for normal, double, and long presses of the footswitches.
ARM GAS  /tmp/cc6aP9AC.s 			page 45


 230:hothouse.cpp  **** void Hothouse::ProcessFootswitchPresses(Switches footswitch) {
 1516              		.loc 1 230 62 is_stmt 1 view -0
 1517              		.cfi_startproc
 1518              		@ args = 0, pretend = 0, frame = 0
 1519              		@ frame_needed = 0, uses_anonymous_args = 0
 231:hothouse.cpp  ****   if (footswitchCallbacks == NULL) {
 1520              		.loc 1 231 3 view .LVU361
 230:hothouse.cpp  ****   if (footswitchCallbacks == NULL) {
 1521              		.loc 1 230 62 is_stmt 0 view .LVU362
 1522 0000 2DE9F843 		push	{r3, r4, r5, r6, r7, r8, r9, lr}
 1523              		.cfi_def_cfa_offset 32
 1524              		.cfi_offset 3, -32
 1525              		.cfi_offset 4, -28
 1526              		.cfi_offset 5, -24
 1527              		.cfi_offset 6, -20
 1528              		.cfi_offset 7, -16
 1529              		.cfi_offset 8, -12
 1530              		.cfi_offset 9, -8
 1531              		.cfi_offset 14, -4
 1532              		.loc 1 231 3 view .LVU363
 1533 0004 D0F89831 		ldr	r3, [r0, #408]
 1534 0008 63B3     		cbz	r3, .L82
 232:hothouse.cpp  ****     return; // Nothing to do if callbacks have not been registered
 233:hothouse.cpp  ****   }
 234:hothouse.cpp  ****   bool is_pressed = switches[footswitch].RisingEdge();
 1535              		.loc 1 234 3 is_stmt 1 view .LVU364
 1536              	.LVL119:
 1537              	.LBB193:
 1538              	.LBI193:
  70:/home/ubuntu/DaisyExamples/libDaisy/src/hid/switch.h **** 
 1539              		.loc 5 70 17 view .LVU365
 1540              	.LBB194:
  70:/home/ubuntu/DaisyExamples/libDaisy/src/hid/switch.h **** 
 1541              		.loc 5 70 38 view .LVU366
  70:/home/ubuntu/DaisyExamples/libDaisy/src/hid/switch.h **** 
 1542              		.loc 5 70 45 is_stmt 0 view .LVU367
 1543 000a 00EB0113 		add	r3, r0, r1, lsl #4
 1544 000e 0446     		mov	r4, r0
 1545 0010 0D46     		mov	r5, r1
 1546 0012 93F80461 		ldrb	r6, [r3, #260]	@ zero_extendqisi2
  70:/home/ubuntu/DaisyExamples/libDaisy/src/hid/switch.h **** 
 1547              		.loc 5 70 54 view .LVU368
 1548 0016 3EB3     		cbz	r6, .L109
  70:/home/ubuntu/DaisyExamples/libDaisy/src/hid/switch.h **** 
 1549              		.loc 5 70 56 view .LVU369
 1550 0018 00EB0112 		add	r2, r0, r1, lsl #4
 1551              	.LBE194:
 1552              	.LBE193:
 235:hothouse.cpp  ****   int footswitch_index = footswitch == Hothouse::FOOTSWITCH_1 ? 0 : 1;
 1553              		.loc 1 235 63 view .LVU370
 1554 001c B1F10608 		subs	r8, r1, #6
 1555              	.LBB196:
 1556              	.LBB195:
  70:/home/ubuntu/DaisyExamples/libDaisy/src/hid/switch.h **** 
 1557              		.loc 5 70 56 view .LVU371
 1558 0020 92F80A71 		ldrb	r7, [r2, #266]	@ zero_extendqisi2
 1559              	.LVL120:
ARM GAS  /tmp/cc6aP9AC.s 			page 46


  70:/home/ubuntu/DaisyExamples/libDaisy/src/hid/switch.h **** 
 1560              		.loc 5 70 56 view .LVU372
 1561              	.LBE195:
 1562              	.LBE196:
 1563              		.loc 1 235 3 is_stmt 1 view .LVU373
 236:hothouse.cpp  **** 
 237:hothouse.cpp  ****   uint32_t now = System::GetNow();
 1564              		.loc 1 237 3 view .LVU374
 235:hothouse.cpp  ****   int footswitch_index = footswitch == Hothouse::FOOTSWITCH_1 ? 0 : 1;
 1565              		.loc 1 235 63 is_stmt 0 view .LVU375
 1566 0024 18BF     		it	ne
 1567 0026 4FF00108 		movne	r8, #1
 1568              		.loc 1 237 32 view .LVU376
 1569 002a FFF7FEFF 		bl	_ZN5daisy6System6GetNowEv
 1570              	.LVL121:
 238:hothouse.cpp  **** 
 239:hothouse.cpp  ****   if (is_pressed == true && footswitch_last_state[footswitch_index] == false) {
 1571              		.loc 1 239 3 is_stmt 1 view .LVU377
 1572 002e 7F2F     		cmp	r7, #127
 1573 0030 21D1     		bne	.L85
 1574              		.loc 1 239 67 is_stmt 0 discriminator 1 view .LVU378
 1575 0032 04EB0809 		add	r9, r4, r8
 1576 0036 99F89071 		ldrb	r7, [r9, #400]	@ zero_extendqisi2
 1577              	.LVL122:
 1578              		.loc 1 239 26 discriminator 1 view .LVU379
 1579 003a 9FBB     		cbnz	r7, .L86
 240:hothouse.cpp  ****     // Footswitch is pressed
 241:hothouse.cpp  ****     footswitch_start_time[footswitch_index] = now;
 1580              		.loc 1 241 5 is_stmt 1 view .LVU380
 1581 003c 04EB8803 		add	r3, r4, r8, lsl #2
 242:hothouse.cpp  **** 
 243:hothouse.cpp  ****     if ((now - footswitch_last_press_time[footswitch_index]) <= DOUBLE_PRESS_THRESHOLD_MS) {
 1582              		.loc 1 243 14 is_stmt 0 view .LVU381
 1583 0040 D3F88821 		ldr	r2, [r3, #392]
 241:hothouse.cpp  **** 
 1584              		.loc 1 241 45 view .LVU382
 1585 0044 C3F88001 		str	r0, [r3, #384]
 1586              		.loc 1 243 5 is_stmt 1 view .LVU383
 1587              		.loc 1 243 14 is_stmt 0 view .LVU384
 1588 0048 821A     		subs	r2, r0, r2
 1589              		.loc 1 243 5 view .LVU385
 1590 004a B2F5167F 		cmp	r2, #600
 1591 004e 42D9     		bls	.L110
 244:hothouse.cpp  ****       footswitch_press_count[footswitch_index]++;
 245:hothouse.cpp  ****     } else {
 246:hothouse.cpp  ****       footswitch_press_count[footswitch_index] = 1;
 1592              		.loc 1 246 48 view .LVU386
 1593 0050 0122     		movs	r2, #1
 1594              	.L87:
 1595 0052 89F89221 		strb	r2, [r9, #402]
 247:hothouse.cpp  ****     }
 248:hothouse.cpp  **** 
 249:hothouse.cpp  ****     footswitch_last_press_time[footswitch_index] = now;
 1596              		.loc 1 249 5 is_stmt 1 view .LVU387
 250:hothouse.cpp  ****     footswitch_long_press_triggered[footswitch_index] = false; // Reset long press trigger when pre
 1597              		.loc 1 250 55 is_stmt 0 view .LVU388
 1598 0056 0022     		movs	r2, #0
ARM GAS  /tmp/cc6aP9AC.s 			page 47


 249:hothouse.cpp  ****     footswitch_long_press_triggered[footswitch_index] = false; // Reset long press trigger when pre
 1599              		.loc 1 249 50 view .LVU389
 1600 0058 C3F88801 		str	r0, [r3, #392]
 1601              		.loc 1 250 5 is_stmt 1 view .LVU390
 1602              		.loc 1 250 55 is_stmt 0 view .LVU391
 1603 005c 89F89421 		strb	r2, [r9, #404]
 251:hothouse.cpp  ****   }
 252:hothouse.cpp  **** 
 253:hothouse.cpp  ****   uint32_t press_duration = now - footswitch_start_time[footswitch_index];
 1604              		.loc 1 253 3 is_stmt 1 view .LVU392
 1605              	.LVL123:
 254:hothouse.cpp  **** 
 255:hothouse.cpp  ****   if (is_pressed == true && press_duration >= HOLD_THRESHOLD_MS && !footswitch_long_press_triggered
 1606              		.loc 1 255 3 view .LVU393
 1607              	.L88:
 256:hothouse.cpp  ****     // Footswitch is being held down
 257:hothouse.cpp  ****     if (footswitchCallbacks->HandleLongPress != NULL) {
 258:hothouse.cpp  ****       footswitchCallbacks->HandleLongPress(footswitch);
 259:hothouse.cpp  ****     }
 260:hothouse.cpp  ****     footswitch_long_press_triggered[footswitch_index] = true; // Ensure long press is only triggere
 261:hothouse.cpp  ****   }
 262:hothouse.cpp  **** 
 263:hothouse.cpp  ****   if (is_pressed == false && footswitch_last_state[footswitch_index] == true) {
 264:hothouse.cpp  ****     // Button released
 265:hothouse.cpp  ****     if (!footswitch_long_press_triggered[footswitch_index]) {
 266:hothouse.cpp  ****       if (footswitch_press_count[footswitch_index] >= 2) {
 267:hothouse.cpp  ****         if (footswitchCallbacks->HandleDoublePress != NULL) {
 268:hothouse.cpp  ****           footswitchCallbacks->HandleDoublePress(footswitch);
 269:hothouse.cpp  ****         }
 270:hothouse.cpp  ****         footswitch_press_count[footswitch_index] = 0;
 271:hothouse.cpp  ****       } else if (press_duration < HOLD_THRESHOLD_MS && footswitchCallbacks->HandleNormalPress != NU
 272:hothouse.cpp  ****         footswitchCallbacks->HandleNormalPress(footswitch);
 273:hothouse.cpp  ****       }
 274:hothouse.cpp  ****     }
 275:hothouse.cpp  ****   }
 276:hothouse.cpp  **** 
 277:hothouse.cpp  ****   footswitch_last_state[footswitch_index] = is_pressed;
 1608              		.loc 1 277 3 view .LVU394
 1609              		.loc 1 277 43 is_stmt 0 view .LVU395
 1610 0060 89F89061 		strb	r6, [r9, #400]
 1611              	.LVL124:
 1612              	.L82:
 278:hothouse.cpp  **** }...
 1613              		.loc 1 278 1 view .LVU396
 1614 0064 BDE8F883 		pop	{r3, r4, r5, r6, r7, r8, r9, pc}
 1615              	.LVL125:
 1616              	.L109:
 235:hothouse.cpp  ****   int footswitch_index = footswitch == Hothouse::FOOTSWITCH_1 ? 0 : 1;
 1617              		.loc 1 235 3 is_stmt 1 view .LVU397
 237:hothouse.cpp  ****   uint32_t now = System::GetNow();
 1618              		.loc 1 237 32 is_stmt 0 view .LVU398
 1619 0068 FFF7FEFF 		bl	_ZN5daisy6System6GetNowEv
 1620              	.LVL126:
 235:hothouse.cpp  ****   int footswitch_index = footswitch == Hothouse::FOOTSWITCH_1 ? 0 : 1;
 1621              		.loc 1 235 63 view .LVU399
 1622 006c B5F10608 		subs	r8, r5, #6
 1623 0070 18BF     		it	ne
ARM GAS  /tmp/cc6aP9AC.s 			page 48


 1624 0072 4FF00108 		movne	r8, #1
 1625              	.LVL127:
 237:hothouse.cpp  ****   uint32_t now = System::GetNow();
 1626              		.loc 1 237 3 is_stmt 1 view .LVU400
 239:hothouse.cpp  ****   if (is_pressed == true && footswitch_last_state[footswitch_index] == false) {
 1627              		.loc 1 239 3 view .LVU401
 1628              	.L85:
 253:hothouse.cpp  ****   uint32_t press_duration = now - footswitch_start_time[footswitch_index];
 1629              		.loc 1 253 3 view .LVU402
 255:hothouse.cpp  ****   if (is_pressed == true && press_duration >= HOLD_THRESHOLD_MS && !footswitch_long_press_triggered
 1630              		.loc 1 255 3 view .LVU403
 263:hothouse.cpp  ****   if (is_pressed == false && footswitch_last_state[footswitch_index] == true) {
 1631              		.loc 1 263 3 view .LVU404
 263:hothouse.cpp  ****   if (is_pressed == false && footswitch_last_state[footswitch_index] == true) {
 1632              		.loc 1 263 68 is_stmt 0 view .LVU405
 1633 0076 04EB0809 		add	r9, r4, r8
 1634 007a 99F89061 		ldrb	r6, [r9, #400]	@ zero_extendqisi2
 263:hothouse.cpp  ****   if (is_pressed == false && footswitch_last_state[footswitch_index] == true) {
 1635              		.loc 1 263 27 view .LVU406
 1636 007e 002E     		cmp	r6, #0
 1637 0080 EED0     		beq	.L88
 265:hothouse.cpp  ****     if (!footswitch_long_press_triggered[footswitch_index]) {
 1638              		.loc 1 265 5 is_stmt 1 view .LVU407
 265:hothouse.cpp  ****     if (!footswitch_long_press_triggered[footswitch_index]) {
 1639              		.loc 1 265 58 is_stmt 0 view .LVU408
 1640 0082 99F89461 		ldrb	r6, [r9, #404]	@ zero_extendqisi2
 265:hothouse.cpp  ****     if (!footswitch_long_press_triggered[footswitch_index]) {
 1641              		.loc 1 265 5 view .LVU409
 1642 0086 5EBB     		cbnz	r6, .L95
 266:hothouse.cpp  ****       if (footswitch_press_count[footswitch_index] >= 2) {
 1643              		.loc 1 266 7 is_stmt 1 view .LVU410
 1644 0088 99F89231 		ldrb	r3, [r9, #402]	@ zero_extendqisi2
 1645 008c 012B     		cmp	r3, #1
 1646 008e 2BD9     		bls	.L90
 267:hothouse.cpp  ****         if (footswitchCallbacks->HandleDoublePress != NULL) {
 1647              		.loc 1 267 9 view .LVU411
 267:hothouse.cpp  ****         if (footswitchCallbacks->HandleDoublePress != NULL) {
 1648              		.loc 1 267 34 is_stmt 0 view .LVU412
 1649 0090 D4F89831 		ldr	r3, [r4, #408]
 1650 0094 5B68     		ldr	r3, [r3, #4]
 267:hothouse.cpp  ****         if (footswitchCallbacks->HandleDoublePress != NULL) {
 1651              		.loc 1 267 9 view .LVU413
 1652 0096 0BB1     		cbz	r3, .L91
 268:hothouse.cpp  ****           footswitchCallbacks->HandleDoublePress(footswitch);
 1653              		.loc 1 268 11 is_stmt 1 view .LVU414
 268:hothouse.cpp  ****           footswitchCallbacks->HandleDoublePress(footswitch);
 1654              		.loc 1 268 49 is_stmt 0 view .LVU415
 1655 0098 2846     		mov	r0, r5
 1656 009a 9847     		blx	r3
 1657              	.LVL128:
 1658              	.L91:
 270:hothouse.cpp  ****         footswitch_press_count[footswitch_index] = 0;
 1659              		.loc 1 270 9 is_stmt 1 view .LVU416
 270:hothouse.cpp  ****         footswitch_press_count[footswitch_index] = 0;
 1660              		.loc 1 270 50 is_stmt 0 view .LVU417
 1661 009c 0023     		movs	r3, #0
 1662 009e 89F89231 		strb	r3, [r9, #402]
ARM GAS  /tmp/cc6aP9AC.s 			page 49


 1663 00a2 DDE7     		b	.L88
 1664              	.LVL129:
 1665              	.L86:
 253:hothouse.cpp  ****   uint32_t press_duration = now - footswitch_start_time[footswitch_index];
 1666              		.loc 1 253 3 is_stmt 1 view .LVU418
 255:hothouse.cpp  ****   if (is_pressed == true && press_duration >= HOLD_THRESHOLD_MS && !footswitch_long_press_triggered
 1667              		.loc 1 255 3 view .LVU419
 253:hothouse.cpp  ****   uint32_t press_duration = now - footswitch_start_time[footswitch_index];
 1668              		.loc 1 253 73 is_stmt 0 view .LVU420
 1669 00a4 08F16003 		add	r3, r8, #96
 253:hothouse.cpp  ****   uint32_t press_duration = now - footswitch_start_time[footswitch_index];
 1670              		.loc 1 253 12 view .LVU421
 1671 00a8 54F82330 		ldr	r3, [r4, r3, lsl #2]
 1672 00ac C01A     		subs	r0, r0, r3
 1673              	.LVL130:
 255:hothouse.cpp  ****   if (is_pressed == true && press_duration >= HOLD_THRESHOLD_MS && !footswitch_long_press_triggered
 1674              		.loc 1 255 26 view .LVU422
 1675 00ae B0F5FA6F 		cmp	r0, #2000
 1676 00b2 29D3     		bcc	.L111
 255:hothouse.cpp  ****   if (is_pressed == true && press_duration >= HOLD_THRESHOLD_MS && !footswitch_long_press_triggered
 1677              		.loc 1 255 117 discriminator 2 view .LVU423
 1678 00b4 99F89461 		ldrb	r6, [r9, #404]	@ zero_extendqisi2
 255:hothouse.cpp  ****   if (is_pressed == true && press_duration >= HOLD_THRESHOLD_MS && !footswitch_long_press_triggered
 1679              		.loc 1 255 65 discriminator 2 view .LVU424
 1680 00b8 002E     		cmp	r6, #0
 1681 00ba D1D1     		bne	.L88
 257:hothouse.cpp  ****     if (footswitchCallbacks->HandleLongPress != NULL) {
 1682              		.loc 1 257 5 is_stmt 1 view .LVU425
 257:hothouse.cpp  ****     if (footswitchCallbacks->HandleLongPress != NULL) {
 1683              		.loc 1 257 30 is_stmt 0 view .LVU426
 1684 00bc D4F89831 		ldr	r3, [r4, #408]
 1685 00c0 9B68     		ldr	r3, [r3, #8]
 257:hothouse.cpp  ****     if (footswitchCallbacks->HandleLongPress != NULL) {
 1686              		.loc 1 257 5 view .LVU427
 1687 00c2 0BB1     		cbz	r3, .L89
 258:hothouse.cpp  ****       footswitchCallbacks->HandleLongPress(footswitch);
 1688              		.loc 1 258 7 is_stmt 1 view .LVU428
 258:hothouse.cpp  ****       footswitchCallbacks->HandleLongPress(footswitch);
 1689              		.loc 1 258 43 is_stmt 0 view .LVU429
 1690 00c4 2846     		mov	r0, r5
 1691 00c6 9847     		blx	r3
 1692              	.LVL131:
 1693              	.L89:
 260:hothouse.cpp  ****     footswitch_long_press_triggered[footswitch_index] = true; // Ensure long press is only triggere
 1694              		.loc 1 260 5 is_stmt 1 view .LVU430
 260:hothouse.cpp  ****     footswitch_long_press_triggered[footswitch_index] = true; // Ensure long press is only triggere
 1695              		.loc 1 260 55 is_stmt 0 view .LVU431
 1696 00c8 0123     		movs	r3, #1
 1697 00ca 3E46     		mov	r6, r7
 1698 00cc 89F89431 		strb	r3, [r9, #404]
 277:hothouse.cpp  ****   footswitch_last_state[footswitch_index] = is_pressed;
 1699              		.loc 1 277 3 is_stmt 1 view .LVU432
 277:hothouse.cpp  ****   footswitch_last_state[footswitch_index] = is_pressed;
 1700              		.loc 1 277 43 is_stmt 0 view .LVU433
 1701 00d0 89F89061 		strb	r6, [r9, #400]
 1702 00d4 C6E7     		b	.L82
 1703              	.LVL132:
ARM GAS  /tmp/cc6aP9AC.s 			page 50


 1704              	.L110:
 244:hothouse.cpp  ****       footswitch_press_count[footswitch_index]++;
 1705              		.loc 1 244 7 is_stmt 1 view .LVU434
 244:hothouse.cpp  ****       footswitch_press_count[footswitch_index]++;
 1706              		.loc 1 244 47 is_stmt 0 view .LVU435
 1707 00d6 99F89221 		ldrb	r2, [r9, #402]	@ zero_extendqisi2
 1708 00da 0132     		adds	r2, r2, #1
 1709 00dc D2B2     		uxtb	r2, r2
 1710 00de B8E7     		b	.L87
 1711              	.LVL133:
 1712              	.L95:
 244:hothouse.cpp  ****       footswitch_press_count[footswitch_index]++;
 1713              		.loc 1 244 47 view .LVU436
 1714 00e0 0026     		movs	r6, #0
 277:hothouse.cpp  ****   footswitch_last_state[footswitch_index] = is_pressed;
 1715              		.loc 1 277 3 is_stmt 1 view .LVU437
 277:hothouse.cpp  ****   footswitch_last_state[footswitch_index] = is_pressed;
 1716              		.loc 1 277 43 is_stmt 0 view .LVU438
 1717 00e2 89F89061 		strb	r6, [r9, #400]
 1718 00e6 BDE7     		b	.L82
 1719              	.L90:
 271:hothouse.cpp  ****       } else if (press_duration < HOLD_THRESHOLD_MS && footswitchCallbacks->HandleNormalPress != NU
 1720              		.loc 1 271 14 is_stmt 1 view .LVU439
 253:hothouse.cpp  ****   uint32_t press_duration = now - footswitch_start_time[footswitch_index];
 1721              		.loc 1 253 73 is_stmt 0 view .LVU440
 1722 00e8 08F16003 		add	r3, r8, #96
 253:hothouse.cpp  ****   uint32_t press_duration = now - footswitch_start_time[footswitch_index];
 1723              		.loc 1 253 12 view .LVU441
 1724 00ec 54F82330 		ldr	r3, [r4, r3, lsl #2]
 1725 00f0 C01A     		subs	r0, r0, r3
 271:hothouse.cpp  ****       } else if (press_duration < HOLD_THRESHOLD_MS && footswitchCallbacks->HandleNormalPress != NU
 1726              		.loc 1 271 14 view .LVU442
 1727 00f2 B0F5FA6F 		cmp	r0, #2000
 1728 00f6 B3D2     		bcs	.L88
 271:hothouse.cpp  ****       } else if (press_duration < HOLD_THRESHOLD_MS && footswitchCallbacks->HandleNormalPress != NU
 1729              		.loc 1 271 77 discriminator 1 view .LVU443
 1730 00f8 D4F89831 		ldr	r3, [r4, #408]
 1731 00fc 1B68     		ldr	r3, [r3]
 271:hothouse.cpp  ****       } else if (press_duration < HOLD_THRESHOLD_MS && footswitchCallbacks->HandleNormalPress != NU
 1732              		.loc 1 271 53 discriminator 1 view .LVU444
 1733 00fe 002B     		cmp	r3, #0
 1734 0100 AED0     		beq	.L88
 272:hothouse.cpp  ****         footswitchCallbacks->HandleNormalPress(footswitch);
 1735              		.loc 1 272 9 is_stmt 1 view .LVU445
 272:hothouse.cpp  ****         footswitchCallbacks->HandleNormalPress(footswitch);
 1736              		.loc 1 272 47 is_stmt 0 view .LVU446
 1737 0102 2846     		mov	r0, r5
 1738 0104 9847     		blx	r3
 1739              	.LVL134:
 1740 0106 ABE7     		b	.L88
 1741              	.LVL135:
 1742              	.L111:
 272:hothouse.cpp  ****         footswitchCallbacks->HandleNormalPress(footswitch);
 1743              		.loc 1 272 47 view .LVU447
 1744 0108 3E46     		mov	r6, r7
 1745 010a A9E7     		b	.L88
 1746              		.cfi_endproc
ARM GAS  /tmp/cc6aP9AC.s 			page 51


 1747              	.LFE2587:
 1749              		.section	.text._ZN16clevelandmusicco8Hothouse22ProcessDigitalControlsEv,"ax",%progbits
 1750              		.align	1
 1751              		.p2align 2,,3
 1752              		.global	_ZN16clevelandmusicco8Hothouse22ProcessDigitalControlsEv
 1753              		.syntax unified
 1754              		.thumb
 1755              		.thumb_func
 1756              		.fpu fpv5-d16
 1758              	_ZN16clevelandmusicco8Hothouse22ProcessDigitalControlsEv:
 1759              	.LVL136:
 1760              	.LFB2580:
 117:hothouse.cpp  **** void Hothouse::ProcessDigitalControls() {
 1761              		.loc 1 117 41 is_stmt 1 view -0
 1762              		.cfi_startproc
 1763              		@ args = 0, pretend = 0, frame = 0
 1764              		@ frame_needed = 0, uses_anonymous_args = 0
 118:hothouse.cpp  ****   for (size_t i = 0; i < SWITCH_LAST; i++) {
 1765              		.loc 1 118 3 view .LVU449
 1766              	.LBB197:
 118:hothouse.cpp  ****   for (size_t i = 0; i < SWITCH_LAST; i++) {
 1767              		.loc 1 118 24 view .LVU450
 1768              	.LBE197:
 117:hothouse.cpp  **** void Hothouse::ProcessDigitalControls() {
 1769              		.loc 1 117 41 is_stmt 0 view .LVU451
 1770 0000 70B5     		push	{r4, r5, r6, lr}
 1771              		.cfi_def_cfa_offset 16
 1772              		.cfi_offset 4, -16
 1773              		.cfi_offset 5, -12
 1774              		.cfi_offset 6, -8
 1775              		.cfi_offset 14, -4
 117:hothouse.cpp  **** void Hothouse::ProcessDigitalControls() {
 1776              		.loc 1 117 41 view .LVU452
 1777 0002 0646     		mov	r6, r0
 1778 0004 00F58074 		add	r4, r0, #256
 1779 0008 00F5C075 		add	r5, r0, #384
 1780              	.LVL137:
 1781              	.L113:
 1782              	.LBB198:
 119:hothouse.cpp  ****     switches[i].Debounce();
 1783              		.loc 1 119 5 is_stmt 1 discriminator 2 view .LVU453
 119:hothouse.cpp  ****     switches[i].Debounce();
 1784              		.loc 1 119 25 is_stmt 0 discriminator 2 view .LVU454
 1785 000c 2046     		mov	r0, r4
 118:hothouse.cpp  ****   for (size_t i = 0; i < SWITCH_LAST; i++) {
 1786              		.loc 1 118 24 discriminator 2 view .LVU455
 1787 000e 1034     		adds	r4, r4, #16
 119:hothouse.cpp  ****     switches[i].Debounce();
 1788              		.loc 1 119 25 discriminator 2 view .LVU456
 1789 0010 FFF7FEFF 		bl	_ZN5daisy6Switch8DebounceEv
 1790              	.LVL138:
 118:hothouse.cpp  ****   for (size_t i = 0; i < SWITCH_LAST; i++) {
 1791              		.loc 1 118 3 is_stmt 1 discriminator 2 view .LVU457
 118:hothouse.cpp  ****   for (size_t i = 0; i < SWITCH_LAST; i++) {
 1792              		.loc 1 118 24 discriminator 2 view .LVU458
 1793 0014 AC42     		cmp	r4, r5
 1794 0016 F9D1     		bne	.L113
ARM GAS  /tmp/cc6aP9AC.s 			page 52


 1795              	.LBE198:
 121:hothouse.cpp  ****   ProcessFootswitchPresses(FOOTSWITCH_1);
 1796              		.loc 1 121 3 view .LVU459
 121:hothouse.cpp  ****   ProcessFootswitchPresses(FOOTSWITCH_1);
 1797              		.loc 1 121 27 is_stmt 0 view .LVU460
 1798 0018 3046     		mov	r0, r6
 1799 001a 0621     		movs	r1, #6
 1800 001c FFF7FEFF 		bl	_ZN16clevelandmusicco8Hothouse24ProcessFootswitchPressesENS0_8SwitchesE
 1801              	.LVL139:
 122:hothouse.cpp  ****   ProcessFootswitchPresses(FOOTSWITCH_2);
 1802              		.loc 1 122 3 is_stmt 1 view .LVU461
 122:hothouse.cpp  ****   ProcessFootswitchPresses(FOOTSWITCH_2);
 1803              		.loc 1 122 27 is_stmt 0 view .LVU462
 1804 0020 3046     		mov	r0, r6
 1805 0022 0721     		movs	r1, #7
 123:hothouse.cpp  **** }
 1806              		.loc 1 123 1 view .LVU463
 1807 0024 BDE87040 		pop	{r4, r5, r6, lr}
 1808              		.cfi_restore 14
 1809              		.cfi_restore 6
 1810              		.cfi_restore 5
 1811              		.cfi_restore 4
 1812              		.cfi_def_cfa_offset 0
 1813              	.LVL140:
 122:hothouse.cpp  ****   ProcessFootswitchPresses(FOOTSWITCH_2);
 1814              		.loc 1 122 27 view .LVU464
 1815 0028 FFF7FEBF 		b	_ZN16clevelandmusicco8Hothouse24ProcessFootswitchPressesENS0_8SwitchesE
 1816              	.LVL141:
 122:hothouse.cpp  ****   ProcessFootswitchPresses(FOOTSWITCH_2);
 1817              		.loc 1 122 27 view .LVU465
 1818              		.cfi_endproc
 1819              	.LFE2580:
 1821              		.global	_ZN16clevelandmusicco8Hothouse17HOLD_THRESHOLD_MSE
 1822              		.section	.rodata
 1823              		.align	2
 1824              		.set	.LANCHOR0,. + 0
 1825              	.LC0:
 1826 0000 01       		.byte	1
 1827 0001 04       		.byte	4
 1828 0002 01       		.byte	1
 1829 0003 05       		.byte	5
 1830 0004 06       		.byte	6
 1831 0005 0A       		.byte	10
 1832 0006 06       		.byte	6
 1833 0007 0B       		.byte	11
 1834 0008 03       		.byte	3
 1835 0009 02       		.byte	2
 1836 000a 02       		.byte	2
 1837 000b 0C       		.byte	12
 1838 000c 00       		.byte	0
 1839 000d 00       		.byte	0
 1840 000e 03       		.byte	3
 1841 000f 0B       		.byte	11
 1842              	.LC1:
 1843 0010 00       		.byte	0
 1844 0011 03       		.byte	3
 1845 0012 01       		.byte	1
ARM GAS  /tmp/cc6aP9AC.s 			page 53


 1846 0013 01       		.byte	1
 1847 0014 00       		.byte	0
 1848 0015 07       		.byte	7
 1849 0016 00       		.byte	0
 1850 0017 06       		.byte	6
 1851 0018 02       		.byte	2
 1852 0019 01       		.byte	1
 1853 001a 02       		.byte	2
 1854 001b 04       		.byte	4
 1855              		.section	.rodata._ZN16clevelandmusicco8Hothouse17HOLD_THRESHOLD_MSE,"a"
 1856              		.align	2
 1859              	_ZN16clevelandmusicco8Hothouse17HOLD_THRESHOLD_MSE:
 1860 0000 D0070000 		.word	2000
 1861              		.text
 1862              	.Letext0:
 1863              		.file 7 "/usr/lib/gcc/arm-none-eabi/10.3.1/include/stdint.h"
 1864              		.file 8 "/usr/lib/gcc/arm-none-eabi/10.3.1/include/stddef.h"
 1865              		.file 9 "/usr/include/newlib/c++/10.3.1/cmath"
 1866              		.file 10 "/usr/include/newlib/c++/10.3.1/bits/std_abs.h"
 1867              		.file 11 "/usr/include/newlib/c++/10.3.1/cstdlib"
 1868              		.file 12 "/usr/include/newlib/c++/10.3.1/cstdint"
 1869              		.file 13 "/usr/include/newlib/c++/10.3.1/type_traits"
 1870              		.file 14 "/usr/include/newlib/c++/10.3.1/debug/debug.h"
 1871              		.file 15 "/usr/include/newlib/c++/10.3.1/arm-none-eabi/thumb/v7e-m+dp/hard/bits/c++config.h"
 1872              		.file 16 "/usr/include/newlib/c++/10.3.1/bits/algorithmfwd.h"
 1873              		.file 17 "/usr/include/newlib/c++/10.3.1/bits/stl_pair.h"
 1874              		.file 18 "/usr/include/newlib/c++/10.3.1/bits/exception_ptr.h"
 1875              		.file 19 "/usr/include/newlib/c++/10.3.1/cstdarg"
 1876              		.file 20 "/usr/include/newlib/c++/10.3.1/cstdio"
 1877              		.file 21 "/usr/include/newlib/c++/10.3.1/cstring"
 1878              		.file 22 "/usr/include/newlib/c++/10.3.1/bits/predefined_ops.h"
 1879              		.file 23 "/usr/include/newlib/sys/_types.h"
 1880              		.file 24 "/usr/include/newlib/sys/reent.h"
 1881              		.file 25 "/usr/include/newlib/sys/lock.h"
 1882              		.file 26 "/usr/include/newlib/math.h"
 1883              		.file 27 "/usr/include/newlib/stdlib.h"
 1884              		.file 28 "/usr/include/newlib/c++/10.3.1/math.h"
 1885              		.file 29 "/usr/include/newlib/c++/10.3.1/stdlib.h"
 1886              		.file 30 "/home/ubuntu/DaisyExamples/libDaisy/src/per/tim.h"
 1887              		.file 31 "/home/ubuntu/DaisyExamples/libDaisy/src/sys/system.h"
 1888              		.file 32 "/home/ubuntu/DaisyExamples/libDaisy/src/per/qspi.h"
 1889              		.file 33 "/home/ubuntu/DaisyExamples/libDaisy/src/per/dac.h"
 1890              		.file 34 "/home/ubuntu/DaisyExamples/libDaisy/src/per/sai.h"
 1891              		.file 35 "/home/ubuntu/DaisyExamples/libDaisy/src/hid/audio.h"
 1892              		.file 36 "/home/ubuntu/DaisyExamples/libDaisy/src/per/adc.h"
 1893              		.file 37 "/home/ubuntu/DaisyExamples/libDaisy/src/hid/usb.h"
 1894              		.file 38 "/home/ubuntu/DaisyExamples/libDaisy/src/hid/logger_impl.h"
 1895              		.file 39 "/home/ubuntu/DaisyExamples/libDaisy/src/util/wav_format.h"
 1896              		.file 40 "/home/ubuntu/DaisyExamples/libDaisy/src/dev/max11300.h"
 1897              		.file 41 "/home/ubuntu/DaisyExamples/libDaisy/src/hid/logger.h"
 1898              		.file 42 "/home/ubuntu/DaisyExamples/libDaisy/src/per/gpio.h"
 1899              		.file 43 "/home/ubuntu/DaisyExamples/libDaisy/src/dev/sdram.h"
 1900              		.file 44 "/usr/lib/gcc/arm-none-eabi/10.3.1/include/stdarg.h"
 1901              		.file 45 "/usr/include/newlib/stdio.h"
 1902              		.file 46 "/usr/include/newlib/string.h"
 1903              		.file 47 "hothouse.h"
 1904              		.file 48 "/home/ubuntu/DaisyExamples/libDaisy/src/dev/sr_595.h"
ARM GAS  /tmp/cc6aP9AC.s 			page 54


 1905              		.file 49 "<built-in>"
ARM GAS  /tmp/cc6aP9AC.s 			page 55

